 AIServer

 Timestamp is 5a23140a (Sat Dec  2 12:58:50 2017)

 Preferred load address is 00400000

 Start         Length     Name                   Class
 0001:00000000 0015e059H .textbss                DATA
 0002:00000000 0002aa00H .text$di                CODE
 0002:0002aa00 002a9b10H .text$mn                CODE
 0002:002d4510 0001c0b0H .text$x                 CODE
 0002:002f05c0 000013c7H .text$yd                CODE
 0003:00000000 00000104H .CRT$XCA                DATA
 0003:00000104 00000104H .CRT$XCAA               DATA
 0003:00000208 000001d0H .CRT$XCC                DATA
 0003:000003d8 00000124H .CRT$XCL                DATA
 0003:000004fc 00000158H .CRT$XCU                DATA
 0003:00000654 00000104H .CRT$XCZ                DATA
 0003:00000758 00000104H .CRT$XIA                DATA
 0003:0000085c 00000104H .CRT$XIAA               DATA
 0003:00000960 00000104H .CRT$XIAC               DATA
 0003:00000a64 0000011cH .CRT$XIC                DATA
 0003:00000b80 00000104H .CRT$XIZ                DATA
 0003:00000c84 00000004H .CRT$XLA                DATA
 0003:00000c88 00000004H .CRT$XLZ                DATA
 0003:00000c8c 00000104H .CRT$XPA                DATA
 0003:00000d90 00000104H .CRT$XPB                DATA
 0003:00000e94 0000010cH .CRT$XPX                DATA
 0003:00000fa0 00000104H .CRT$XPXA               DATA
 0003:000010a4 00000104H .CRT$XPZ                DATA
 0003:000011a8 00000104H .CRT$XTA                DATA
 0003:000012ac 00000104H .CRT$XTZ                DATA
 0003:000013b0 00064938H .rdata                  DATA
 0003:00065ce8 0000011cH .rdata$T                DATA
 0003:00065e04 00005bd8H .rdata$r                DATA
 0003:0006b9dc 000001b8H .rdata$zzzdbg           DATA
 0003:0006bb94 00000104H .rtc$IAA                DATA
 0003:0006bc98 000001bcH .rtc$IMZ                DATA
 0003:0006be54 00000104H .rtc$IZZ                DATA
 0003:0006bf58 00000104H .rtc$TAA                DATA
 0003:0006c05c 000001bcH .rtc$TMZ                DATA
 0003:0006c218 00000108H .rtc$TZZ                DATA
 0003:0006c320 0001cb98H .xdata$x                DATA
 0003:00088eb8 00000000H .edata                  DATA
 0004:00000000 00001518H .data                   DATA
 0004:00001518 00003468H .data$r                 DATA
 0004:00004980 00003d5cH .bss                    DATA
 0005:00000000 000003d0H .idata$5                DATA
 0005:000003d0 0000003cH .idata$2                DATA
 0005:0000040c 00000014H .idata$3                DATA
 0005:00000420 000003d0H .idata$4                DATA
 0005:000007f0 00000d8eH .idata$6                DATA
 0006:00000000 00000104H .tls                    DATA
 0006:00000104 00000104H .tls$                   DATA
 0006:00000208 00000101H .tls$ZZZ                DATA
 0007:00000000 00000104H .00cfg                  DATA
 0008:00000000 00000400H .rsrc$01                DATA
 0008:00000400 0001bcecH .rsrc$02                DATA

  Address         Publics by Value              Rva+Base       Lib:Object

 0000:00000000       ___guard_iat_count         00000000     <absolute>
 0000:00000000       ___guard_fids_count        00000000     <absolute>
 0000:00000000       ___dynamic_value_reloc_table 00000000     <absolute>
 0000:00000000       ___enclave_config          00000000     <absolute>
 0000:00000000       ___guard_longjmp_table     00000000     <absolute>
 0000:00000000       ___hybrid_code_map         00000000     <absolute>
 0000:00000000       ___guard_iat_table         00000000     <absolute>
 0000:00000000       ___safe_se_handler_count   00000000     <absolute>
 0000:00000000       ___safe_se_handler_table   00000000     <absolute>
 0000:00000000       ___hybrid_code_map_count   00000000     <absolute>
 0000:00000000       __except_list              00000000     <absolute>
 0000:00000000       ___guard_fids_table        00000000     <absolute>
 0000:00000000       ___guard_longjmp_count     00000000     <absolute>
 0000:00000000       ___hybrid_auxiliary_iat    00000000     <absolute>
 0000:0000002c       __tls_array                0000002c     <absolute>
 0000:00000100       ___guard_flags             00000100     <absolute>
 0000:00000000       ___ImageBase               00400000     <linker-defined>
 0001:00000000       __enc$textbss$begin        00401000     <linker-defined>
 0001:0015e059       __enc$textbss$end          0055f059     <linker-defined>
 0002:0002aa00       ??$?0$$V@?$_Compressed_pair@V?$allocator@E@std@@V?$_Vector_val@U?$_Simple_types@E@std@@@2@$00@std@@QAE@U_Zero_then_variadic_args_t@1@@Z 0058aa00 f i MagicProcess.obj
 0002:0002aa60       ??$?0E@?$allocator@U_Container_proxy@std@@@std@@QAE@ABV?$allocator@E@1@@Z 0058aa60 f i MagicProcess.obj
 0002:0002aaa0       ??$_Copy_memmove@PAEPAE@std@@YAPAEPAE00@Z 0058aaa0 f i MagicProcess.obj
 0002:0002ab20       ??$_Deallocate_plain@V?$allocator@U_Container_proxy@std@@@std@@$0A@@std@@YAXAAV?$allocator@U_Container_proxy@std@@@0@QAU_Container_proxy@0@@Z 0058ab20 f i MagicProcess.obj
 0002:0002ab80       ??$_Debug_lt_pred@AAU?$less@E@std@@ABEABE@std@@YA_NAAU?$less@E@0@ABE1PB_WI@Z 0058ab80 f i MagicProcess.obj
 0002:0002ac70       ??$_Debug_lt_pred@AAU?$less@I@std@@ABIABI@std@@YA_NAAU?$less@I@0@ABI1PB_WI@Z 0058ac70 f i MagicProcess.obj
 0002:0002ad60       ??$_Debug_lt_pred@ABU?$less@E@std@@ABEABE@std@@YA_NABU?$less@E@0@ABE1PB_WI@Z 0058ad60 f i MagicProcess.obj
 0002:0002ae50       ??$_Debug_lt_pred@ABU?$less@I@std@@ABIABI@std@@YA_NABU?$less@I@0@ABI1PB_WI@Z 0058ae50 f i MagicProcess.obj
 0002:0002af40       ??$_Destroy_range1@V?$allocator@E@std@@@std@@YAXPAE0AAV?$allocator@E@0@U?$integral_constant@_N$00@0@@Z 0058af40 f i MagicProcess.obj
 0002:0002af70       ??$_Destroy_range@V?$allocator@E@std@@@std@@YAXPAE0AAV?$allocator@E@0@@Z 0058af70 f i MagicProcess.obj
 0002:0002afe0       ??$_Kfn@$$CBEU_BUFF_TYPE4_INFO@@@?$_Tmap_traits@EU_BUFF_TYPE4_INFO@@U?$less@E@std@@V?$allocator@U?$pair@$$CBEU_BUFF_TYPE4_INFO@@@std@@@3@$0A@@std@@SAABEABU?$pair@$$CBEU_BUFF_TYPE4_INFO@@@1@@Z 0058afe0 f i MagicProcess.obj
 0002:0002b020       ??$_Kfn@$$CBIPAU_MAGIC_TABLE@@@?$_Tmap_traits@IPAU_MAGIC_TABLE@@U?$less@I@std@@V?$allocator@U?$pair@$$CBIPAU_MAGIC_TABLE@@@std@@@3@$0A@@std@@SAABIABU?$pair@$$CBIPAU_MAGIC_TABLE@@@1@@Z 0058b020 f i MagicProcess.obj
 0002:0002b060       ??$_Kfn@$$CBIPAU_MAGIC_TYPE4@@@?$_Tmap_traits@IPAU_MAGIC_TYPE4@@U?$less@I@std@@V?$allocator@U?$pair@$$CBIPAU_MAGIC_TYPE4@@@std@@@3@$0A@@std@@SAABIABU?$pair@$$CBIPAU_MAGIC_TYPE4@@@1@@Z 0058b060 f i MagicProcess.obj
 0002:0002b0a0       ??$_Lbound@E@?$_Tree@V?$_Tmap_traits@EU_BUFF_TYPE4_INFO@@U?$less@E@std@@V?$allocator@U?$pair@$$CBEU_BUFF_TYPE4_INFO@@@std@@@3@$0A@@std@@@std@@IBEPAU?$_Tree_node@U?$pair@$$CBEU_BUFF_TYPE4_INFO@@@std@@PAX@1@ABE@Z 0058b0a0 f i MagicProcess.obj
 0002:0002b170       ??$_Lbound@I@?$_Tree@V?$_Tmap_traits@IPAU_MAGIC_TABLE@@U?$less@I@std@@V?$allocator@U?$pair@$$CBIPAU_MAGIC_TABLE@@@std@@@3@$0A@@std@@@std@@IBEPAU?$_Tree_node@U?$pair@$$CBIPAU_MAGIC_TABLE@@@std@@PAX@1@ABI@Z 0058b170 f i MagicProcess.obj
 0002:0002b240       ??$_Lbound@I@?$_Tree@V?$_Tmap_traits@IPAU_MAGIC_TYPE4@@U?$less@I@std@@V?$allocator@U?$pair@$$CBIPAU_MAGIC_TYPE4@@@std@@@3@$0A@@std@@@std@@IBEPAU?$_Tree_node@U?$pair@$$CBIPAU_MAGIC_TYPE4@@@std@@PAX@1@ABI@Z 0058b240 f i MagicProcess.obj
 0002:0002b310       ??$_Min_value@I@std@@YAABIABI0@Z 0058b310 f i MagicProcess.obj
 0002:0002b380       ??$_Ptr_move_cat@EE@std@@YA?AU_Really_trivial_ptr_iterator_tag@0@ABQAE0@Z 0058b380 f i MagicProcess.obj
 0002:0002b3c0       ??$_Rechecked@PAEPAE@std@@YAAAPAEAAPAEPAE@Z 0058b3c0 f i MagicProcess.obj
 0002:0002b6a0       ??$_Unchecked@PAE@std@@YAPAEPAE@Z 0058b6a0 f i MagicProcess.obj
 0002:0002b6e0       ??$_Unfancy@U_Container_proxy@std@@@std@@YAPAU_Container_proxy@0@PAU10@@Z 0058b6e0 f i MagicProcess.obj
 0002:0002b720       ??$_Uninitialized_move@PAEPAEV?$allocator@E@std@@@std@@YAPAEPAE00AAV?$allocator@E@0@@Z 0058b720 f i MagicProcess.obj
 0002:0002b850       ??$_Uninitialized_move_al_unchecked@EEV?$allocator@E@std@@@std@@YAPAEPAE00AAV?$allocator@E@0@U_Really_trivial_ptr_iterator_tag@0@U?$integral_constant@_N$00@0@@Z 0058b850 f i MagicProcess.obj
 0002:0002b8b0       ??$_Uninitialized_value_construct_n1@PAEIV?$allocator@E@std@@@std@@YAPAEPAEIAAV?$allocator@E@0@U?$integral_constant@_N$00@0@@Z 0058b8b0 f i MagicProcess.obj
 0002:0002b910       ??$_Uninitialized_value_construct_n@PAEIV?$allocator@E@std@@@std@@YAPAEPAEIAAV?$allocator@E@0@@Z 0058b910 f i MagicProcess.obj
 0002:0002b980       ??$_Zero_range@PAE@std@@YAPAEPAE0@Z 0058b980 f i MagicProcess.obj
 0002:0002b9f0       ??$__vcrt_va_start_verify_argument_type@QBD@@YAXXZ 0058b9f0 f i MagicProcess.obj
 0002:0002ba20       ??$addressof@U?$pair@$$CBEU_BUFF_TYPE4_INFO@@@std@@@std@@YAPAU?$pair@$$CBEU_BUFF_TYPE4_INFO@@@0@AAU10@@Z 0058ba20 f i MagicProcess.obj
 0002:0002ba60       ??$addressof@U?$pair@$$CBIPAU_MAGIC_TABLE@@@std@@@std@@YAPAU?$pair@$$CBIPAU_MAGIC_TABLE@@@0@AAU10@@Z 0058ba60 f i MagicProcess.obj
 0002:0002baa0       ??$addressof@U?$pair@$$CBIPAU_MAGIC_TYPE4@@@std@@@std@@YAPAU?$pair@$$CBIPAU_MAGIC_TYPE4@@@0@AAU10@@Z 0058baa0 f i MagicProcess.obj
 0002:0002bae0       ??$addressof@V?$_Tree_val@U?$_Tree_simple_types@U?$pair@$$CBEU_BUFF_TYPE4_INFO@@@std@@@std@@@std@@@std@@YAPAV?$_Tree_val@U?$_Tree_simple_types@U?$pair@$$CBEU_BUFF_TYPE4_INFO@@@std@@@std@@@0@AAV10@@Z 0058bae0 f i MagicProcess.obj
 0002:0002bb20       ??$addressof@V?$_Tree_val@U?$_Tree_simple_types@U?$pair@$$CBIPAU_MAGIC_TABLE@@@std@@@std@@@std@@@std@@YAPAV?$_Tree_val@U?$_Tree_simple_types@U?$pair@$$CBIPAU_MAGIC_TABLE@@@std@@@std@@@0@AAV10@@Z 0058bb20 f i MagicProcess.obj
 0002:0002bb60       ??$addressof@V?$_Tree_val@U?$_Tree_simple_types@U?$pair@$$CBIPAU_MAGIC_TYPE4@@@std@@@std@@@std@@@std@@YAPAV?$_Tree_val@U?$_Tree_simple_types@U?$pair@$$CBIPAU_MAGIC_TYPE4@@@std@@@std@@@0@AAV10@@Z 0058bb60 f i MagicProcess.obj
 0002:0002bba0       ??$addressof@V?$_Vector_val@U?$_Simple_types@E@std@@@std@@@std@@YAPAV?$_Vector_val@U?$_Simple_types@E@std@@@0@AAV10@@Z 0058bba0 f i MagicProcess.obj
 0002:0002bbe0       ??$append@E@ByteBuffer@@QAEXE@Z 0058bbe0 f i MagicProcess.obj
 0002:0002bc40       ??$construct@U_Container_proxy@std@@U12@@?$_Default_allocator_traits@V?$allocator@U_Container_proxy@std@@@std@@@std@@SAXAAV?$allocator@U_Container_proxy@std@@@1@QAU_Container_proxy@1@$$QAU31@@Z 0058bc40 f i MagicProcess.obj
 0002:0002bcc0       ??$destroy@U?$pair@$$CBEU_BUFF_TYPE4_INFO@@@std@@@?$_Default_allocator_traits@V?$allocator@U?$_Tree_node@U?$pair@$$CBEU_BUFF_TYPE4_INFO@@@std@@PAX@std@@@std@@@std@@SAXAAV?$allocator@U?$_Tree_node@U?$pair@$$CBEU_BUFF_TYPE4_INFO@@@std@@PAX@std@@@1@QAU?$pair@$$CBEU_BUFF_TYPE4_INFO@@@1@@Z 0058bcc0 f i MagicProcess.obj
 0002:0002bcf0       ??$destroy@U_Container_proxy@std@@@?$_Default_allocator_traits@V?$allocator@U_Container_proxy@std@@@std@@@std@@SAXAAV?$allocator@U_Container_proxy@std@@@1@QAU_Container_proxy@1@@Z 0058bcf0 f i MagicProcess.obj
 0002:0002bd20       ??$erase@V?$_Tree_iterator@V?$_Tree_val@U?$_Tree_simple_types@U?$pair@$$CBEU_BUFF_TYPE4_INFO@@@std@@@std@@@std@@@std@@X@?$_Tree@V?$_Tmap_traits@EU_BUFF_TYPE4_INFO@@U?$less@E@std@@V?$allocator@U?$pair@$$CBEU_BUFF_TYPE4_INFO@@@std@@@3@$0A@@std@@@std@@QAE?AV?$_Tree_iterator@V?$_Tree_val@U?$_Tree_simple_types@U?$pair@$$CBEU_BUFF_TYPE4_INFO@@@std@@@std@@@std@@@1@V21@@Z 0058bd20 f i MagicProcess.obj
 0002:0002be10       ??$forward@U_Container_proxy@std@@@std@@YA$$QAU_Container_proxy@0@AAU10@@Z 0058be10 f i MagicProcess.obj
 0002:0002be50       ??$move@AAD@std@@YA$$QADAAD@Z 0058be50 f i MagicProcess.obj
 0002:0002be90       ??$read@D@ByteBuffer@@QAEDXZ 0058be90 f i MagicProcess.obj
 0002:0002bf10       ??$read@D@ByteBuffer@@QBEDI@Z 0058bf10 f i MagicProcess.obj
 0002:0002bf90       ??$read@E@ByteBuffer@@QAEEXZ 0058bf90 f i MagicProcess.obj
 0002:0002c010       ??$read@E@ByteBuffer@@QBEEI@Z 0058c010 f i MagicProcess.obj
 0002:0002c090       ??$read@G@ByteBuffer@@QAEGXZ 0058c090 f i MagicProcess.obj
 0002:0002c110       ??$read@G@ByteBuffer@@QBEGI@Z 0058c110 f i MagicProcess.obj
 0002:0002c190       ??$read@I@ByteBuffer@@QAEIXZ 0058c190 f i MagicProcess.obj
 0002:0002c210       ??$read@I@ByteBuffer@@QBEII@Z 0058c210 f i MagicProcess.obj
 0002:0002c290       ??$swap@DX@std@@YAXAAD0@Z  0058c290 f i MagicProcess.obj
 0002:0002c3a0       ??0?$_Tree_const_iterator@V?$_Tree_val@U?$_Tree_simple_types@U?$pair@$$CBEU_BUFF_TYPE4_INFO@@@std@@@std@@@std@@@std@@QAE@$$QAV01@@Z 0058c3a0 f i MagicProcess.obj
 0002:0002c400       ??0?$_Tree_const_iterator@V?$_Tree_val@U?$_Tree_simple_types@U?$pair@$$CBEU_BUFF_TYPE4_INFO@@@std@@@std@@@std@@@std@@QAE@ABV01@@Z 0058c400 f i MagicProcess.obj
 0002:0002c460       ??0?$_Tree_const_iterator@V?$_Tree_val@U?$_Tree_simple_types@U?$pair@$$CBEU_BUFF_TYPE4_INFO@@@std@@@std@@@std@@@std@@QAE@PAU?$_Tree_node@U?$pair@$$CBEU_BUFF_TYPE4_INFO@@@std@@PAX@1@PBV?$_Tree_val@U?$_Tree_simple_types@U?$pair@$$CBEU_BUFF_TYPE4_INFO@@@std@@@std@@@1@@Z 0058c460 f i MagicProcess.obj
 0002:0002c4c0       ??0?$_Tree_const_iterator@V?$_Tree_val@U?$_Tree_simple_types@U?$pair@$$CBIPAU_MAGIC_TABLE@@@std@@@std@@@std@@@std@@QAE@$$QAV01@@Z 0058c4c0 f i MagicProcess.obj
 0002:0002c520       ??0?$_Tree_const_iterator@V?$_Tree_val@U?$_Tree_simple_types@U?$pair@$$CBIPAU_MAGIC_TABLE@@@std@@@std@@@std@@@std@@QAE@ABV01@@Z 0058c520 f i MagicProcess.obj
 0002:0002c580       ??0?$_Tree_const_iterator@V?$_Tree_val@U?$_Tree_simple_types@U?$pair@$$CBIPAU_MAGIC_TABLE@@@std@@@std@@@std@@@std@@QAE@PAU?$_Tree_node@U?$pair@$$CBIPAU_MAGIC_TABLE@@@std@@PAX@1@PBV?$_Tree_val@U?$_Tree_simple_types@U?$pair@$$CBIPAU_MAGIC_TABLE@@@std@@@std@@@1@@Z 0058c580 f i MagicProcess.obj
 0002:0002c5e0       ??0?$_Tree_const_iterator@V?$_Tree_val@U?$_Tree_simple_types@U?$pair@$$CBIPAU_MAGIC_TYPE4@@@std@@@std@@@std@@@std@@QAE@$$QAV01@@Z 0058c5e0 f i MagicProcess.obj
 0002:0002c640       ??0?$_Tree_const_iterator@V?$_Tree_val@U?$_Tree_simple_types@U?$pair@$$CBIPAU_MAGIC_TYPE4@@@std@@@std@@@std@@@std@@QAE@ABV01@@Z 0058c640 f i MagicProcess.obj
 0002:0002c6a0       ??0?$_Tree_const_iterator@V?$_Tree_val@U?$_Tree_simple_types@U?$pair@$$CBIPAU_MAGIC_TYPE4@@@std@@@std@@@std@@@std@@QAE@PAU?$_Tree_node@U?$pair@$$CBIPAU_MAGIC_TYPE4@@@std@@PAX@1@PBV?$_Tree_val@U?$_Tree_simple_types@U?$pair@$$CBIPAU_MAGIC_TYPE4@@@std@@@std@@@1@@Z 0058c6a0 f i MagicProcess.obj
 0002:0002c700       ??0?$_Tree_iterator@V?$_Tree_val@U?$_Tree_simple_types@U?$pair@$$CBEU_BUFF_TYPE4_INFO@@@std@@@std@@@std@@@std@@QAE@$$QAV01@@Z 0058c700 f i MagicProcess.obj
 0002:0002c760       ??0?$_Tree_iterator@V?$_Tree_val@U?$_Tree_simple_types@U?$pair@$$CBEU_BUFF_TYPE4_INFO@@@std@@@std@@@std@@@std@@QAE@ABV01@@Z 0058c760 f i MagicProcess.obj
 0002:0002c7c0       ??0?$_Tree_iterator@V?$_Tree_val@U?$_Tree_simple_types@U?$pair@$$CBEU_BUFF_TYPE4_INFO@@@std@@@std@@@std@@@std@@QAE@PAU?$_Tree_node@U?$pair@$$CBEU_BUFF_TYPE4_INFO@@@std@@PAX@1@PBV?$_Tree_val@U?$_Tree_simple_types@U?$pair@$$CBEU_BUFF_TYPE4_INFO@@@std@@@std@@@1@@Z 0058c7c0 f i MagicProcess.obj
 0002:0002c820       ??0?$_Tree_iterator@V?$_Tree_val@U?$_Tree_simple_types@U?$pair@$$CBIPAU_MAGIC_TABLE@@@std@@@std@@@std@@@std@@QAE@$$QAV01@@Z 0058c820 f i MagicProcess.obj
 0002:0002c880       ??0?$_Tree_iterator@V?$_Tree_val@U?$_Tree_simple_types@U?$pair@$$CBIPAU_MAGIC_TABLE@@@std@@@std@@@std@@@std@@QAE@ABV01@@Z 0058c880 f i MagicProcess.obj
 0002:0002c8e0       ??0?$_Tree_iterator@V?$_Tree_val@U?$_Tree_simple_types@U?$pair@$$CBIPAU_MAGIC_TABLE@@@std@@@std@@@std@@@std@@QAE@PAU?$_Tree_node@U?$pair@$$CBIPAU_MAGIC_TABLE@@@std@@PAX@1@PBV?$_Tree_val@U?$_Tree_simple_types@U?$pair@$$CBIPAU_MAGIC_TABLE@@@std@@@std@@@1@@Z 0058c8e0 f i MagicProcess.obj
 0002:0002c940       ??0?$_Tree_iterator@V?$_Tree_val@U?$_Tree_simple_types@U?$pair@$$CBIPAU_MAGIC_TYPE4@@@std@@@std@@@std@@@std@@QAE@$$QAV01@@Z 0058c940 f i MagicProcess.obj
 0002:0002c9a0       ??0?$_Tree_iterator@V?$_Tree_val@U?$_Tree_simple_types@U?$pair@$$CBIPAU_MAGIC_TYPE4@@@std@@@std@@@std@@@std@@QAE@ABV01@@Z 0058c9a0 f i MagicProcess.obj
 0002:0002ca00       ??0?$_Tree_iterator@V?$_Tree_val@U?$_Tree_simple_types@U?$pair@$$CBIPAU_MAGIC_TYPE4@@@std@@@std@@@std@@@std@@QAE@PAU?$_Tree_node@U?$pair@$$CBIPAU_MAGIC_TYPE4@@@std@@PAX@1@PBV?$_Tree_val@U?$_Tree_simple_types@U?$pair@$$CBIPAU_MAGIC_TYPE4@@@std@@@std@@@1@@Z 0058ca00 f i MagicProcess.obj
 0002:0002ca60       ??0?$_Tree_unchecked_const_iterator@V?$_Tree_val@U?$_Tree_simple_types@U?$pair@$$CBEU_BUFF_TYPE4_INFO@@@std@@@std@@@std@@U_Iterator_base12@2@@std@@QAE@$$QAV01@@Z 0058ca60 f i MagicProcess.obj
 0002:0002cad0       ??0?$_Tree_unchecked_const_iterator@V?$_Tree_val@U?$_Tree_simple_types@U?$pair@$$CBEU_BUFF_TYPE4_INFO@@@std@@@std@@@std@@U_Iterator_base12@2@@std@@QAE@ABV01@@Z 0058cad0 f i MagicProcess.obj
 0002:0002cb40       ??0?$_Tree_unchecked_const_iterator@V?$_Tree_val@U?$_Tree_simple_types@U?$pair@$$CBEU_BUFF_TYPE4_INFO@@@std@@@std@@@std@@U_Iterator_base12@2@@std@@QAE@PAU?$_Tree_node@U?$pair@$$CBEU_BUFF_TYPE4_INFO@@@std@@PAX@1@PBV?$_Tree_val@U?$_Tree_simple_types@U?$pair@$$CBEU_BUFF_TYPE4_INFO@@@std@@@std@@@1@@Z 0058cb40 f i MagicProcess.obj
 0002:0002cbb0       ??0?$_Tree_unchecked_const_iterator@V?$_Tree_val@U?$_Tree_simple_types@U?$pair@$$CBIPAU_MAGIC_TABLE@@@std@@@std@@@std@@U_Iterator_base12@2@@std@@QAE@$$QAV01@@Z 0058cbb0 f i MagicProcess.obj
 0002:0002cc20       ??0?$_Tree_unchecked_const_iterator@V?$_Tree_val@U?$_Tree_simple_types@U?$pair@$$CBIPAU_MAGIC_TABLE@@@std@@@std@@@std@@U_Iterator_base12@2@@std@@QAE@ABV01@@Z 0058cc20 f i MagicProcess.obj
 0002:0002cc90       ??0?$_Tree_unchecked_const_iterator@V?$_Tree_val@U?$_Tree_simple_types@U?$pair@$$CBIPAU_MAGIC_TABLE@@@std@@@std@@@std@@U_Iterator_base12@2@@std@@QAE@PAU?$_Tree_node@U?$pair@$$CBIPAU_MAGIC_TABLE@@@std@@PAX@1@PBV?$_Tree_val@U?$_Tree_simple_types@U?$pair@$$CBIPAU_MAGIC_TABLE@@@std@@@std@@@1@@Z 0058cc90 f i MagicProcess.obj
 0002:0002cd00       ??0?$_Tree_unchecked_const_iterator@V?$_Tree_val@U?$_Tree_simple_types@U?$pair@$$CBIPAU_MAGIC_TYPE4@@@std@@@std@@@std@@U_Iterator_base12@2@@std@@QAE@$$QAV01@@Z 0058cd00 f i MagicProcess.obj
 0002:0002cd70       ??0?$_Tree_unchecked_const_iterator@V?$_Tree_val@U?$_Tree_simple_types@U?$pair@$$CBIPAU_MAGIC_TYPE4@@@std@@@std@@@std@@U_Iterator_base12@2@@std@@QAE@ABV01@@Z 0058cd70 f i MagicProcess.obj
 0002:0002cde0       ??0?$_Tree_unchecked_const_iterator@V?$_Tree_val@U?$_Tree_simple_types@U?$pair@$$CBIPAU_MAGIC_TYPE4@@@std@@@std@@@std@@U_Iterator_base12@2@@std@@QAE@PAU?$_Tree_node@U?$pair@$$CBIPAU_MAGIC_TYPE4@@@std@@PAX@1@PBV?$_Tree_val@U?$_Tree_simple_types@U?$pair@$$CBIPAU_MAGIC_TYPE4@@@std@@@std@@@1@@Z 0058cde0 f i MagicProcess.obj
 0002:0002ce50       ??0?$_Vector_alloc@U?$_Vec_base_types@EV?$allocator@E@std@@@std@@@std@@QAE@XZ 0058ce50 f i MagicProcess.obj
 0002:0002cf00       ??0?$_Vector_val@U?$_Simple_types@E@std@@@std@@QAE@XZ 0058cf00 f i MagicProcess.obj
 0002:0002cf80       ??0?$allocator@E@std@@QAE@XZ 0058cf80 f i MagicProcess.obj
 0002:0002cfc0       ??0?$vector@EV?$allocator@E@std@@@std@@QAE@XZ 0058cfc0 f i MagicProcess.obj
 0002:0002d050       ??0ByteBuffer@@QAE@XZ      0058d050 f i MagicProcess.obj
 0002:0002d130       ??0Guard@@QAE@AAVrecursive_mutex@std@@@Z 0058d130 f i MagicProcess.obj
 0002:0002d1a0       ??0Packet@@QAE@EE@Z        0058d1a0 f i MagicProcess.obj
 0002:0002d270       ??0_BUFF_TYPE4_INFO@@QAE@XZ 0058d270 f i MagicProcess.obj
 0002:0002d2f0       ??0_Container_base12@std@@QAE@XZ 0058d2f0 f i MagicProcess.obj
 0002:0002d340       ??0_Container_proxy@std@@QAE@XZ 0058d340 f i MagicProcess.obj
 0002:0002d390       ??0_Iterator_base12@std@@QAE@ABU01@@Z 0058d390 f i MagicProcess.obj
 0002:0002d410       ??0_Iterator_base12@std@@QAE@XZ 0058d410 f i MagicProcess.obj
 0002:0002d460       ??1?$_Compressed_pair@V?$allocator@E@std@@V?$_Vector_val@U?$_Simple_types@E@std@@@2@$00@std@@QAE@XZ 0058d460 f i MagicProcess.obj
 0002:0002d4b0       ??1?$_Tree_const_iterator@V?$_Tree_val@U?$_Tree_simple_types@U?$pair@$$CBEU_BUFF_TYPE4_INFO@@@std@@@std@@@std@@@std@@QAE@XZ 0058d4b0 f i MagicProcess.obj
 0002:0002d500       ??1?$_Tree_const_iterator@V?$_Tree_val@U?$_Tree_simple_types@U?$pair@$$CBIPAU_MAGIC_TABLE@@@std@@@std@@@std@@@std@@QAE@XZ 0058d500 f i MagicProcess.obj
 0002:0002d550       ??1?$_Tree_const_iterator@V?$_Tree_val@U?$_Tree_simple_types@U?$pair@$$CBIPAU_MAGIC_TYPE4@@@std@@@std@@@std@@@std@@QAE@XZ 0058d550 f i MagicProcess.obj
 0002:0002d5a0       ??1?$_Tree_iterator@V?$_Tree_val@U?$_Tree_simple_types@U?$pair@$$CBEU_BUFF_TYPE4_INFO@@@std@@@std@@@std@@@std@@QAE@XZ 0058d5a0 f i MagicProcess.obj
 0002:0002d5f0       ??1?$_Tree_iterator@V?$_Tree_val@U?$_Tree_simple_types@U?$pair@$$CBIPAU_MAGIC_TABLE@@@std@@@std@@@std@@@std@@QAE@XZ 0058d5f0 f i MagicProcess.obj
 0002:0002d640       ??1?$_Tree_iterator@V?$_Tree_val@U?$_Tree_simple_types@U?$pair@$$CBIPAU_MAGIC_TYPE4@@@std@@@std@@@std@@@std@@QAE@XZ 0058d640 f i MagicProcess.obj
 0002:0002d690       ??1?$_Tree_unchecked_const_iterator@V?$_Tree_val@U?$_Tree_simple_types@U?$pair@$$CBEU_BUFF_TYPE4_INFO@@@std@@@std@@@std@@U_Iterator_base12@2@@std@@QAE@XZ 0058d690 f i MagicProcess.obj
 0002:0002d6e0       ??1?$_Tree_unchecked_const_iterator@V?$_Tree_val@U?$_Tree_simple_types@U?$pair@$$CBIPAU_MAGIC_TABLE@@@std@@@std@@@std@@U_Iterator_base12@2@@std@@QAE@XZ 0058d6e0 f i MagicProcess.obj
 0002:0002d730       ??1?$_Tree_unchecked_const_iterator@V?$_Tree_val@U?$_Tree_simple_types@U?$pair@$$CBIPAU_MAGIC_TYPE4@@@std@@@std@@@std@@U_Iterator_base12@2@@std@@QAE@XZ 0058d730 f i MagicProcess.obj
 0002:0002d780       ??1?$_Vector_alloc@U?$_Vec_base_types@EV?$allocator@E@std@@@std@@@std@@QAE@XZ 0058d780 f i MagicProcess.obj
 0002:0002d810       ??1?$_Vector_val@U?$_Simple_types@E@std@@@std@@QAE@XZ 0058d810 f i MagicProcess.obj
 0002:0002d860       ??1?$vector@EV?$allocator@E@std@@@std@@QAE@XZ 0058d860 f i MagicProcess.obj
 0002:0002d8f0       ??1ByteBuffer@@UAE@XZ      0058d8f0 f i MagicProcess.obj
 0002:0002d950       ??1Guard@@QAE@XZ           0058d950 f i MagicProcess.obj
 0002:0002d9e0       ??1Packet@@UAE@XZ          0058d9e0 f i MagicProcess.obj
 0002:0002da30       ??1_Container_base12@std@@QAE@XZ 0058da30 f i MagicProcess.obj
 0002:0002da80       ??1_Iterator_base12@std@@QAE@XZ 0058da80 f i MagicProcess.obj
 0002:0002db50       ??2@YAPAXIPAX@Z            0058db50 f i MagicProcess.obj
 0002:0002db90       ??4_Iterator_base12@std@@QAEAAU01@ABU01@@Z 0058db90 f i MagicProcess.obj
 0002:0002dca0       ??5ByteBuffer@@QAEAAV0@AAE@Z 0058dca0 f i MagicProcess.obj
 0002:0002dd00       ??5ByteBuffer@@QAEAAV0@AAG@Z 0058dd00 f i MagicProcess.obj
 0002:0002dd60       ??5ByteBuffer@@QAEAAV0@AAI@Z 0058dd60 f i MagicProcess.obj
 0002:0002ddc0       ??5ByteBuffer@@QAEAAV0@AA_N@Z 0058ddc0 f i MagicProcess.obj
 0002:0002de40       ??6ByteBuffer@@QAEAAV0@E@Z 0058de40 f i MagicProcess.obj
 0002:0002dea0       ??8?$_Tree_const_iterator@V?$_Tree_val@U?$_Tree_simple_types@U?$pair@$$CBEU_BUFF_TYPE4_INFO@@@std@@@std@@@std@@@std@@QBE_NABV01@@Z 0058dea0 f i MagicProcess.obj
 0002:0002df80       ??8?$_Tree_const_iterator@V?$_Tree_val@U?$_Tree_simple_types@U?$pair@$$CBIPAU_MAGIC_TABLE@@@std@@@std@@@std@@@std@@QBE_NABV01@@Z 0058df80 f i MagicProcess.obj
 0002:0002e060       ??8?$_Tree_const_iterator@V?$_Tree_val@U?$_Tree_simple_types@U?$pair@$$CBIPAU_MAGIC_TYPE4@@@std@@@std@@@std@@@std@@QBE_NABV01@@Z 0058e060 f i MagicProcess.obj
 0002:0002e140       ??9?$_Tree_const_iterator@V?$_Tree_val@U?$_Tree_simple_types@U?$pair@$$CBEU_BUFF_TYPE4_INFO@@@std@@@std@@@std@@@std@@QBE_NABV01@@Z 0058e140 f i MagicProcess.obj
 0002:0002e1d0       ??9?$_Tree_const_iterator@V?$_Tree_val@U?$_Tree_simple_types@U?$pair@$$CBIPAU_MAGIC_TABLE@@@std@@@std@@@std@@@std@@QBE_NABV01@@Z 0058e1d0 f i MagicProcess.obj
 0002:0002e260       ??9?$_Tree_const_iterator@V?$_Tree_val@U?$_Tree_simple_types@U?$pair@$$CBIPAU_MAGIC_TYPE4@@@std@@@std@@@std@@@std@@QBE_NABV01@@Z 0058e260 f i MagicProcess.obj
 0002:0002e2f0       ??A?$vector@EV?$allocator@E@std@@@std@@QAEAAEI@Z 0058e2f0 f i MagicProcess.obj
 0002:0002e3a0       ??A?$vector@EV?$allocator@E@std@@@std@@QBEABEI@Z 0058e3a0 f i MagicProcess.obj
 0002:0002e450       ??C?$_Tree_iterator@V?$_Tree_val@U?$_Tree_simple_types@U?$pair@$$CBEU_BUFF_TYPE4_INFO@@@std@@@std@@@std@@@std@@QBEPAU?$pair@$$CBEU_BUFF_TYPE4_INFO@@@1@XZ 0058e450 f i MagicProcess.obj
 0002:0002e4b0       ??C?$_Tree_iterator@V?$_Tree_val@U?$_Tree_simple_types@U?$pair@$$CBIPAU_MAGIC_TABLE@@@std@@@std@@@std@@@std@@QBEPAU?$pair@$$CBIPAU_MAGIC_TABLE@@@1@XZ 0058e4b0 f i MagicProcess.obj
 0002:0002e510       ??C?$_Tree_iterator@V?$_Tree_val@U?$_Tree_simple_types@U?$pair@$$CBIPAU_MAGIC_TYPE4@@@std@@@std@@@std@@@std@@QBEPAU?$pair@$$CBIPAU_MAGIC_TYPE4@@@1@XZ 0058e510 f i MagicProcess.obj
 0002:0002e570       ??D?$_Tree_const_iterator@V?$_Tree_val@U?$_Tree_simple_types@U?$pair@$$CBEU_BUFF_TYPE4_INFO@@@std@@@std@@@std@@@std@@QBEABU?$pair@$$CBEU_BUFF_TYPE4_INFO@@@1@XZ 0058e570 f i MagicProcess.obj
 0002:0002e640       ??D?$_Tree_const_iterator@V?$_Tree_val@U?$_Tree_simple_types@U?$pair@$$CBIPAU_MAGIC_TABLE@@@std@@@std@@@std@@@std@@QBEABU?$pair@$$CBIPAU_MAGIC_TABLE@@@1@XZ 0058e640 f i MagicProcess.obj
 0002:0002e710       ??D?$_Tree_const_iterator@V?$_Tree_val@U?$_Tree_simple_types@U?$pair@$$CBIPAU_MAGIC_TYPE4@@@std@@@std@@@std@@@std@@QBEABU?$pair@$$CBIPAU_MAGIC_TYPE4@@@1@XZ 0058e710 f i MagicProcess.obj
 0002:0002e7e0       ??D?$_Tree_iterator@V?$_Tree_val@U?$_Tree_simple_types@U?$pair@$$CBEU_BUFF_TYPE4_INFO@@@std@@@std@@@std@@@std@@QBEAAU?$pair@$$CBEU_BUFF_TYPE4_INFO@@@1@XZ 0058e7e0 f i MagicProcess.obj
 0002:0002e830       ??D?$_Tree_iterator@V?$_Tree_val@U?$_Tree_simple_types@U?$pair@$$CBIPAU_MAGIC_TABLE@@@std@@@std@@@std@@@std@@QBEAAU?$pair@$$CBIPAU_MAGIC_TABLE@@@1@XZ 0058e830 f i MagicProcess.obj
 0002:0002e880       ??D?$_Tree_iterator@V?$_Tree_val@U?$_Tree_simple_types@U?$pair@$$CBIPAU_MAGIC_TYPE4@@@std@@@std@@@std@@@std@@QBEAAU?$pair@$$CBIPAU_MAGIC_TYPE4@@@1@XZ 0058e880 f i MagicProcess.obj
 0002:0002e8d0       ??E?$_Tree_const_iterator@V?$_Tree_val@U?$_Tree_simple_types@U?$pair@$$CBEU_BUFF_TYPE4_INFO@@@std@@@std@@@std@@@std@@QAEAAV01@XZ 0058e8d0 f i MagicProcess.obj
 0002:0002e990       ??E?$_Tree_unchecked_const_iterator@V?$_Tree_val@U?$_Tree_simple_types@U?$pair@$$CBEU_BUFF_TYPE4_INFO@@@std@@@std@@@std@@U_Iterator_base12@2@@std@@QAEAAV01@XZ 0058e990 f i MagicProcess.obj
 0002:0002ead0       ??R?$less@E@std@@QBE_NABE0@Z 0058ead0 f i MagicProcess.obj
 0002:0002eb40       ??R?$less@I@std@@QBE_NABI0@Z 0058eb40 f i MagicProcess.obj
 0002:0002ebb0       ??_GByteBuffer@@UAEPAXI@Z  0058ebb0 f i MagicProcess.obj
 0002:0002ebb0       ??_EByteBuffer@@UAEPAXI@Z  0058ebb0 f i MagicProcess.obj
 0002:0002ec20       ??_EPacket@@UAEPAXI@Z      0058ec20 f i MagicProcess.obj
 0002:0002ec20       ??_GPacket@@UAEPAXI@Z      0058ec20 f i MagicProcess.obj
 0002:0002ec90       ?GetClanID@CUser@@QAEGXZ   0058ec90 f i MagicProcess.obj
 0002:0002ecd0       ?GetData@?$CSTLMapOnlyLoad@U_MAGIC_TABLE@@@@QAEPAU_MAGIC_TABLE@@I@Z 0058ecd0 f i MagicProcess.obj
 0002:0002ee90       ?GetData@?$CSTLMapOnlyLoad@U_MAGIC_TYPE4@@@@QAEPAU_MAGIC_TYPE4@@I@Z 0058ee90 f i MagicProcess.obj
 0002:0002f050       ?GetMap@Unit@@QAEPAVMAP@@XZ 0058f050 f i MagicProcess.obj
 0002:0002f090       ?GetPartyID@CUser@@QAEGXZ  0058f090 f i MagicProcess.obj
 0002:0002f0e0       ?GetStat@CUser@@QAEEW4StatType@@@Z 0058f0e0 f i MagicProcess.obj
 0002:0002f120       ?GetUnitType@Unit@@QAE?AW4UnitType@@XZ 0058f120 f i MagicProcess.obj
 0002:0002f160       ?GetZoneID@Unit@@QAEEXZ    0058f160 f i MagicProcess.obj
 0002:0002f1a0       ?GrantType4Buff@CMagicProcess@@SA_NPAU_MAGIC_TABLE@@PAU_MAGIC_TYPE4@@PAVUnit@@2_N@Z 0058f1a0 f   MagicProcess.obj
 0002:00030430       ?IsBuff@CMagicProcess@@SA_NPAU_MAGIC_TYPE4@@@Z 00590430 f   MagicProcess.obj
 0002:00030a50       ?MagicPacket@CMagicProcess@@SAXAAVPacket@@PAVUnit@@@Z 00590a50 f   MagicProcess.obj
 0002:00030d20       ?RemoveSavedMagic@CUser@@QAEXI@Z 00590d20 f i MagicProcess.obj
 0002:00030d60       ?RemoveStatBuff@CUser@@QAEXW4StatType@@C@Z 00590d60 f i MagicProcess.obj
 0002:00030da0       ?RemoveType4Buff@CMagicProcess@@SA_NEPAVUnit@@_N1@Z 00590da0 f   MagicProcess.obj
 0002:00031f60       ?Send@CUser@@QAEXPAVPacket@@@Z 00591f60 f i MagicProcess.obj
 0002:00031fa0       ?SendUserStatusUpdate@CUser@@QAEXW4UserStatus@@W4UserStatusBehaviour@@@Z 00591fa0 f i MagicProcess.obj
 0002:00031fe0       ?SetStatBuff@CUser@@QAEXW4StatType@@C@Z 00591fe0 f i MagicProcess.obj
 0002:00032020       ?SetUserAbility@CUser@@QAEX_N@Z 00592020 f i MagicProcess.obj
 0002:00032060       ?UserRegionCheck@CMagicProcess@@SA_NPAVUnit@@0PAU_MAGIC_TABLE@@HFF@Z 00592060 f   MagicProcess.obj
 0002:00032670       ?_Adopt@_Iterator_base12@std@@QAEXPBU_Container_base12@2@@Z 00592670 f i MagicProcess.obj
 0002:000327c0       ?_Alloc_proxy@?$_Vector_alloc@U?$_Vec_base_types@EV?$allocator@E@std@@@std@@@std@@QAEXXZ 005927c0 f i MagicProcess.obj
 0002:000328e0       ?_Allocate@std@@YAPAXII_N@Z 005928e0 f i MagicProcess.obj
 0002:00032af0       ?_Calculate_growth@?$vector@EV?$allocator@E@std@@@std@@ABEII@Z 00592af0 f i MagicProcess.obj
 0002:00032b90       ?_Change_array@?$vector@EV?$allocator@E@std@@@std@@AAEXQAEII@Z 00592b90 f i MagicProcess.obj
 0002:00032c80       ?_Check_C_return@std@@YAHH@Z 00592c80 f i MagicProcess.obj
 0002:00032ce0       ?_Clrcont@_Iterator_base12@std@@QAEXXZ 00592ce0 f i MagicProcess.obj
 0002:00032d20       ?_Compare@?$_Tree@V?$_Tmap_traits@EU_BUFF_TYPE4_INFO@@U?$less@E@std@@V?$allocator@U?$pair@$$CBEU_BUFF_TYPE4_INFO@@@std@@@3@$0A@@std@@@std@@IBE_NABE0@Z 00592d20 f i MagicProcess.obj
 0002:00032da0       ?_Compare@?$_Tree@V?$_Tmap_traits@IPAU_MAGIC_TABLE@@U?$less@I@std@@V?$allocator@U?$pair@$$CBIPAU_MAGIC_TABLE@@@std@@@3@$0A@@std@@@std@@IBE_NABI0@Z 00592da0 f i MagicProcess.obj
 0002:00032e20       ?_Compare@?$_Tree@V?$_Tmap_traits@IPAU_MAGIC_TYPE4@@U?$less@I@std@@V?$allocator@U?$pair@$$CBIPAU_MAGIC_TYPE4@@@std@@@3@$0A@@std@@@std@@IBE_NABI0@Z 00592e20 f i MagicProcess.obj
 0002:00032ea0       ?_Deallocate@std@@YAXPAXII@Z 00592ea0 f i MagicProcess.obj
 0002:00032fd0       ?_Destroy@?$vector@EV?$allocator@E@std@@@std@@AAEXPAE0@Z 00592fd0 f i MagicProcess.obj
 0002:00033040       ?_Free_proxy@?$_Vector_alloc@U?$_Vec_base_types@EV?$allocator@E@std@@@std@@@std@@QAEXXZ 00593040 f i MagicProcess.obj
 0002:00033140       ?_Get_data@?$_Tree_comp_alloc@V?$_Tmap_traits@EU_BUFF_TYPE4_INFO@@U?$less@E@std@@V?$allocator@U?$pair@$$CBEU_BUFF_TYPE4_INFO@@@std@@@3@$0A@@std@@@std@@QAEAAV?$_Tree_val@U?$_Tree_simple_types@U?$pair@$$CBEU_BUFF_TYPE4_INFO@@@std@@@std@@@2@XZ 00593140 f i MagicProcess.obj
 0002:000331a0       ?_Get_data@?$_Tree_comp_alloc@V?$_Tmap_traits@EU_BUFF_TYPE4_INFO@@U?$less@E@std@@V?$allocator@U?$pair@$$CBEU_BUFF_TYPE4_INFO@@@std@@@3@$0A@@std@@@std@@QBEABV?$_Tree_val@U?$_Tree_simple_types@U?$pair@$$CBEU_BUFF_TYPE4_INFO@@@std@@@std@@@2@XZ 005931a0 f i MagicProcess.obj
 0002:00033200       ?_Get_data@?$_Tree_comp_alloc@V?$_Tmap_traits@IPAU_MAGIC_TABLE@@U?$less@I@std@@V?$allocator@U?$pair@$$CBIPAU_MAGIC_TABLE@@@std@@@3@$0A@@std@@@std@@QAEAAV?$_Tree_val@U?$_Tree_simple_types@U?$pair@$$CBIPAU_MAGIC_TABLE@@@std@@@std@@@2@XZ 00593200 f i MagicProcess.obj
 0002:00033260       ?_Get_data@?$_Tree_comp_alloc@V?$_Tmap_traits@IPAU_MAGIC_TABLE@@U?$less@I@std@@V?$allocator@U?$pair@$$CBIPAU_MAGIC_TABLE@@@std@@@3@$0A@@std@@@std@@QBEABV?$_Tree_val@U?$_Tree_simple_types@U?$pair@$$CBIPAU_MAGIC_TABLE@@@std@@@std@@@2@XZ 00593260 f i MagicProcess.obj
 0002:000332c0       ?_Get_data@?$_Tree_comp_alloc@V?$_Tmap_traits@IPAU_MAGIC_TYPE4@@U?$less@I@std@@V?$allocator@U?$pair@$$CBIPAU_MAGIC_TYPE4@@@std@@@3@$0A@@std@@@std@@QAEAAV?$_Tree_val@U?$_Tree_simple_types@U?$pair@$$CBIPAU_MAGIC_TYPE4@@@std@@@std@@@2@XZ 005932c0 f i MagicProcess.obj
 0002:00033320       ?_Get_data@?$_Tree_comp_alloc@V?$_Tmap_traits@IPAU_MAGIC_TYPE4@@U?$less@I@std@@V?$allocator@U?$pair@$$CBIPAU_MAGIC_TYPE4@@@std@@@3@$0A@@std@@@std@@QBEABV?$_Tree_val@U?$_Tree_simple_types@U?$pair@$$CBIPAU_MAGIC_TYPE4@@@std@@@std@@@2@XZ 00593320 f i MagicProcess.obj
 0002:00033380       ?_Get_data@?$_Vector_alloc@U?$_Vec_base_types@EV?$allocator@E@std@@@std@@@std@@QAEAAV?$_Vector_val@U?$_Simple_types@E@std@@@2@XZ 00593380 f i MagicProcess.obj
 0002:000333d0       ?_Get_data@?$_Vector_alloc@U?$_Vec_base_types@EV?$allocator@E@std@@@std@@@std@@QBEABV?$_Vector_val@U?$_Simple_types@E@std@@@2@XZ 005933d0 f i MagicProcess.obj
 0002:00033420       ?_Get_first@?$_Compressed_pair@U?$less@E@std@@V?$_Compressed_pair@V?$allocator@U?$_Tree_node@U?$pair@$$CBEU_BUFF_TYPE4_INFO@@@std@@PAX@std@@@std@@V?$_Tree_val@U?$_Tree_simple_types@U?$pair@$$CBEU_BUFF_TYPE4_INFO@@@std@@@std@@@2@$00@2@$00@std@@QAEAAU?$less@E@2@XZ 00593420 f i MagicProcess.obj
 0002:00033460       ?_Get_first@?$_Compressed_pair@U?$less@E@std@@V?$_Compressed_pair@V?$allocator@U?$_Tree_node@U?$pair@$$CBEU_BUFF_TYPE4_INFO@@@std@@PAX@std@@@std@@V?$_Tree_val@U?$_Tree_simple_types@U?$pair@$$CBEU_BUFF_TYPE4_INFO@@@std@@@std@@@2@$00@2@$00@std@@QBEABU?$less@E@2@XZ 00593460 f i MagicProcess.obj
 0002:000334a0       ?_Get_first@?$_Compressed_pair@U?$less@I@std@@V?$_Compressed_pair@V?$allocator@U?$_Tree_node@U?$pair@$$CBIPAU_MAGIC_TABLE@@@std@@PAX@std@@@std@@V?$_Tree_val@U?$_Tree_simple_types@U?$pair@$$CBIPAU_MAGIC_TABLE@@@std@@@std@@@2@$00@2@$00@std@@QAEAAU?$less@I@2@XZ 005934a0 f i MagicProcess.obj
 0002:000334e0       ?_Get_first@?$_Compressed_pair@U?$less@I@std@@V?$_Compressed_pair@V?$allocator@U?$_Tree_node@U?$pair@$$CBIPAU_MAGIC_TABLE@@@std@@PAX@std@@@std@@V?$_Tree_val@U?$_Tree_simple_types@U?$pair@$$CBIPAU_MAGIC_TABLE@@@std@@@std@@@2@$00@2@$00@std@@QBEABU?$less@I@2@XZ 005934e0 f i MagicProcess.obj
 0002:00033520       ?_Get_first@?$_Compressed_pair@U?$less@I@std@@V?$_Compressed_pair@V?$allocator@U?$_Tree_node@U?$pair@$$CBIPAU_MAGIC_TYPE4@@@std@@PAX@std@@@std@@V?$_Tree_val@U?$_Tree_simple_types@U?$pair@$$CBIPAU_MAGIC_TYPE4@@@std@@@std@@@2@$00@2@$00@std@@QAEAAU?$less@I@2@XZ 00593520 f i MagicProcess.obj
 0002:00033560       ?_Get_first@?$_Compressed_pair@U?$less@I@std@@V?$_Compressed_pair@V?$allocator@U?$_Tree_node@U?$pair@$$CBIPAU_MAGIC_TYPE4@@@std@@PAX@std@@@std@@V?$_Tree_val@U?$_Tree_simple_types@U?$pair@$$CBIPAU_MAGIC_TYPE4@@@std@@@std@@@2@$00@2@$00@std@@QBEABU?$less@I@2@XZ 00593560 f i MagicProcess.obj
 0002:000335a0       ?_Get_first@?$_Compressed_pair@V?$allocator@E@std@@V?$_Vector_val@U?$_Simple_types@E@std@@@2@$00@std@@QAEAAV?$allocator@E@2@XZ 005935a0 f i MagicProcess.obj
 0002:000335e0       ?_Get_first@?$_Compressed_pair@V?$allocator@E@std@@V?$_Vector_val@U?$_Simple_types@E@std@@@2@$00@std@@QBEABV?$allocator@E@2@XZ 005935e0 f i MagicProcess.obj
 0002:00033620       ?_Get_first@?$_Compressed_pair@V?$allocator@U?$_Tree_node@U?$pair@$$CBEU_BUFF_TYPE4_INFO@@@std@@PAX@std@@@std@@V?$_Tree_val@U?$_Tree_simple_types@U?$pair@$$CBEU_BUFF_TYPE4_INFO@@@std@@@std@@@2@$00@std@@QAEAAV?$allocator@U?$_Tree_node@U?$pair@$$CBEU_BUFF_TYPE4_INFO@@@std@@PAX@std@@@2@XZ 00593620 f i MagicProcess.obj
 0002:00033660       ?_Get_second@?$_Compressed_pair@U?$less@E@std@@V?$_Compressed_pair@V?$allocator@U?$_Tree_node@U?$pair@$$CBEU_BUFF_TYPE4_INFO@@@std@@PAX@std@@@std@@V?$_Tree_val@U?$_Tree_simple_types@U?$pair@$$CBEU_BUFF_TYPE4_INFO@@@std@@@std@@@2@$00@2@$00@std@@QAEAAV?$_Compressed_pair@V?$allocator@U?$_Tree_node@U?$pair@$$CBEU_BUFF_TYPE4_INFO@@@std@@PAX@std@@@std@@V?$_Tree_val@U?$_Tree_simple_types@U?$pair@$$CBEU_BUFF_TYPE4_INFO@@@std@@@std@@@2@$00@2@XZ 00593660 f i MagicProcess.obj
 0002:000336a0       ?_Get_second@?$_Compressed_pair@U?$less@E@std@@V?$_Compressed_pair@V?$allocator@U?$_Tree_node@U?$pair@$$CBEU_BUFF_TYPE4_INFO@@@std@@PAX@std@@@std@@V?$_Tree_val@U?$_Tree_simple_types@U?$pair@$$CBEU_BUFF_TYPE4_INFO@@@std@@@std@@@2@$00@2@$00@std@@QBEABV?$_Compressed_pair@V?$allocator@U?$_Tree_node@U?$pair@$$CBEU_BUFF_TYPE4_INFO@@@std@@PAX@std@@@std@@V?$_Tree_val@U?$_Tree_simple_types@U?$pair@$$CBEU_BUFF_TYPE4_INFO@@@std@@@std@@@2@$00@2@XZ 005936a0 f i MagicProcess.obj
 0002:000336e0       ?_Get_second@?$_Compressed_pair@U?$less@I@std@@V?$_Compressed_pair@V?$allocator@U?$_Tree_node@U?$pair@$$CBIPAU_MAGIC_TABLE@@@std@@PAX@std@@@std@@V?$_Tree_val@U?$_Tree_simple_types@U?$pair@$$CBIPAU_MAGIC_TABLE@@@std@@@std@@@2@$00@2@$00@std@@QAEAAV?$_Compressed_pair@V?$allocator@U?$_Tree_node@U?$pair@$$CBIPAU_MAGIC_TABLE@@@std@@PAX@std@@@std@@V?$_Tree_val@U?$_Tree_simple_types@U?$pair@$$CBIPAU_MAGIC_TABLE@@@std@@@std@@@2@$00@2@XZ 005936e0 f i MagicProcess.obj
 0002:00033720       ?_Get_second@?$_Compressed_pair@U?$less@I@std@@V?$_Compressed_pair@V?$allocator@U?$_Tree_node@U?$pair@$$CBIPAU_MAGIC_TABLE@@@std@@PAX@std@@@std@@V?$_Tree_val@U?$_Tree_simple_types@U?$pair@$$CBIPAU_MAGIC_TABLE@@@std@@@std@@@2@$00@2@$00@std@@QBEABV?$_Compressed_pair@V?$allocator@U?$_Tree_node@U?$pair@$$CBIPAU_MAGIC_TABLE@@@std@@PAX@std@@@std@@V?$_Tree_val@U?$_Tree_simple_types@U?$pair@$$CBIPAU_MAGIC_TABLE@@@std@@@std@@@2@$00@2@XZ 00593720 f i MagicProcess.obj
 0002:00033760       ?_Get_second@?$_Compressed_pair@U?$less@I@std@@V?$_Compressed_pair@V?$allocator@U?$_Tree_node@U?$pair@$$CBIPAU_MAGIC_TYPE4@@@std@@PAX@std@@@std@@V?$_Tree_val@U?$_Tree_simple_types@U?$pair@$$CBIPAU_MAGIC_TYPE4@@@std@@@std@@@2@$00@2@$00@std@@QAEAAV?$_Compressed_pair@V?$allocator@U?$_Tree_node@U?$pair@$$CBIPAU_MAGIC_TYPE4@@@std@@PAX@std@@@std@@V?$_Tree_val@U?$_Tree_simple_types@U?$pair@$$CBIPAU_MAGIC_TYPE4@@@std@@@std@@@2@$00@2@XZ 00593760 f i MagicProcess.obj
 0002:000337a0       ?_Get_second@?$_Compressed_pair@U?$less@I@std@@V?$_Compressed_pair@V?$allocator@U?$_Tree_node@U?$pair@$$CBIPAU_MAGIC_TYPE4@@@std@@PAX@std@@@std@@V?$_Tree_val@U?$_Tree_simple_types@U?$pair@$$CBIPAU_MAGIC_TYPE4@@@std@@@std@@@2@$00@2@$00@std@@QBEABV?$_Compressed_pair@V?$allocator@U?$_Tree_node@U?$pair@$$CBIPAU_MAGIC_TYPE4@@@std@@PAX@std@@@std@@V?$_Tree_val@U?$_Tree_simple_types@U?$pair@$$CBIPAU_MAGIC_TYPE4@@@std@@@std@@@2@$00@2@XZ 005937a0 f i MagicProcess.obj
 0002:000337e0       ?_Get_second@?$_Compressed_pair@V?$allocator@E@std@@V?$_Vector_val@U?$_Simple_types@E@std@@@2@$00@std@@QAEAAV?$_Vector_val@U?$_Simple_types@E@std@@@2@XZ 005937e0 f i MagicProcess.obj
 0002:00033820       ?_Get_second@?$_Compressed_pair@V?$allocator@E@std@@V?$_Vector_val@U?$_Simple_types@E@std@@@2@$00@std@@QBEABV?$_Vector_val@U?$_Simple_types@E@std@@@2@XZ 00593820 f i MagicProcess.obj
 0002:00033860       ?_Get_second@?$_Compressed_pair@V?$allocator@U?$_Tree_node@U?$pair@$$CBEU_BUFF_TYPE4_INFO@@@std@@PAX@std@@@std@@V?$_Tree_val@U?$_Tree_simple_types@U?$pair@$$CBEU_BUFF_TYPE4_INFO@@@std@@@std@@@2@$00@std@@QAEAAV?$_Tree_val@U?$_Tree_simple_types@U?$pair@$$CBEU_BUFF_TYPE4_INFO@@@std@@@std@@@2@XZ 00593860 f i MagicProcess.obj
 0002:000338a0       ?_Get_second@?$_Compressed_pair@V?$allocator@U?$_Tree_node@U?$pair@$$CBEU_BUFF_TYPE4_INFO@@@std@@PAX@std@@@std@@V?$_Tree_val@U?$_Tree_simple_types@U?$pair@$$CBEU_BUFF_TYPE4_INFO@@@std@@@std@@@2@$00@std@@QBEABV?$_Tree_val@U?$_Tree_simple_types@U?$pair@$$CBEU_BUFF_TYPE4_INFO@@@std@@@std@@@2@XZ 005938a0 f i MagicProcess.obj
 0002:000338e0       ?_Get_second@?$_Compressed_pair@V?$allocator@U?$_Tree_node@U?$pair@$$CBIPAU_MAGIC_TABLE@@@std@@PAX@std@@@std@@V?$_Tree_val@U?$_Tree_simple_types@U?$pair@$$CBIPAU_MAGIC_TABLE@@@std@@@std@@@2@$00@std@@QAEAAV?$_Tree_val@U?$_Tree_simple_types@U?$pair@$$CBIPAU_MAGIC_TABLE@@@std@@@std@@@2@XZ 005938e0 f i MagicProcess.obj
 0002:00033920       ?_Get_second@?$_Compressed_pair@V?$allocator@U?$_Tree_node@U?$pair@$$CBIPAU_MAGIC_TABLE@@@std@@PAX@std@@@std@@V?$_Tree_val@U?$_Tree_simple_types@U?$pair@$$CBIPAU_MAGIC_TABLE@@@std@@@std@@@2@$00@std@@QBEABV?$_Tree_val@U?$_Tree_simple_types@U?$pair@$$CBIPAU_MAGIC_TABLE@@@std@@@std@@@2@XZ 00593920 f i MagicProcess.obj
 0002:00033960       ?_Get_second@?$_Compressed_pair@V?$allocator@U?$_Tree_node@U?$pair@$$CBIPAU_MAGIC_TYPE4@@@std@@PAX@std@@@std@@V?$_Tree_val@U?$_Tree_simple_types@U?$pair@$$CBIPAU_MAGIC_TYPE4@@@std@@@std@@@2@$00@std@@QAEAAV?$_Tree_val@U?$_Tree_simple_types@U?$pair@$$CBIPAU_MAGIC_TYPE4@@@std@@@std@@@2@XZ 00593960 f i MagicProcess.obj
 0002:000339a0       ?_Get_second@?$_Compressed_pair@V?$allocator@U?$_Tree_node@U?$pair@$$CBIPAU_MAGIC_TYPE4@@@std@@PAX@std@@@std@@V?$_Tree_val@U?$_Tree_simple_types@U?$pair@$$CBIPAU_MAGIC_TYPE4@@@std@@@std@@@2@$00@std@@QBEABV?$_Tree_val@U?$_Tree_simple_types@U?$pair@$$CBIPAU_MAGIC_TYPE4@@@std@@@std@@@2@XZ 005939a0 f i MagicProcess.obj
 0002:000339e0       ?_Getal@?$_Tree_comp_alloc@V?$_Tmap_traits@EU_BUFF_TYPE4_INFO@@U?$less@E@std@@V?$allocator@U?$pair@$$CBEU_BUFF_TYPE4_INFO@@@std@@@3@$0A@@std@@@std@@QAEAAV?$allocator@U?$_Tree_node@U?$pair@$$CBEU_BUFF_TYPE4_INFO@@@std@@PAX@std@@@2@XZ 005939e0 f i MagicProcess.obj
 0002:00033a40       ?_Getal@?$_Vector_alloc@U?$_Vec_base_types@EV?$allocator@E@std@@@std@@@std@@QAEAAV?$allocator@E@2@XZ 00593a40 f i MagicProcess.obj
 0002:00033a90       ?_Getal@?$_Vector_alloc@U?$_Vec_base_types@EV?$allocator@E@std@@@std@@@std@@QBEABV?$allocator@E@2@XZ 00593a90 f i MagicProcess.obj
 0002:00033ae0       ?_Getcomp@?$_Tree_comp_alloc@V?$_Tmap_traits@EU_BUFF_TYPE4_INFO@@U?$less@E@std@@V?$allocator@U?$pair@$$CBEU_BUFF_TYPE4_INFO@@@std@@@3@$0A@@std@@@std@@QAEAAU?$less@E@2@XZ 00593ae0 f i MagicProcess.obj
 0002:00033b30       ?_Getcomp@?$_Tree_comp_alloc@V?$_Tmap_traits@EU_BUFF_TYPE4_INFO@@U?$less@E@std@@V?$allocator@U?$pair@$$CBEU_BUFF_TYPE4_INFO@@@std@@@3@$0A@@std@@@std@@QBEABU?$less@E@2@XZ 00593b30 f i MagicProcess.obj
 0002:00033b80       ?_Getcomp@?$_Tree_comp_alloc@V?$_Tmap_traits@IPAU_MAGIC_TABLE@@U?$less@I@std@@V?$allocator@U?$pair@$$CBIPAU_MAGIC_TABLE@@@std@@@3@$0A@@std@@@std@@QAEAAU?$less@I@2@XZ 00593b80 f i MagicProcess.obj
 0002:00033bd0       ?_Getcomp@?$_Tree_comp_alloc@V?$_Tmap_traits@IPAU_MAGIC_TABLE@@U?$less@I@std@@V?$allocator@U?$pair@$$CBIPAU_MAGIC_TABLE@@@std@@@3@$0A@@std@@@std@@QBEABU?$less@I@2@XZ 00593bd0 f i MagicProcess.obj
 0002:00033c20       ?_Getcomp@?$_Tree_comp_alloc@V?$_Tmap_traits@IPAU_MAGIC_TYPE4@@U?$less@I@std@@V?$allocator@U?$pair@$$CBIPAU_MAGIC_TYPE4@@@std@@@3@$0A@@std@@@std@@QAEAAU?$less@I@2@XZ 00593c20 f i MagicProcess.obj
 0002:00033c70       ?_Getcomp@?$_Tree_comp_alloc@V?$_Tmap_traits@IPAU_MAGIC_TYPE4@@U?$less@I@std@@V?$allocator@U?$pair@$$CBIPAU_MAGIC_TYPE4@@@std@@@3@$0A@@std@@@std@@QBEABU?$less@I@2@XZ 00593c70 f i MagicProcess.obj
 0002:00033cc0       ?_Getcont@_Iterator_base12@std@@QBEPBU_Container_base12@2@XZ 00593cc0 f i MagicProcess.obj
 0002:00033d30       ?_Getpfirst@?$_Tree_comp_alloc@V?$_Tmap_traits@EU_BUFF_TYPE4_INFO@@U?$less@E@std@@V?$allocator@U?$pair@$$CBEU_BUFF_TYPE4_INFO@@@std@@@3@$0A@@std@@@std@@QBEPAPAU_Iterator_base12@2@XZ 00593d30 f i MagicProcess.obj
 0002:00033d90       ?_Getpfirst@?$_Vector_alloc@U?$_Vec_base_types@EV?$allocator@E@std@@@std@@@std@@QBEPAPAU_Iterator_base12@2@XZ 00593d90 f i MagicProcess.obj
 0002:00033df0       ?_Getpfirst@_Container_base12@std@@QBEPAPAU_Iterator_base12@2@XZ 00593df0 f i MagicProcess.obj
 0002:00033e60       ?_Getpnext@_Iterator_base12@std@@QAEPAPAU12@XZ 00593e60 f i MagicProcess.obj
 0002:00033ea0       ?_Key@?$_Tree@V?$_Tmap_traits@EU_BUFF_TYPE4_INFO@@U?$less@E@std@@V?$allocator@U?$pair@$$CBEU_BUFF_TYPE4_INFO@@@std@@@3@$0A@@std@@@std@@IBEABEPAU?$_Tree_node@U?$pair@$$CBEU_BUFF_TYPE4_INFO@@@std@@PAX@2@@Z 00593ea0 f i MagicProcess.obj
 0002:00033f00       ?_Key@?$_Tree@V?$_Tmap_traits@IPAU_MAGIC_TABLE@@U?$less@I@std@@V?$allocator@U?$pair@$$CBIPAU_MAGIC_TABLE@@@std@@@3@$0A@@std@@@std@@IBEABIPAU?$_Tree_node@U?$pair@$$CBIPAU_MAGIC_TABLE@@@std@@PAX@2@@Z 00593f00 f i MagicProcess.obj
 0002:00033f60       ?_Key@?$_Tree@V?$_Tmap_traits@IPAU_MAGIC_TYPE4@@U?$less@I@std@@V?$allocator@U?$pair@$$CBIPAU_MAGIC_TYPE4@@@std@@@3@$0A@@std@@@std@@IBEABIPAU?$_Tree_node@U?$pair@$$CBIPAU_MAGIC_TYPE4@@@std@@PAX@2@@Z 00593f60 f i MagicProcess.obj
 0002:00033fc0       ?_Kfn@?$_Tree@V?$_Tmap_traits@EU_BUFF_TYPE4_INFO@@U?$less@E@std@@V?$allocator@U?$pair@$$CBEU_BUFF_TYPE4_INFO@@@std@@@3@$0A@@std@@@std@@IBEABEABU?$pair@$$CBEU_BUFF_TYPE4_INFO@@@2@@Z 00593fc0 f i MagicProcess.obj
 0002:00034020       ?_Kfn@?$_Tree@V?$_Tmap_traits@IPAU_MAGIC_TABLE@@U?$less@I@std@@V?$allocator@U?$pair@$$CBIPAU_MAGIC_TABLE@@@std@@@3@$0A@@std@@@std@@IBEABIABU?$pair@$$CBIPAU_MAGIC_TABLE@@@2@@Z 00594020 f i MagicProcess.obj
 0002:00034080       ?_Kfn@?$_Tree@V?$_Tmap_traits@IPAU_MAGIC_TYPE4@@U?$less@I@std@@V?$allocator@U?$pair@$$CBIPAU_MAGIC_TYPE4@@@std@@@3@$0A@@std@@@std@@IBEABIABU?$pair@$$CBIPAU_MAGIC_TYPE4@@@2@@Z 00594080 f i MagicProcess.obj
 0002:000340e0       ?_Lmost@?$_Tree@V?$_Tmap_traits@EU_BUFF_TYPE4_INFO@@U?$less@E@std@@V?$allocator@U?$pair@$$CBEU_BUFF_TYPE4_INFO@@@std@@@3@$0A@@std@@@std@@IBEAAPAU?$_Tree_node@U?$pair@$$CBEU_BUFF_TYPE4_INFO@@@std@@PAX@2@XZ 005940e0 f i MagicProcess.obj
 0002:00034140       ?_Lrotate@?$_Tree@V?$_Tmap_traits@EU_BUFF_TYPE4_INFO@@U?$less@E@std@@V?$allocator@U?$pair@$$CBEU_BUFF_TYPE4_INFO@@@std@@@3@$0A@@std@@@std@@IAEXPAU?$_Tree_node@U?$pair@$$CBEU_BUFF_TYPE4_INFO@@@std@@PAX@2@@Z 00594140 f i MagicProcess.obj
 0002:00034240       ?_Max@?$_Tree_comp_alloc@V?$_Tmap_traits@EU_BUFF_TYPE4_INFO@@U?$less@E@std@@V?$allocator@U?$pair@$$CBEU_BUFF_TYPE4_INFO@@@std@@@3@$0A@@std@@@std@@SAPAU?$_Tree_node@U?$pair@$$CBEU_BUFF_TYPE4_INFO@@@std@@PAX@2@PAU32@@Z 00594240 f i MagicProcess.obj
 0002:00034290       ?_Max@?$_Tree_val@U?$_Tree_simple_types@U?$pair@$$CBEU_BUFF_TYPE4_INFO@@@std@@@std@@@std@@SAPAU?$_Tree_node@U?$pair@$$CBEU_BUFF_TYPE4_INFO@@@std@@PAX@2@PAU32@@Z 00594290 f i MagicProcess.obj
 0002:000342f0       ?_Min@?$_Tree_comp_alloc@V?$_Tmap_traits@EU_BUFF_TYPE4_INFO@@U?$less@E@std@@V?$allocator@U?$pair@$$CBEU_BUFF_TYPE4_INFO@@@std@@@3@$0A@@std@@@std@@SAPAU?$_Tree_node@U?$pair@$$CBEU_BUFF_TYPE4_INFO@@@std@@PAX@2@PAU32@@Z 005942f0 f i MagicProcess.obj
 0002:00034340       ?_Min@?$_Tree_val@U?$_Tree_simple_types@U?$pair@$$CBEU_BUFF_TYPE4_INFO@@@std@@@std@@@std@@SAPAU?$_Tree_node@U?$pair@$$CBEU_BUFF_TYPE4_INFO@@@std@@PAX@2@PAU32@@Z 00594340 f i MagicProcess.obj
 0002:00034390       ?_Mtx_lockX@std@@YAHPAU_Mtx_internal_imp_t@@@Z 00594390 f i MagicProcess.obj
 0002:000343f0       ?_Mtx_unlockX@std@@YAHPAU_Mtx_internal_imp_t@@@Z 005943f0 f i MagicProcess.obj
 0002:00034450       ?_Myend@?$_Vector_alloc@U?$_Vec_base_types@EV?$allocator@E@std@@@std@@@std@@QAEAAPAEXZ 00594450 f i MagicProcess.obj
 0002:000344b0       ?_Myend@?$_Vector_alloc@U?$_Vec_base_types@EV?$allocator@E@std@@@std@@@std@@QBEABQAEXZ 005944b0 f i MagicProcess.obj
 0002:00034510       ?_Myfirst@?$_Vector_alloc@U?$_Vec_base_types@EV?$allocator@E@std@@@std@@@std@@QAEAAPAEXZ 00594510 f i MagicProcess.obj
 0002:00034570       ?_Myfirst@?$_Vector_alloc@U?$_Vec_base_types@EV?$allocator@E@std@@@std@@@std@@QBEABQAEXZ 00594570 f i MagicProcess.obj
 0002:000345d0       ?_Myhead@?$_Tree_comp_alloc@V?$_Tmap_traits@EU_BUFF_TYPE4_INFO@@U?$less@E@std@@V?$allocator@U?$pair@$$CBEU_BUFF_TYPE4_INFO@@@std@@@3@$0A@@std@@@std@@QAEAAPAU?$_Tree_node@U?$pair@$$CBEU_BUFF_TYPE4_INFO@@@std@@PAX@2@XZ 005945d0 f i MagicProcess.obj
 0002:00034630       ?_Myhead@?$_Tree_comp_alloc@V?$_Tmap_traits@EU_BUFF_TYPE4_INFO@@U?$less@E@std@@V?$allocator@U?$pair@$$CBEU_BUFF_TYPE4_INFO@@@std@@@3@$0A@@std@@@std@@QBEABQAU?$_Tree_node@U?$pair@$$CBEU_BUFF_TYPE4_INFO@@@std@@PAX@2@XZ 00594630 f i MagicProcess.obj
 0002:00034690       ?_Myhead@?$_Tree_comp_alloc@V?$_Tmap_traits@IPAU_MAGIC_TABLE@@U?$less@I@std@@V?$allocator@U?$pair@$$CBIPAU_MAGIC_TABLE@@@std@@@3@$0A@@std@@@std@@QAEAAPAU?$_Tree_node@U?$pair@$$CBIPAU_MAGIC_TABLE@@@std@@PAX@2@XZ 00594690 f i MagicProcess.obj
 0002:000346f0       ?_Myhead@?$_Tree_comp_alloc@V?$_Tmap_traits@IPAU_MAGIC_TABLE@@U?$less@I@std@@V?$allocator@U?$pair@$$CBIPAU_MAGIC_TABLE@@@std@@@3@$0A@@std@@@std@@QBEABQAU?$_Tree_node@U?$pair@$$CBIPAU_MAGIC_TABLE@@@std@@PAX@2@XZ 005946f0 f i MagicProcess.obj
 0002:00034750       ?_Myhead@?$_Tree_comp_alloc@V?$_Tmap_traits@IPAU_MAGIC_TYPE4@@U?$less@I@std@@V?$allocator@U?$pair@$$CBIPAU_MAGIC_TYPE4@@@std@@@3@$0A@@std@@@std@@QAEAAPAU?$_Tree_node@U?$pair@$$CBIPAU_MAGIC_TYPE4@@@std@@PAX@2@XZ 00594750 f i MagicProcess.obj
 0002:000347b0       ?_Myhead@?$_Tree_comp_alloc@V?$_Tmap_traits@IPAU_MAGIC_TYPE4@@U?$less@I@std@@V?$allocator@U?$pair@$$CBIPAU_MAGIC_TYPE4@@@std@@@3@$0A@@std@@@std@@QBEABQAU?$_Tree_node@U?$pair@$$CBIPAU_MAGIC_TYPE4@@@std@@PAX@2@XZ 005947b0 f i MagicProcess.obj
 0002:00034810       ?_Mylast@?$_Vector_alloc@U?$_Vec_base_types@EV?$allocator@E@std@@@std@@@std@@QAEAAPAEXZ 00594810 f i MagicProcess.obj
 0002:00034870       ?_Mylast@?$_Vector_alloc@U?$_Vec_base_types@EV?$allocator@E@std@@@std@@@std@@QBEABQAEXZ 00594870 f i MagicProcess.obj
 0002:000348d0       ?_Mymtx@_Mutex_base@std@@AAEPAU_Mtx_internal_imp_t@@XZ 005948d0 f i MagicProcess.obj
 0002:00034910       ?_Mynode@?$_Tree_unchecked_const_iterator@V?$_Tree_val@U?$_Tree_simple_types@U?$pair@$$CBEU_BUFF_TYPE4_INFO@@@std@@@std@@@std@@U_Iterator_base12@2@@std@@QBEPAU?$_Tree_node@U?$pair@$$CBEU_BUFF_TYPE4_INFO@@@std@@PAX@2@XZ 00594910 f i MagicProcess.obj
 0002:00034950       ?_Mynode@?$_Tree_unchecked_const_iterator@V?$_Tree_val@U?$_Tree_simple_types@U?$pair@$$CBIPAU_MAGIC_TABLE@@@std@@@std@@@std@@U_Iterator_base12@2@@std@@QBEPAU?$_Tree_node@U?$pair@$$CBIPAU_MAGIC_TABLE@@@std@@PAX@2@XZ 00594950 f i MagicProcess.obj
 0002:00034990       ?_Mynode@?$_Tree_unchecked_const_iterator@V?$_Tree_val@U?$_Tree_simple_types@U?$pair@$$CBIPAU_MAGIC_TYPE4@@@std@@@std@@@std@@U_Iterator_base12@2@@std@@QBEPAU?$_Tree_node@U?$pair@$$CBIPAU_MAGIC_TYPE4@@@std@@PAX@2@XZ 00594990 f i MagicProcess.obj
 0002:000349d0       ?_Myproxy@?$_Vector_alloc@U?$_Vec_base_types@EV?$allocator@E@std@@@std@@@std@@QAEAAPAU_Container_proxy@2@XZ 005949d0 f i MagicProcess.obj
 0002:00034a20       ?_Mysize@?$_Tree_comp_alloc@V?$_Tmap_traits@EU_BUFF_TYPE4_INFO@@U?$less@E@std@@V?$allocator@U?$pair@$$CBEU_BUFF_TYPE4_INFO@@@std@@@3@$0A@@std@@@std@@QAEAAIXZ 00594a20 f i MagicProcess.obj
 0002:00034a80       ?_Orphan_all@?$_Vector_alloc@U?$_Vec_base_types@EV?$allocator@E@std@@@std@@@std@@QAEXXZ 00594a80 f i MagicProcess.obj
 0002:00034ae0       ?_Orphan_all@_Container_base12@std@@QAEXXZ 00594ae0 f i MagicProcess.obj
 0002:00034c00       ?_Orphan_me@_Iterator_base12@std@@QAEXXZ 00594c00 f i MagicProcess.obj
 0002:00034d20       ?_Orphan_ptr@?$_Tree@V?$_Tmap_traits@EU_BUFF_TYPE4_INFO@@U?$less@E@std@@V?$allocator@U?$pair@$$CBEU_BUFF_TYPE4_INFO@@@std@@@3@$0A@@std@@@std@@IAEXPAU?$_Tree_node@U?$pair@$$CBEU_BUFF_TYPE4_INFO@@@std@@PAX@2@@Z 00594d20 f i MagicProcess.obj
 0002:00034e80       ?_Orphan_range@?$vector@EV?$allocator@E@std@@@std@@ABEXPAE0@Z 00594e80 f i MagicProcess.obj
 0002:00034fe0       ?_Reallocate_exactly@?$vector@EV?$allocator@E@std@@@std@@AAEXI@Z 00594fe0 f i MagicProcess.obj
 0002:00035120       ?_Rmost@?$_Tree@V?$_Tmap_traits@EU_BUFF_TYPE4_INFO@@U?$less@E@std@@V?$allocator@U?$pair@$$CBEU_BUFF_TYPE4_INFO@@@std@@@3@$0A@@std@@@std@@IBEAAPAU?$_Tree_node@U?$pair@$$CBEU_BUFF_TYPE4_INFO@@@std@@PAX@2@XZ 00595120 f i MagicProcess.obj
 0002:00035180       ?_Root@?$_Tree@V?$_Tmap_traits@EU_BUFF_TYPE4_INFO@@U?$less@E@std@@V?$allocator@U?$pair@$$CBEU_BUFF_TYPE4_INFO@@@std@@@3@$0A@@std@@@std@@IBEAAPAU?$_Tree_node@U?$pair@$$CBEU_BUFF_TYPE4_INFO@@@std@@PAX@2@XZ 00595180 f i MagicProcess.obj
 0002:000351e0       ?_Root@?$_Tree@V?$_Tmap_traits@IPAU_MAGIC_TABLE@@U?$less@I@std@@V?$allocator@U?$pair@$$CBIPAU_MAGIC_TABLE@@@std@@@3@$0A@@std@@@std@@IBEAAPAU?$_Tree_node@U?$pair@$$CBIPAU_MAGIC_TABLE@@@std@@PAX@2@XZ 005951e0 f i MagicProcess.obj
 0002:00035240       ?_Root@?$_Tree@V?$_Tmap_traits@IPAU_MAGIC_TYPE4@@U?$less@I@std@@V?$allocator@U?$pair@$$CBIPAU_MAGIC_TYPE4@@@std@@@3@$0A@@std@@@std@@IBEAAPAU?$_Tree_node@U?$pair@$$CBIPAU_MAGIC_TYPE4@@@std@@PAX@2@XZ 00595240 f i MagicProcess.obj
 0002:000352a0       ?_Rrotate@?$_Tree@V?$_Tmap_traits@EU_BUFF_TYPE4_INFO@@U?$less@E@std@@V?$allocator@U?$pair@$$CBEU_BUFF_TYPE4_INFO@@@std@@@3@$0A@@std@@@std@@IAEXPAU?$_Tree_node@U?$pair@$$CBEU_BUFF_TYPE4_INFO@@@std@@PAX@2@@Z 005952a0 f i MagicProcess.obj
 0002:000353a0       ?_Tidy@?$vector@EV?$allocator@E@std@@@std@@AAEXXZ 005953a0 f i MagicProcess.obj
 0002:00035490       ?_Udefault@?$vector@EV?$allocator@E@std@@@std@@AAEPAEPAEI@Z 00595490 f i MagicProcess.obj
 0002:00035500       ?_Umove_if_noexcept1@?$vector@EV?$allocator@E@std@@@std@@AAEXPAE00U?$integral_constant@_N$00@2@@Z 00595500 f i MagicProcess.obj
 0002:00035570       ?_Umove_if_noexcept@?$vector@EV?$allocator@E@std@@@std@@AAEXPAE00@Z 00595570 f i MagicProcess.obj
 0002:000355f0       ?_Xlength@?$vector@EV?$allocator@E@std@@@std@@CAXXZ 005955f0 f i MagicProcess.obj
 0002:00035640       ?__empty_global_delete@@YAXPAX@Z 00595640 f i MagicProcess.obj
 0002:00035670       ?__global_delete@@YAXPAXI@Z 00595670 f i MagicProcess.obj
 0002:00035670       ?__empty_global_delete@@YAXPAXI@Z 00595670 f i MagicProcess.obj
 0002:000356a0       ?allocate@?$allocator@E@std@@QAEPAEI@Z 005956a0 f i MagicProcess.obj
 0002:00035700       ?allocate@?$allocator@U_Container_proxy@std@@@std@@QAEPAU_Container_proxy@2@I@Z 00595700 f i MagicProcess.obj
 0002:00035760       ?append@ByteBuffer@@QAEXPBXI@Z 00595760 f i MagicProcess.obj
 0002:00035860       ?capacity@?$vector@EV?$allocator@E@std@@@std@@QBEIXZ 00595860 f i MagicProcess.obj
 0002:000358d0       ?deallocate@?$_Default_allocator_traits@V?$allocator@U_Container_proxy@std@@@std@@@std@@SAXAAV?$allocator@U_Container_proxy@std@@@2@QAU_Container_proxy@2@I@Z 005958d0 f i MagicProcess.obj
 0002:00035930       ?deallocate@?$allocator@E@std@@QAEXQAEI@Z 00595930 f i MagicProcess.obj
 0002:00035990       ?deallocate@?$allocator@U?$_Tree_node@U?$pair@$$CBEU_BUFF_TYPE4_INFO@@@std@@PAX@std@@@std@@QAEXQAU?$_Tree_node@U?$pair@$$CBEU_BUFF_TYPE4_INFO@@@std@@PAX@2@I@Z 00595990 f i MagicProcess.obj
 0002:000359f0       ?end@?$_Tree@V?$_Tmap_traits@EU_BUFF_TYPE4_INFO@@U?$less@E@std@@V?$allocator@U?$pair@$$CBEU_BUFF_TYPE4_INFO@@@std@@@3@$0A@@std@@@std@@QAE?AV?$_Tree_iterator@V?$_Tree_val@U?$_Tree_simple_types@U?$pair@$$CBEU_BUFF_TYPE4_INFO@@@std@@@std@@@std@@@2@XZ 005959f0 f i MagicProcess.obj
 0002:00035aa0       ?end@?$_Tree@V?$_Tmap_traits@IPAU_MAGIC_TABLE@@U?$less@I@std@@V?$allocator@U?$pair@$$CBIPAU_MAGIC_TABLE@@@std@@@3@$0A@@std@@@std@@QAE?AV?$_Tree_iterator@V?$_Tree_val@U?$_Tree_simple_types@U?$pair@$$CBIPAU_MAGIC_TABLE@@@std@@@std@@@std@@@2@XZ 00595aa0 f i MagicProcess.obj
 0002:00035b50       ?end@?$_Tree@V?$_Tmap_traits@IPAU_MAGIC_TYPE4@@U?$less@I@std@@V?$allocator@U?$pair@$$CBIPAU_MAGIC_TYPE4@@@std@@@3@$0A@@std@@@std@@QAE?AV?$_Tree_iterator@V?$_Tree_val@U?$_Tree_simple_types@U?$pair@$$CBIPAU_MAGIC_TYPE4@@@std@@@std@@@std@@@2@XZ 00595b50 f i MagicProcess.obj
 0002:00035c00       ?erase@?$_Tree@V?$_Tmap_traits@EU_BUFF_TYPE4_INFO@@U?$less@E@std@@V?$allocator@U?$pair@$$CBEU_BUFF_TYPE4_INFO@@@std@@@3@$0A@@std@@@std@@QAE?AV?$_Tree_iterator@V?$_Tree_val@U?$_Tree_simple_types@U?$pair@$$CBEU_BUFF_TYPE4_INFO@@@std@@@std@@@std@@@2@V?$_Tree_const_iterator@V?$_Tree_val@U?$_Tree_simple_types@U?$pair@$$CBEU_BUFF_TYPE4_INFO@@@std@@@std@@@std@@@2@@Z 00595c00 f i MagicProcess.obj
 0002:00036320       ?find@?$_Tree@V?$_Tmap_traits@EU_BUFF_TYPE4_INFO@@U?$less@E@std@@V?$allocator@U?$pair@$$CBEU_BUFF_TYPE4_INFO@@@std@@@3@$0A@@std@@@std@@QAE?AV?$_Tree_iterator@V?$_Tree_val@U?$_Tree_simple_types@U?$pair@$$CBEU_BUFF_TYPE4_INFO@@@std@@@std@@@std@@@2@ABE@Z 00596320 f i MagicProcess.obj
 0002:000365e0       ?find@?$_Tree@V?$_Tmap_traits@IPAU_MAGIC_TABLE@@U?$less@I@std@@V?$allocator@U?$pair@$$CBIPAU_MAGIC_TABLE@@@std@@@3@$0A@@std@@@std@@QAE?AV?$_Tree_iterator@V?$_Tree_val@U?$_Tree_simple_types@U?$pair@$$CBIPAU_MAGIC_TABLE@@@std@@@std@@@std@@@2@ABI@Z 005965e0 f i MagicProcess.obj
 0002:000368a0       ?find@?$_Tree@V?$_Tmap_traits@IPAU_MAGIC_TYPE4@@U?$less@I@std@@V?$allocator@U?$pair@$$CBIPAU_MAGIC_TYPE4@@@std@@@3@$0A@@std@@@std@@QAE?AV?$_Tree_iterator@V?$_Tree_val@U?$_Tree_simple_types@U?$pair@$$CBIPAU_MAGIC_TYPE4@@@std@@@std@@@std@@@2@ABI@Z 005968a0 f i MagicProcess.obj
 0002:00036b60       ?isBuff@_BUFF_TYPE4_INFO@@QAE_NXZ 00596b60 f i MagicProcess.obj
 0002:00036ba0       ?isInClan@CUser@@QAE_NXZ   00596ba0 f i MagicProcess.obj
 0002:00036be0       ?isInParty@CUser@@QAE_NXZ  00596be0 f i MagicProcess.obj
 0002:00036c50       ?isInTempleEventZone@Unit@@QAE_NE@Z 00596c50 f i MagicProcess.obj
 0002:00036d00       ?isNPC@Unit@@QAE_NXZ       00596d00 f i MagicProcess.obj
 0002:00036d80       ?isPlayer@Unit@@QAE_NXZ    00596d80 f i MagicProcess.obj
 0002:00036e00       ?isWarZone@MAP@@QAE_NXZ    00596e00 f i MagicProcess.obj
 0002:00036e70       ?lock@_Mutex_base@std@@QAEXXZ 00596e70 f i MagicProcess.obj
 0002:00036ed0       ?lower_bound@?$_Tree@V?$_Tmap_traits@EU_BUFF_TYPE4_INFO@@U?$less@E@std@@V?$allocator@U?$pair@$$CBEU_BUFF_TYPE4_INFO@@@std@@@3@$0A@@std@@@std@@QAE?AV?$_Tree_iterator@V?$_Tree_val@U?$_Tree_simple_types@U?$pair@$$CBEU_BUFF_TYPE4_INFO@@@std@@@std@@@std@@@2@ABE@Z 00596ed0 f i MagicProcess.obj
 0002:00036f70       ?lower_bound@?$_Tree@V?$_Tmap_traits@IPAU_MAGIC_TABLE@@U?$less@I@std@@V?$allocator@U?$pair@$$CBIPAU_MAGIC_TABLE@@@std@@@3@$0A@@std@@@std@@QAE?AV?$_Tree_iterator@V?$_Tree_val@U?$_Tree_simple_types@U?$pair@$$CBIPAU_MAGIC_TABLE@@@std@@@std@@@std@@@2@ABI@Z 00596f70 f i MagicProcess.obj
 0002:00037010       ?lower_bound@?$_Tree@V?$_Tmap_traits@IPAU_MAGIC_TYPE4@@U?$less@I@std@@V?$allocator@U?$pair@$$CBIPAU_MAGIC_TYPE4@@@std@@@3@$0A@@std@@@std@@QAE?AV?$_Tree_iterator@V?$_Tree_val@U?$_Tree_simple_types@U?$pair@$$CBIPAU_MAGIC_TYPE4@@@std@@@std@@@std@@@2@ABI@Z 00597010 f i MagicProcess.obj
 0002:000370b0       ?max@?$numeric_limits@H@std@@SAHXZ 005970b0 f i MagicProcess.obj
 0002:000370f0       ?max_size@?$_Default_allocator_traits@V?$allocator@E@std@@@std@@SAIABV?$allocator@E@2@@Z 005970f0 f i MagicProcess.obj
 0002:00037130       ?max_size@?$vector@EV?$allocator@E@std@@@std@@QBEIXZ 00597130 f i MagicProcess.obj
 0002:000371c0       ?pointer_to@?$pointer_traits@PAU?$pair@$$CBEU_BUFF_TYPE4_INFO@@@std@@@std@@SAPAU?$pair@$$CBEU_BUFF_TYPE4_INFO@@@2@AAU32@@Z 005971c0 f i MagicProcess.obj
 0002:00037210       ?pointer_to@?$pointer_traits@PAU?$pair@$$CBIPAU_MAGIC_TABLE@@@std@@@std@@SAPAU?$pair@$$CBIPAU_MAGIC_TABLE@@@2@AAU32@@Z 00597210 f i MagicProcess.obj
 0002:00037260       ?pointer_to@?$pointer_traits@PAU?$pair@$$CBIPAU_MAGIC_TYPE4@@@std@@@std@@SAPAU?$pair@$$CBIPAU_MAGIC_TYPE4@@@2@AAU32@@Z 00597260 f i MagicProcess.obj
 0002:000372b0       ?reserve@?$vector@EV?$allocator@E@std@@@std@@QAEXI@Z 005972b0 f i MagicProcess.obj
 0002:00037330       ?resize@?$vector@EV?$allocator@E@std@@@std@@QAEXI@Z 00597330 f i MagicProcess.obj
 0002:000373e0       ?size@?$vector@EV?$allocator@E@std@@@std@@QBEIXZ 005973e0 f i MagicProcess.obj
 0002:00037450       ?size@ByteBuffer@@QBEIXZ   00597450 f i MagicProcess.obj
 0002:000374b0       ?unlock@_Mutex_base@std@@QAEXXZ 005974b0 f i MagicProcess.obj
 0002:00037510       ___local_stdio_printf_options 00597510 f i MagicProcess.obj
 0002:00037550       __vfprintf_l               00597550 f i MagicProcess.obj
 0002:000375c0       _printf                    005975c0 f i MagicProcess.obj
 0002:00037640       ??$?0$$V@?$_Compressed_pair@V?$allocator@U?$_Tree_node@U?$pair@$$CBEU_BUFF_TYPE4_INFO@@@std@@PAX@std@@@std@@V?$_Tree_val@U?$_Tree_simple_types@U?$pair@$$CBEU_BUFF_TYPE4_INFO@@@std@@@std@@@2@$00@std@@QAE@U_Zero_then_variadic_args_t@1@@Z 00597640 f i Unit.obj
 0002:000376a0       ??$?0$$V@?$_Compressed_pair@V?$allocator@U?$_Tree_node@U?$pair@$$CBEU_BUFF_TYPE9_INFO@@@std@@PAX@std@@@std@@V?$_Tree_val@U?$_Tree_simple_types@U?$pair@$$CBEU_BUFF_TYPE9_INFO@@@std@@@std@@@2@$00@std@@QAE@U_Zero_then_variadic_args_t@1@@Z 005976a0 f i Unit.obj
 0002:00037700       ??$?0$$V@?$_Compressed_pair@V?$allocator@U?$_Tree_node@U?$pair@$$CBEV?$map@EFU?$less@E@std@@V?$allocator@U?$pair@$$CBEF@std@@@2@@std@@@std@@PAX@std@@@std@@V?$_Tree_val@U?$_Tree_simple_types@U?$pair@$$CBEV?$map@EFU?$less@E@std@@V?$allocator@U?$pair@$$CBEF@std@@@2@@std@@@std@@@std@@@2@$00@std@@QAE@U_Zero_then_variadic_args_t@1@@Z 00597700 f i Unit.obj
 0002:00037760       ??$?0AAEAAU_BUFF_TYPE4_INFO@@X$0A@@?$pair@EU_BUFF_TYPE4_INFO@@@std@@QAE@AAEAAU_BUFF_TYPE4_INFO@@@Z 00597760 f i Unit.obj
 0002:00037800       ??$?0AAV?$_Tree_iterator@V?$_Tree_val@U?$_Tree_simple_types@U?$pair@$$CBEU_BUFF_TYPE4_INFO@@@std@@@std@@@std@@@std@@_NX$0A@@?$pair@V?$_Tree_iterator@V?$_Tree_val@U?$_Tree_simple_types@U?$pair@$$CBEU_BUFF_TYPE4_INFO@@@std@@@std@@@std@@@std@@_N@std@@QAE@AAV?$_Tree_iterator@V?$_Tree_val@U?$_Tree_simple_types@U?$pair@$$CBEU_BUFF_TYPE4_INFO@@@std@@@std@@@std@@@1@$$QA_N@Z 00597800 f i Unit.obj
 0002:00037880       ??$?0ABU?$less@E@std@@U_One_then_variadic_args_t@1@V?$allocator@U?$_Tree_node@U?$pair@$$CBEU_BUFF_TYPE4_INFO@@@std@@PAX@std@@@1@@?$_Compressed_pair@U?$less@E@std@@V?$_Compressed_pair@V?$allocator@U?$_Tree_node@U?$pair@$$CBEU_BUFF_TYPE4_INFO@@@std@@PAX@std@@@std@@V?$_Tree_val@U?$_Tree_simple_types@U?$pair@$$CBEU_BUFF_TYPE4_INFO@@@std@@@std@@@2@$00@2@$00@std@@QAE@U_One_then_variadic_args_t@1@ABU?$less@E@1@$$QAU21@$$QAV?$allocator@U?$_Tree_node@U?$pair@$$CBEU_BUFF_TYPE4_INFO@@@std@@PAX@std@@@1@@Z 00597880 f i Unit.obj
 0002:00037910       ??$?0ABU?$less@E@std@@U_Zero_then_variadic_args_t@1@@?$_Compressed_pair@U?$less@E@std@@V?$_Compressed_pair@V?$allocator@U?$_Tree_node@U?$pair@$$CBEU_BUFF_TYPE4_INFO@@@std@@PAX@std@@@std@@V?$_Tree_val@U?$_Tree_simple_types@U?$pair@$$CBEU_BUFF_TYPE4_INFO@@@std@@@std@@@2@$00@2@$00@std@@QAE@U_One_then_variadic_args_t@1@ABU?$less@E@1@$$QAU_Zero_then_variadic_args_t@1@@Z 00597910 f i Unit.obj
 0002:00037990       ??$?0ABU?$less@E@std@@U_Zero_then_variadic_args_t@1@@?$_Compressed_pair@U?$less@E@std@@V?$_Compressed_pair@V?$allocator@U?$_Tree_node@U?$pair@$$CBEU_BUFF_TYPE9_INFO@@@std@@PAX@std@@@std@@V?$_Tree_val@U?$_Tree_simple_types@U?$pair@$$CBEU_BUFF_TYPE9_INFO@@@std@@@std@@@2@$00@2@$00@std@@QAE@U_One_then_variadic_args_t@1@ABU?$less@E@1@$$QAU_Zero_then_variadic_args_t@1@@Z 00597990 f i Unit.obj
 0002:00037a10       ??$?0ABU?$less@E@std@@U_Zero_then_variadic_args_t@1@@?$_Compressed_pair@U?$less@E@std@@V?$_Compressed_pair@V?$allocator@U?$_Tree_node@U?$pair@$$CBEV?$map@EFU?$less@E@std@@V?$allocator@U?$pair@$$CBEF@std@@@2@@std@@@std@@PAX@std@@@std@@V?$_Tree_val@U?$_Tree_simple_types@U?$pair@$$CBEV?$map@EFU?$less@E@std@@V?$allocator@U?$pair@$$CBEF@std@@@2@@std@@@std@@@std@@@2@$00@2@$00@std@@QAE@U_One_then_variadic_args_t@1@ABU?$less@E@1@$$QAU_Zero_then_variadic_args_t@1@@Z 00597a10 f i Unit.obj
 0002:00037a90       ??$?0EU_BUFF_TYPE4_INFO@@X$0A@@?$pair@$$CBEU_BUFF_TYPE4_INFO@@@std@@QAE@$$QAU?$pair@EU_BUFF_TYPE4_INFO@@@1@@Z 00597a90 f i Unit.obj
 0002:00037b30       ??$?0U?$_Tree_node@U?$pair@$$CBEF@std@@PAX@std@@@?$allocator@U_Container_proxy@std@@@std@@QAE@ABV?$allocator@U?$_Tree_node@U?$pair@$$CBEF@std@@PAX@std@@@1@@Z 00597b30 f i Unit.obj
 0002:00037b70       ??$?0U?$_Tree_node@U?$pair@$$CBEU_BUFF_TYPE4_INFO@@@std@@PAX@std@@@?$allocator@U_Container_proxy@std@@@std@@QAE@ABV?$allocator@U?$_Tree_node@U?$pair@$$CBEU_BUFF_TYPE4_INFO@@@std@@PAX@std@@@1@@Z 00597b70 f i Unit.obj
 0002:00037bb0       ??$?0U?$_Tree_node@U?$pair@$$CBEU_BUFF_TYPE9_INFO@@@std@@PAX@std@@@?$allocator@U_Container_proxy@std@@@std@@QAE@ABV?$allocator@U?$_Tree_node@U?$pair@$$CBEU_BUFF_TYPE9_INFO@@@std@@PAX@std@@@1@@Z 00597bb0 f i Unit.obj
 0002:00037bf0       ??$?0U?$_Tree_node@U?$pair@$$CBEV?$map@EFU?$less@E@std@@V?$allocator@U?$pair@$$CBEF@std@@@2@@std@@@std@@PAX@std@@@?$allocator@U_Container_proxy@std@@@std@@QAE@ABV?$allocator@U?$_Tree_node@U?$pair@$$CBEV?$map@EFU?$less@E@std@@V?$allocator@U?$pair@$$CBEF@std@@@2@@std@@@std@@PAX@std@@@1@@Z 00597bf0 f i Unit.obj
 0002:00037c30       ??$?0V?$_Tree_iterator@V?$_Tree_val@U?$_Tree_simple_types@U?$pair@$$CBEU_BUFF_TYPE4_INFO@@@std@@@std@@@std@@@std@@_NX$0A@@?$pair@V?$_Tree_iterator@V?$_Tree_val@U?$_Tree_simple_types@U?$pair@$$CBEU_BUFF_TYPE4_INFO@@@std@@@std@@@std@@@std@@_N@std@@QAE@$$QAV?$_Tree_iterator@V?$_Tree_val@U?$_Tree_simple_types@U?$pair@$$CBEU_BUFF_TYPE4_INFO@@@std@@@std@@@std@@@1@$$QA_N@Z 00597c30 f i Unit.obj
 0002:00037cb0       ??$?0V?$allocator@U?$_Tree_node@U?$pair@$$CBEU_BUFF_TYPE4_INFO@@@std@@PAX@std@@@std@@$$V@?$_Compressed_pair@V?$allocator@U?$_Tree_node@U?$pair@$$CBEU_BUFF_TYPE4_INFO@@@std@@PAX@std@@@std@@V?$_Tree_val@U?$_Tree_simple_types@U?$pair@$$CBEU_BUFF_TYPE4_INFO@@@std@@@std@@@2@$00@std@@QAE@U_One_then_variadic_args_t@1@$$QAV?$allocator@U?$_Tree_node@U?$pair@$$CBEU_BUFF_TYPE4_INFO@@@std@@PAX@std@@@1@@Z 00597cb0 f i Unit.obj
 0002:00037d20       ??$?0V?$allocator@U?$_Tree_node@U?$pair@$$CBEU_BUFF_TYPE4_INFO@@@std@@PAX@std@@@std@@@?$_Tree@V?$_Tmap_traits@EU_BUFF_TYPE4_INFO@@U?$less@E@std@@V?$allocator@U?$pair@$$CBEU_BUFF_TYPE4_INFO@@@std@@@3@$0A@@std@@@std@@QAE@ABV01@$$QAV?$allocator@U?$_Tree_node@U?$pair@$$CBEU_BUFF_TYPE4_INFO@@@std@@PAX@std@@@1@@Z 00597d20 f i Unit.obj
 0002:00037e40       ??$?0V?$allocator@U?$_Tree_node@U?$pair@$$CBEU_BUFF_TYPE4_INFO@@@std@@PAX@std@@@std@@X@?$_Tree_comp_alloc@V?$_Tmap_traits@EU_BUFF_TYPE4_INFO@@U?$less@E@std@@V?$allocator@U?$pair@$$CBEU_BUFF_TYPE4_INFO@@@std@@@3@$0A@@std@@@std@@QAE@ABU?$less@E@1@$$QAV?$allocator@U?$_Tree_node@U?$pair@$$CBEU_BUFF_TYPE4_INFO@@@std@@PAX@std@@@1@@Z 00597e40 f i Unit.obj
 0002:00037f10       ??$_Buynode@AAU?$pair@$$CBEU_BUFF_TYPE4_INFO@@@std@@@?$_Tree_comp_alloc@V?$_Tmap_traits@EU_BUFF_TYPE4_INFO@@U?$less@E@std@@V?$allocator@U?$pair@$$CBEU_BUFF_TYPE4_INFO@@@std@@@3@$0A@@std@@@std@@QAEPAU?$_Tree_node@U?$pair@$$CBEU_BUFF_TYPE4_INFO@@@std@@PAX@1@AAU?$pair@$$CBEU_BUFF_TYPE4_INFO@@@1@@Z 00597f10 f i Unit.obj
 0002:00038030       ??$_Buynode@U?$pair@EU_BUFF_TYPE4_INFO@@@std@@@?$_Tree_comp_alloc@V?$_Tmap_traits@EU_BUFF_TYPE4_INFO@@U?$less@E@std@@V?$allocator@U?$pair@$$CBEU_BUFF_TYPE4_INFO@@@std@@@3@$0A@@std@@@std@@QAEPAU?$_Tree_node@U?$pair@$$CBEU_BUFF_TYPE4_INFO@@@std@@PAX@1@$$QAU?$pair@EU_BUFF_TYPE4_INFO@@@1@@Z 00598030 f i Unit.obj
 0002:00038150       ??$_Buynode_if_nil@AAU?$pair@$$CBEU_BUFF_TYPE4_INFO@@@std@@@?$_Tree@V?$_Tmap_traits@EU_BUFF_TYPE4_INFO@@U?$less@E@std@@V?$allocator@U?$pair@$$CBEU_BUFF_TYPE4_INFO@@@std@@@3@$0A@@std@@@std@@IAEPAU?$_Tree_node@U?$pair@$$CBEU_BUFF_TYPE4_INFO@@@std@@PAX@1@PAU21@AAU?$pair@$$CBEU_BUFF_TYPE4_INFO@@@1@@Z 00598150 f i Unit.obj
 0002:00038190       ??$_Copy@U_Copy_tag@?$_Tree@V?$_Tmap_traits@EU_BUFF_TYPE4_INFO@@U?$less@E@std@@V?$allocator@U?$pair@$$CBEU_BUFF_TYPE4_INFO@@@std@@@3@$0A@@std@@@std@@@?$_Tree@V?$_Tmap_traits@EU_BUFF_TYPE4_INFO@@U?$less@E@std@@V?$allocator@U?$pair@$$CBEU_BUFF_TYPE4_INFO@@@std@@@3@$0A@@std@@@std@@IAEXABV01@U_Copy_tag@01@@Z 00598190 f i Unit.obj
 0002:000382d0       ??$_Copy_nodes@U_Copy_tag@?$_Tree@V?$_Tmap_traits@EU_BUFF_TYPE4_INFO@@U?$less@E@std@@V?$allocator@U?$pair@$$CBEU_BUFF_TYPE4_INFO@@@std@@@3@$0A@@std@@@std@@@?$_Tree@V?$_Tmap_traits@EU_BUFF_TYPE4_INFO@@U?$less@E@std@@V?$allocator@U?$pair@$$CBEU_BUFF_TYPE4_INFO@@@std@@@3@$0A@@std@@@std@@IAEPAU?$_Tree_node@U?$pair@$$CBEU_BUFF_TYPE4_INFO@@@std@@PAX@1@PAU21@0U_Copy_tag@01@@Z 005982d0 f i Unit.obj
 0002:000384b0       ??$_Copy_or_move@U?$pair@$$CBEU_BUFF_TYPE4_INFO@@@std@@U?$integral_constant@_N$0A@@2@@?$_Tree@V?$_Tmap_traits@EU_BUFF_TYPE4_INFO@@U?$less@E@std@@V?$allocator@U?$pair@$$CBEU_BUFF_TYPE4_INFO@@@std@@@3@$0A@@std@@@std@@IAEPAU?$_Tree_node@U?$pair@$$CBEU_BUFF_TYPE4_INFO@@@std@@PAX@1@AAU?$pair@$$CBEU_BUFF_TYPE4_INFO@@@1@U_Copy_tag@01@U?$integral_constant@_N$0A@@1@@Z 005984b0 f i Unit.obj
 0002:00038510       ??$_Insert_at@AAU?$pair@$$CBEU_BUFF_TYPE4_INFO@@@std@@PAU?$_Tree_node@U?$pair@$$CBEU_BUFF_TYPE4_INFO@@@std@@PAX@2@@?$_Tree@V?$_Tmap_traits@EU_BUFF_TYPE4_INFO@@U?$less@E@std@@V?$allocator@U?$pair@$$CBEU_BUFF_TYPE4_INFO@@@std@@@3@$0A@@std@@@std@@IAE?AV?$_Tree_iterator@V?$_Tree_val@U?$_Tree_simple_types@U?$pair@$$CBEU_BUFF_TYPE4_INFO@@@std@@@std@@@std@@@1@_NPAU?$_Tree_node@U?$pair@$$CBEU_BUFF_TYPE4_INFO@@@std@@PAX@1@AAU?$pair@$$CBEU_BUFF_TYPE4_INFO@@@1@1@Z 00598510 f i Unit.obj
 0002:000388b0       ??$_Insert_nohint@AAU?$pair@$$CBEU_BUFF_TYPE4_INFO@@@std@@PAU?$_Tree_node@U?$pair@$$CBEU_BUFF_TYPE4_INFO@@@std@@PAX@2@@?$_Tree@V?$_Tmap_traits@EU_BUFF_TYPE4_INFO@@U?$less@E@std@@V?$allocator@U?$pair@$$CBEU_BUFF_TYPE4_INFO@@@std@@@3@$0A@@std@@@std@@IAE?AU?$pair@V?$_Tree_iterator@V?$_Tree_val@U?$_Tree_simple_types@U?$pair@$$CBEU_BUFF_TYPE4_INFO@@@std@@@std@@@std@@@std@@_N@1@_NAAU?$pair@$$CBEU_BUFF_TYPE4_INFO@@@1@PAU?$_Tree_node@U?$pair@$$CBEU_BUFF_TYPE4_INFO@@@std@@PAX@1@@Z 005988b0 f i Unit.obj
 0002:00038ee0       ??$_Kfn@$$CBIPAU_MAGIC_TYPE1@@@?$_Tmap_traits@IPAU_MAGIC_TYPE1@@U?$less@I@std@@V?$allocator@U?$pair@$$CBIPAU_MAGIC_TYPE1@@@std@@@3@$0A@@std@@SAABIABU?$pair@$$CBIPAU_MAGIC_TYPE1@@@1@@Z 00598ee0 f i Unit.obj
 0002:00038f20       ??$_Kfn@$$CBIPAU_MAGIC_TYPE2@@@?$_Tmap_traits@IPAU_MAGIC_TYPE2@@U?$less@I@std@@V?$allocator@U?$pair@$$CBIPAU_MAGIC_TYPE2@@@std@@@3@$0A@@std@@SAABIABU?$pair@$$CBIPAU_MAGIC_TYPE2@@@1@@Z 00598f20 f i Unit.obj
 0002:00038f60       ??$_Lbound@I@?$_Tree@V?$_Tmap_traits@IPAU_MAGIC_TYPE1@@U?$less@I@std@@V?$allocator@U?$pair@$$CBIPAU_MAGIC_TYPE1@@@std@@@3@$0A@@std@@@std@@IBEPAU?$_Tree_node@U?$pair@$$CBIPAU_MAGIC_TYPE1@@@std@@PAX@1@ABI@Z 00598f60 f i Unit.obj
 0002:00039030       ??$_Lbound@I@?$_Tree@V?$_Tmap_traits@IPAU_MAGIC_TYPE2@@U?$less@I@std@@V?$allocator@U?$pair@$$CBIPAU_MAGIC_TYPE2@@@std@@@3@$0A@@std@@@std@@IBEPAU?$_Tree_node@U?$pair@$$CBIPAU_MAGIC_TYPE2@@@std@@PAX@1@ABI@Z 00599030 f i Unit.obj
 0002:000393a0       ??$addressof@PAU?$_Tree_node@U?$pair@$$CBEF@std@@PAX@std@@@std@@YAPAPAU?$_Tree_node@U?$pair@$$CBEF@std@@PAX@0@AAPAU10@@Z 005993a0 f i Unit.obj
 0002:000393e0       ??$addressof@PAU?$_Tree_node@U?$pair@$$CBEU_BUFF_TYPE4_INFO@@@std@@PAX@std@@@std@@YAPAPAU?$_Tree_node@U?$pair@$$CBEU_BUFF_TYPE4_INFO@@@std@@PAX@0@AAPAU10@@Z 005993e0 f i Unit.obj
 0002:00039420       ??$addressof@PAU?$_Tree_node@U?$pair@$$CBEU_BUFF_TYPE9_INFO@@@std@@PAX@std@@@std@@YAPAPAU?$_Tree_node@U?$pair@$$CBEU_BUFF_TYPE9_INFO@@@std@@PAX@0@AAPAU10@@Z 00599420 f i Unit.obj
 0002:00039460       ??$addressof@PAU?$_Tree_node@U?$pair@$$CBEV?$map@EFU?$less@E@std@@V?$allocator@U?$pair@$$CBEF@std@@@2@@std@@@std@@PAX@std@@@std@@YAPAPAU?$_Tree_node@U?$pair@$$CBEV?$map@EFU?$less@E@std@@V?$allocator@U?$pair@$$CBEF@std@@@2@@std@@@std@@PAX@0@AAPAU10@@Z 00599460 f i Unit.obj
 0002:000394a0       ??$addressof@U?$pair@$$CBEF@std@@@std@@YAPAU?$pair@$$CBEF@0@AAU10@@Z 005994a0 f i Unit.obj
 0002:000394e0       ??$addressof@U?$pair@$$CBEU_BUFF_TYPE9_INFO@@@std@@@std@@YAPAU?$pair@$$CBEU_BUFF_TYPE9_INFO@@@0@AAU10@@Z 005994e0 f i Unit.obj
 0002:00039520       ??$addressof@U?$pair@$$CBEV?$map@EFU?$less@E@std@@V?$allocator@U?$pair@$$CBEF@std@@@2@@std@@@std@@@std@@YAPAU?$pair@$$CBEV?$map@EFU?$less@E@std@@V?$allocator@U?$pair@$$CBEF@std@@@2@@std@@@0@AAU10@@Z 00599520 f i Unit.obj
 0002:00039560       ??$addressof@U?$pair@$$CBIPAU_MAGIC_TYPE1@@@std@@@std@@YAPAU?$pair@$$CBIPAU_MAGIC_TYPE1@@@0@AAU10@@Z 00599560 f i Unit.obj
 0002:000395a0       ??$addressof@U?$pair@$$CBIPAU_MAGIC_TYPE2@@@std@@@std@@YAPAU?$pair@$$CBIPAU_MAGIC_TYPE2@@@0@AAU10@@Z 005995a0 f i Unit.obj
 0002:000395e0       ??$addressof@V?$_Tree_val@U?$_Tree_simple_types@U?$pair@$$CBEF@std@@@std@@@std@@@std@@YAPAV?$_Tree_val@U?$_Tree_simple_types@U?$pair@$$CBEF@std@@@std@@@0@AAV10@@Z 005995e0 f i Unit.obj
 0002:00039620       ??$addressof@V?$_Tree_val@U?$_Tree_simple_types@U?$pair@$$CBEU_BUFF_TYPE9_INFO@@@std@@@std@@@std@@@std@@YAPAV?$_Tree_val@U?$_Tree_simple_types@U?$pair@$$CBEU_BUFF_TYPE9_INFO@@@std@@@std@@@0@AAV10@@Z 00599620 f i Unit.obj
 0002:00039660       ??$addressof@V?$_Tree_val@U?$_Tree_simple_types@U?$pair@$$CBEV?$map@EFU?$less@E@std@@V?$allocator@U?$pair@$$CBEF@std@@@2@@std@@@std@@@std@@@std@@@std@@YAPAV?$_Tree_val@U?$_Tree_simple_types@U?$pair@$$CBEV?$map@EFU?$less@E@std@@V?$allocator@U?$pair@$$CBEF@std@@@2@@std@@@std@@@std@@@0@AAV10@@Z 00599660 f i Unit.obj
 0002:000396a0       ??$addressof@V?$_Tree_val@U?$_Tree_simple_types@U?$pair@$$CBIPAU_MAGIC_TYPE1@@@std@@@std@@@std@@@std@@YAPAV?$_Tree_val@U?$_Tree_simple_types@U?$pair@$$CBIPAU_MAGIC_TYPE1@@@std@@@std@@@0@AAV10@@Z 005996a0 f i Unit.obj
 0002:000396e0       ??$addressof@V?$_Tree_val@U?$_Tree_simple_types@U?$pair@$$CBIPAU_MAGIC_TYPE2@@@std@@@std@@@std@@@std@@YAPAV?$_Tree_val@U?$_Tree_simple_types@U?$pair@$$CBIPAU_MAGIC_TYPE2@@@std@@@std@@@0@AAV10@@Z 005996e0 f i Unit.obj
 0002:00039720       ??$append@F@ByteBuffer@@QAEXF@Z 00599720 f i Unit.obj
 0002:00039780       ??$append@G@ByteBuffer@@QAEXG@Z 00599780 f i Unit.obj
 0002:000397e0       ??$construct@PAU?$_Tree_node@U?$pair@$$CBEU_BUFF_TYPE4_INFO@@@std@@PAX@std@@AAPAU12@@?$_Default_allocator_traits@V?$allocator@U?$_Tree_node@U?$pair@$$CBEU_BUFF_TYPE4_INFO@@@std@@PAX@std@@@std@@@std@@SAXAAV?$allocator@U?$_Tree_node@U?$pair@$$CBEU_BUFF_TYPE4_INFO@@@std@@PAX@std@@@1@QAPAU?$_Tree_node@U?$pair@$$CBEU_BUFF_TYPE4_INFO@@@std@@PAX@1@AAPAU31@@Z 005997e0 f i Unit.obj
 0002:00039860       ??$construct@PAU?$_Tree_node@U?$pair@$$CBEU_BUFF_TYPE9_INFO@@@std@@PAX@std@@AAPAU12@@?$_Default_allocator_traits@V?$allocator@U?$_Tree_node@U?$pair@$$CBEU_BUFF_TYPE9_INFO@@@std@@PAX@std@@@std@@@std@@SAXAAV?$allocator@U?$_Tree_node@U?$pair@$$CBEU_BUFF_TYPE9_INFO@@@std@@PAX@std@@@1@QAPAU?$_Tree_node@U?$pair@$$CBEU_BUFF_TYPE9_INFO@@@std@@PAX@1@AAPAU31@@Z 00599860 f i Unit.obj
 0002:000398e0       ??$construct@PAU?$_Tree_node@U?$pair@$$CBEV?$map@EFU?$less@E@std@@V?$allocator@U?$pair@$$CBEF@std@@@2@@std@@@std@@PAX@std@@AAPAU12@@?$_Default_allocator_traits@V?$allocator@U?$_Tree_node@U?$pair@$$CBEV?$map@EFU?$less@E@std@@V?$allocator@U?$pair@$$CBEF@std@@@2@@std@@@std@@PAX@std@@@std@@@std@@SAXAAV?$allocator@U?$_Tree_node@U?$pair@$$CBEV?$map@EFU?$less@E@std@@V?$allocator@U?$pair@$$CBEF@std@@@2@@std@@@std@@PAX@std@@@1@QAPAU?$_Tree_node@U?$pair@$$CBEV?$map@EFU?$less@E@std@@V?$allocator@U?$pair@$$CBEF@std@@@2@@std@@@std@@PAX@1@AAPAU31@@Z 005998e0 f i Unit.obj
 0002:00039960       ??$construct@U?$pair@$$CBEU_BUFF_TYPE4_INFO@@@std@@AAU12@@?$_Default_allocator_traits@V?$allocator@U?$_Tree_node@U?$pair@$$CBEU_BUFF_TYPE4_INFO@@@std@@PAX@std@@@std@@@std@@SAXAAV?$allocator@U?$_Tree_node@U?$pair@$$CBEU_BUFF_TYPE4_INFO@@@std@@PAX@std@@@1@QAU?$pair@$$CBEU_BUFF_TYPE4_INFO@@@1@AAU31@@Z 00599960 f i Unit.obj
 0002:00039a00       ??$construct@U?$pair@$$CBEU_BUFF_TYPE4_INFO@@@std@@U?$pair@EU_BUFF_TYPE4_INFO@@@2@@?$_Default_allocator_traits@V?$allocator@U?$_Tree_node@U?$pair@$$CBEU_BUFF_TYPE4_INFO@@@std@@PAX@std@@@std@@@std@@SAXAAV?$allocator@U?$_Tree_node@U?$pair@$$CBEU_BUFF_TYPE4_INFO@@@std@@PAX@std@@@1@QAU?$pair@$$CBEU_BUFF_TYPE4_INFO@@@1@$$QAU?$pair@EU_BUFF_TYPE4_INFO@@@1@@Z 00599a00 f i Unit.obj
 0002:00039a80       ??$destroy@PAU?$_Tree_node@U?$pair@$$CBEF@std@@PAX@std@@@?$_Default_allocator_traits@V?$allocator@U?$_Tree_node@U?$pair@$$CBEF@std@@PAX@std@@@std@@@std@@SAXAAV?$allocator@U?$_Tree_node@U?$pair@$$CBEF@std@@PAX@std@@@1@QAPAU?$_Tree_node@U?$pair@$$CBEF@std@@PAX@1@@Z 00599a80 f i Unit.obj
 0002:00039ab0       ??$destroy@PAU?$_Tree_node@U?$pair@$$CBEU_BUFF_TYPE4_INFO@@@std@@PAX@std@@@?$_Default_allocator_traits@V?$allocator@U?$_Tree_node@U?$pair@$$CBEU_BUFF_TYPE4_INFO@@@std@@PAX@std@@@std@@@std@@SAXAAV?$allocator@U?$_Tree_node@U?$pair@$$CBEU_BUFF_TYPE4_INFO@@@std@@PAX@std@@@1@QAPAU?$_Tree_node@U?$pair@$$CBEU_BUFF_TYPE4_INFO@@@std@@PAX@1@@Z 00599ab0 f i Unit.obj
 0002:00039ae0       ??$destroy@PAU?$_Tree_node@U?$pair@$$CBEU_BUFF_TYPE9_INFO@@@std@@PAX@std@@@?$_Default_allocator_traits@V?$allocator@U?$_Tree_node@U?$pair@$$CBEU_BUFF_TYPE9_INFO@@@std@@PAX@std@@@std@@@std@@SAXAAV?$allocator@U?$_Tree_node@U?$pair@$$CBEU_BUFF_TYPE9_INFO@@@std@@PAX@std@@@1@QAPAU?$_Tree_node@U?$pair@$$CBEU_BUFF_TYPE9_INFO@@@std@@PAX@1@@Z 00599ae0 f i Unit.obj
 0002:00039b10       ??$destroy@PAU?$_Tree_node@U?$pair@$$CBEV?$map@EFU?$less@E@std@@V?$allocator@U?$pair@$$CBEF@std@@@2@@std@@@std@@PAX@std@@@?$_Default_allocator_traits@V?$allocator@U?$_Tree_node@U?$pair@$$CBEV?$map@EFU?$less@E@std@@V?$allocator@U?$pair@$$CBEF@std@@@2@@std@@@std@@PAX@std@@@std@@@std@@SAXAAV?$allocator@U?$_Tree_node@U?$pair@$$CBEV?$map@EFU?$less@E@std@@V?$allocator@U?$pair@$$CBEF@std@@@2@@std@@@std@@PAX@std@@@1@QAPAU?$_Tree_node@U?$pair@$$CBEV?$map@EFU?$less@E@std@@V?$allocator@U?$pair@$$CBEF@std@@@2@@std@@@std@@PAX@1@@Z 00599b10 f i Unit.obj
 0002:00039b40       ??$destroy@U?$pair@$$CBEF@std@@@?$_Default_allocator_traits@V?$allocator@U?$_Tree_node@U?$pair@$$CBEF@std@@PAX@std@@@std@@@std@@SAXAAV?$allocator@U?$_Tree_node@U?$pair@$$CBEF@std@@PAX@std@@@1@QAU?$pair@$$CBEF@1@@Z 00599b40 f i Unit.obj
 0002:00039b70       ??$destroy@U?$pair@$$CBEU_BUFF_TYPE9_INFO@@@std@@@?$_Default_allocator_traits@V?$allocator@U?$_Tree_node@U?$pair@$$CBEU_BUFF_TYPE9_INFO@@@std@@PAX@std@@@std@@@std@@SAXAAV?$allocator@U?$_Tree_node@U?$pair@$$CBEU_BUFF_TYPE9_INFO@@@std@@PAX@std@@@1@QAU?$pair@$$CBEU_BUFF_TYPE9_INFO@@@1@@Z 00599b70 f i Unit.obj
 0002:00039ba0       ??$destroy@U?$pair@$$CBEV?$map@EFU?$less@E@std@@V?$allocator@U?$pair@$$CBEF@std@@@2@@std@@@std@@@?$_Default_allocator_traits@V?$allocator@U?$_Tree_node@U?$pair@$$CBEV?$map@EFU?$less@E@std@@V?$allocator@U?$pair@$$CBEF@std@@@2@@std@@@std@@PAX@std@@@std@@@std@@SAXAAV?$allocator@U?$_Tree_node@U?$pair@$$CBEV?$map@EFU?$less@E@std@@V?$allocator@U?$pair@$$CBEF@std@@@2@@std@@@std@@PAX@std@@@1@QAU?$pair@$$CBEV?$map@EFU?$less@E@std@@V?$allocator@U?$pair@$$CBEF@std@@@2@@std@@@1@@Z 00599ba0 f i Unit.obj
 0002:00039bf0       ??$emplace@U?$pair@EU_BUFF_TYPE4_INFO@@@std@@@?$_Tree@V?$_Tmap_traits@EU_BUFF_TYPE4_INFO@@U?$less@E@std@@V?$allocator@U?$pair@$$CBEU_BUFF_TYPE4_INFO@@@std@@@3@$0A@@std@@@std@@QAE?AU?$pair@V?$_Tree_iterator@V?$_Tree_val@U?$_Tree_simple_types@U?$pair@$$CBEU_BUFF_TYPE4_INFO@@@std@@@std@@@std@@@std@@_N@1@$$QAU?$pair@EU_BUFF_TYPE4_INFO@@@1@@Z 00599bf0 f i Unit.obj
 0002:00039ca0       ??$forward@AAE@std@@YAAAEAAE@Z 00599ca0 f i Unit.obj
 0002:00039ce0       ??$forward@AAPAU?$_Tree_node@U?$pair@$$CBEU_BUFF_TYPE4_INFO@@@std@@PAX@std@@@std@@YAAAPAU?$_Tree_node@U?$pair@$$CBEU_BUFF_TYPE4_INFO@@@std@@PAX@0@AAPAU10@@Z 00599ce0 f i Unit.obj
 0002:00039d20       ??$forward@AAPAU?$_Tree_node@U?$pair@$$CBEU_BUFF_TYPE9_INFO@@@std@@PAX@std@@@std@@YAAAPAU?$_Tree_node@U?$pair@$$CBEU_BUFF_TYPE9_INFO@@@std@@PAX@0@AAPAU10@@Z 00599d20 f i Unit.obj
 0002:00039d60       ??$forward@AAPAU?$_Tree_node@U?$pair@$$CBEV?$map@EFU?$less@E@std@@V?$allocator@U?$pair@$$CBEF@std@@@2@@std@@@std@@PAX@std@@@std@@YAAAPAU?$_Tree_node@U?$pair@$$CBEV?$map@EFU?$less@E@std@@V?$allocator@U?$pair@$$CBEF@std@@@2@@std@@@std@@PAX@0@AAPAU10@@Z 00599d60 f i Unit.obj
 0002:00039da0       ??$forward@AAU?$pair@$$CBEU_BUFF_TYPE4_INFO@@@std@@@std@@YAAAU?$pair@$$CBEU_BUFF_TYPE4_INFO@@@0@AAU10@@Z 00599da0 f i Unit.obj
 0002:00039de0       ??$forward@AAU_BUFF_TYPE4_INFO@@@std@@YAAAU_BUFF_TYPE4_INFO@@AAU1@@Z 00599de0 f i Unit.obj
 0002:00039e20       ??$forward@AAV?$_Tree_iterator@V?$_Tree_val@U?$_Tree_simple_types@U?$pair@$$CBEU_BUFF_TYPE4_INFO@@@std@@@std@@@std@@@std@@@std@@YAAAV?$_Tree_iterator@V?$_Tree_val@U?$_Tree_simple_types@U?$pair@$$CBEU_BUFF_TYPE4_INFO@@@std@@@std@@@std@@@0@AAV10@@Z 00599e20 f i Unit.obj
 0002:00039e60       ??$forward@ABU?$less@E@std@@@std@@YAABU?$less@E@0@ABU10@@Z 00599e60 f i Unit.obj
 0002:00039ea0       ??$forward@E@std@@YA$$QAEAAE@Z 00599ea0 f i Unit.obj
 0002:00039ee0       ??$forward@U?$pair@EU_BUFF_TYPE4_INFO@@@std@@@std@@YA$$QAU?$pair@EU_BUFF_TYPE4_INFO@@@0@AAU10@@Z 00599ee0 f i Unit.obj
 0002:00039f20       ??$forward@U_BUFF_TYPE4_INFO@@@std@@YA$$QAU_BUFF_TYPE4_INFO@@AAU1@@Z 00599f20 f i Unit.obj
 0002:00039f60       ??$forward@U_One_then_variadic_args_t@std@@@std@@YA$$QAU_One_then_variadic_args_t@0@AAU10@@Z 00599f60 f i Unit.obj
 0002:00039fa0       ??$forward@U_Zero_then_variadic_args_t@std@@@std@@YA$$QAU_Zero_then_variadic_args_t@0@AAU10@@Z 00599fa0 f i Unit.obj
 0002:00039fe0       ??$forward@V?$_Tree_iterator@V?$_Tree_val@U?$_Tree_simple_types@U?$pair@$$CBEU_BUFF_TYPE4_INFO@@@std@@@std@@@std@@@std@@@std@@YA$$QAV?$_Tree_iterator@V?$_Tree_val@U?$_Tree_simple_types@U?$pair@$$CBEU_BUFF_TYPE4_INFO@@@std@@@std@@@std@@@0@AAV10@@Z 00599fe0 f i Unit.obj
 0002:0003a020       ??$forward@V?$allocator@U?$_Tree_node@U?$pair@$$CBEU_BUFF_TYPE4_INFO@@@std@@PAX@std@@@std@@@std@@YA$$QAV?$allocator@U?$_Tree_node@U?$pair@$$CBEU_BUFF_TYPE4_INFO@@@std@@PAX@std@@@0@AAV10@@Z 0059a020 f i Unit.obj
 0002:0003a060       ??$forward@_N@std@@YA$$QA_NAA_N@Z 0059a060 f i Unit.obj
 0002:0003a0a0       ??$insert@U?$pair@EU_BUFF_TYPE4_INFO@@@std@@X@?$map@EU_BUFF_TYPE4_INFO@@U?$less@E@std@@V?$allocator@U?$pair@$$CBEU_BUFF_TYPE4_INFO@@@std@@@3@@std@@QAE?AU?$pair@V?$_Tree_iterator@V?$_Tree_val@U?$_Tree_simple_types@U?$pair@$$CBEU_BUFF_TYPE4_INFO@@@std@@@std@@@std@@@std@@_N@1@$$QAU?$pair@EU_BUFF_TYPE4_INFO@@@1@@Z 0059a0a0 f i Unit.obj
 0002:0003a130       ??$make_pair@AAEAAU_BUFF_TYPE4_INFO@@@std@@YA?AU?$pair@EU_BUFF_TYPE4_INFO@@@0@AAEAAU_BUFF_TYPE4_INFO@@@Z 0059a130 f i Unit.obj
 0002:0003a1f0       ??0?$_Tree@V?$_Tmap_traits@EU_BUFF_TYPE4_INFO@@U?$less@E@std@@V?$allocator@U?$pair@$$CBEU_BUFF_TYPE4_INFO@@@std@@@3@$0A@@std@@@std@@QAE@ABU?$less@E@1@@Z 0059a1f0 f i Unit.obj
 0002:0003a250       ??0?$_Tree@V?$_Tmap_traits@EU_BUFF_TYPE9_INFO@@U?$less@E@std@@V?$allocator@U?$pair@$$CBEU_BUFF_TYPE9_INFO@@@std@@@3@$0A@@std@@@std@@QAE@ABU?$less@E@1@@Z 0059a250 f i Unit.obj
 0002:0003a2b0       ??0?$_Tree@V?$_Tmap_traits@EV?$map@EFU?$less@E@std@@V?$allocator@U?$pair@$$CBEF@std@@@2@@std@@U?$less@E@2@V?$allocator@U?$pair@$$CBEV?$map@EFU?$less@E@std@@V?$allocator@U?$pair@$$CBEF@std@@@2@@std@@@std@@@2@$0A@@std@@@std@@QAE@ABU?$less@E@1@@Z 0059a2b0 f i Unit.obj
 0002:0003a310       ??0?$_Tree_comp_alloc@V?$_Tmap_traits@EU_BUFF_TYPE4_INFO@@U?$less@E@std@@V?$allocator@U?$pair@$$CBEU_BUFF_TYPE4_INFO@@@std@@@3@$0A@@std@@@std@@QAE@ABU?$less@E@1@@Z 0059a310 f i Unit.obj
 0002:0003a3d0       ??0?$_Tree_comp_alloc@V?$_Tmap_traits@EU_BUFF_TYPE9_INFO@@U?$less@E@std@@V?$allocator@U?$pair@$$CBEU_BUFF_TYPE9_INFO@@@std@@@3@$0A@@std@@@std@@QAE@ABU?$less@E@1@@Z 0059a3d0 f i Unit.obj
 0002:0003a490       ??0?$_Tree_comp_alloc@V?$_Tmap_traits@EV?$map@EFU?$less@E@std@@V?$allocator@U?$pair@$$CBEF@std@@@2@@std@@U?$less@E@2@V?$allocator@U?$pair@$$CBEV?$map@EFU?$less@E@std@@V?$allocator@U?$pair@$$CBEF@std@@@2@@std@@@std@@@2@$0A@@std@@@std@@QAE@ABU?$less@E@1@@Z 0059a490 f i Unit.obj
 0002:0003a550       ??0?$_Tree_const_iterator@V?$_Tree_val@U?$_Tree_simple_types@U?$pair@$$CBEF@std@@@std@@@std@@@std@@QAE@$$QAV01@@Z 0059a550 f i Unit.obj
 0002:0003a5b0       ??0?$_Tree_const_iterator@V?$_Tree_val@U?$_Tree_simple_types@U?$pair@$$CBEF@std@@@std@@@std@@@std@@QAE@ABV01@@Z 0059a5b0 f i Unit.obj
 0002:0003a610       ??0?$_Tree_const_iterator@V?$_Tree_val@U?$_Tree_simple_types@U?$pair@$$CBEF@std@@@std@@@std@@@std@@QAE@PAU?$_Tree_node@U?$pair@$$CBEF@std@@PAX@1@PBV?$_Tree_val@U?$_Tree_simple_types@U?$pair@$$CBEF@std@@@std@@@1@@Z 0059a610 f i Unit.obj
 0002:0003a670       ??0?$_Tree_const_iterator@V?$_Tree_val@U?$_Tree_simple_types@U?$pair@$$CBEU_BUFF_TYPE9_INFO@@@std@@@std@@@std@@@std@@QAE@$$QAV01@@Z 0059a670 f i Unit.obj
 0002:0003a6d0       ??0?$_Tree_const_iterator@V?$_Tree_val@U?$_Tree_simple_types@U?$pair@$$CBEU_BUFF_TYPE9_INFO@@@std@@@std@@@std@@@std@@QAE@ABV01@@Z 0059a6d0 f i Unit.obj
 0002:0003a730       ??0?$_Tree_const_iterator@V?$_Tree_val@U?$_Tree_simple_types@U?$pair@$$CBEU_BUFF_TYPE9_INFO@@@std@@@std@@@std@@@std@@QAE@PAU?$_Tree_node@U?$pair@$$CBEU_BUFF_TYPE9_INFO@@@std@@PAX@1@PBV?$_Tree_val@U?$_Tree_simple_types@U?$pair@$$CBEU_BUFF_TYPE9_INFO@@@std@@@std@@@1@@Z 0059a730 f i Unit.obj
 0002:0003a790       ??0?$_Tree_const_iterator@V?$_Tree_val@U?$_Tree_simple_types@U?$pair@$$CBEV?$map@EFU?$less@E@std@@V?$allocator@U?$pair@$$CBEF@std@@@2@@std@@@std@@@std@@@std@@@std@@QAE@$$QAV01@@Z 0059a790 f i Unit.obj
 0002:0003a7f0       ??0?$_Tree_const_iterator@V?$_Tree_val@U?$_Tree_simple_types@U?$pair@$$CBEV?$map@EFU?$less@E@std@@V?$allocator@U?$pair@$$CBEF@std@@@2@@std@@@std@@@std@@@std@@@std@@QAE@ABV01@@Z 0059a7f0 f i Unit.obj
 0002:0003a850       ??0?$_Tree_const_iterator@V?$_Tree_val@U?$_Tree_simple_types@U?$pair@$$CBEV?$map@EFU?$less@E@std@@V?$allocator@U?$pair@$$CBEF@std@@@2@@std@@@std@@@std@@@std@@@std@@QAE@PAU?$_Tree_node@U?$pair@$$CBEV?$map@EFU?$less@E@std@@V?$allocator@U?$pair@$$CBEF@std@@@2@@std@@@std@@PAX@1@PBV?$_Tree_val@U?$_Tree_simple_types@U?$pair@$$CBEV?$map@EFU?$less@E@std@@V?$allocator@U?$pair@$$CBEF@std@@@2@@std@@@std@@@std@@@1@@Z 0059a850 f i Unit.obj
 0002:0003a8b0       ??0?$_Tree_const_iterator@V?$_Tree_val@U?$_Tree_simple_types@U?$pair@$$CBIPAU_MAGIC_TYPE1@@@std@@@std@@@std@@@std@@QAE@$$QAV01@@Z 0059a8b0 f i Unit.obj
 0002:0003a910       ??0?$_Tree_const_iterator@V?$_Tree_val@U?$_Tree_simple_types@U?$pair@$$CBIPAU_MAGIC_TYPE1@@@std@@@std@@@std@@@std@@QAE@ABV01@@Z 0059a910 f i Unit.obj
 0002:0003a970       ??0?$_Tree_const_iterator@V?$_Tree_val@U?$_Tree_simple_types@U?$pair@$$CBIPAU_MAGIC_TYPE1@@@std@@@std@@@std@@@std@@QAE@PAU?$_Tree_node@U?$pair@$$CBIPAU_MAGIC_TYPE1@@@std@@PAX@1@PBV?$_Tree_val@U?$_Tree_simple_types@U?$pair@$$CBIPAU_MAGIC_TYPE1@@@std@@@std@@@1@@Z 0059a970 f i Unit.obj
 0002:0003a9d0       ??0?$_Tree_const_iterator@V?$_Tree_val@U?$_Tree_simple_types@U?$pair@$$CBIPAU_MAGIC_TYPE2@@@std@@@std@@@std@@@std@@QAE@$$QAV01@@Z 0059a9d0 f i Unit.obj
 0002:0003aa30       ??0?$_Tree_const_iterator@V?$_Tree_val@U?$_Tree_simple_types@U?$pair@$$CBIPAU_MAGIC_TYPE2@@@std@@@std@@@std@@@std@@QAE@ABV01@@Z 0059aa30 f i Unit.obj
 0002:0003aa90       ??0?$_Tree_const_iterator@V?$_Tree_val@U?$_Tree_simple_types@U?$pair@$$CBIPAU_MAGIC_TYPE2@@@std@@@std@@@std@@@std@@QAE@PAU?$_Tree_node@U?$pair@$$CBIPAU_MAGIC_TYPE2@@@std@@PAX@1@PBV?$_Tree_val@U?$_Tree_simple_types@U?$pair@$$CBIPAU_MAGIC_TYPE2@@@std@@@std@@@1@@Z 0059aa90 f i Unit.obj
 0002:0003aaf0       ??0?$_Tree_iterator@V?$_Tree_val@U?$_Tree_simple_types@U?$pair@$$CBEF@std@@@std@@@std@@@std@@QAE@$$QAV01@@Z 0059aaf0 f i Unit.obj
 0002:0003ab50       ??0?$_Tree_iterator@V?$_Tree_val@U?$_Tree_simple_types@U?$pair@$$CBEF@std@@@std@@@std@@@std@@QAE@ABV01@@Z 0059ab50 f i Unit.obj
 0002:0003abb0       ??0?$_Tree_iterator@V?$_Tree_val@U?$_Tree_simple_types@U?$pair@$$CBEF@std@@@std@@@std@@@std@@QAE@PAU?$_Tree_node@U?$pair@$$CBEF@std@@PAX@1@PBV?$_Tree_val@U?$_Tree_simple_types@U?$pair@$$CBEF@std@@@std@@@1@@Z 0059abb0 f i Unit.obj
 0002:0003ac10       ??0?$_Tree_iterator@V?$_Tree_val@U?$_Tree_simple_types@U?$pair@$$CBEU_BUFF_TYPE9_INFO@@@std@@@std@@@std@@@std@@QAE@PAU?$_Tree_node@U?$pair@$$CBEU_BUFF_TYPE9_INFO@@@std@@PAX@1@PBV?$_Tree_val@U?$_Tree_simple_types@U?$pair@$$CBEU_BUFF_TYPE9_INFO@@@std@@@std@@@1@@Z 0059ac10 f i Unit.obj
 0002:0003ac70       ??0?$_Tree_iterator@V?$_Tree_val@U?$_Tree_simple_types@U?$pair@$$CBEV?$map@EFU?$less@E@std@@V?$allocator@U?$pair@$$CBEF@std@@@2@@std@@@std@@@std@@@std@@@std@@QAE@$$QAV01@@Z 0059ac70 f i Unit.obj
 0002:0003acd0       ??0?$_Tree_iterator@V?$_Tree_val@U?$_Tree_simple_types@U?$pair@$$CBEV?$map@EFU?$less@E@std@@V?$allocator@U?$pair@$$CBEF@std@@@2@@std@@@std@@@std@@@std@@@std@@QAE@ABV01@@Z 0059acd0 f i Unit.obj
 0002:0003ad30       ??0?$_Tree_iterator@V?$_Tree_val@U?$_Tree_simple_types@U?$pair@$$CBEV?$map@EFU?$less@E@std@@V?$allocator@U?$pair@$$CBEF@std@@@2@@std@@@std@@@std@@@std@@@std@@QAE@PAU?$_Tree_node@U?$pair@$$CBEV?$map@EFU?$less@E@std@@V?$allocator@U?$pair@$$CBEF@std@@@2@@std@@@std@@PAX@1@PBV?$_Tree_val@U?$_Tree_simple_types@U?$pair@$$CBEV?$map@EFU?$less@E@std@@V?$allocator@U?$pair@$$CBEF@std@@@2@@std@@@std@@@std@@@1@@Z 0059ad30 f i Unit.obj
 0002:0003ad90       ??0?$_Tree_iterator@V?$_Tree_val@U?$_Tree_simple_types@U?$pair@$$CBIPAU_MAGIC_TYPE1@@@std@@@std@@@std@@@std@@QAE@$$QAV01@@Z 0059ad90 f i Unit.obj
 0002:0003adf0       ??0?$_Tree_iterator@V?$_Tree_val@U?$_Tree_simple_types@U?$pair@$$CBIPAU_MAGIC_TYPE1@@@std@@@std@@@std@@@std@@QAE@ABV01@@Z 0059adf0 f i Unit.obj
 0002:0003ae50       ??0?$_Tree_iterator@V?$_Tree_val@U?$_Tree_simple_types@U?$pair@$$CBIPAU_MAGIC_TYPE1@@@std@@@std@@@std@@@std@@QAE@PAU?$_Tree_node@U?$pair@$$CBIPAU_MAGIC_TYPE1@@@std@@PAX@1@PBV?$_Tree_val@U?$_Tree_simple_types@U?$pair@$$CBIPAU_MAGIC_TYPE1@@@std@@@std@@@1@@Z 0059ae50 f i Unit.obj
 0002:0003aeb0       ??0?$_Tree_iterator@V?$_Tree_val@U?$_Tree_simple_types@U?$pair@$$CBIPAU_MAGIC_TYPE2@@@std@@@std@@@std@@@std@@QAE@$$QAV01@@Z 0059aeb0 f i Unit.obj
 0002:0003af10       ??0?$_Tree_iterator@V?$_Tree_val@U?$_Tree_simple_types@U?$pair@$$CBIPAU_MAGIC_TYPE2@@@std@@@std@@@std@@@std@@QAE@ABV01@@Z 0059af10 f i Unit.obj
 0002:0003af70       ??0?$_Tree_iterator@V?$_Tree_val@U?$_Tree_simple_types@U?$pair@$$CBIPAU_MAGIC_TYPE2@@@std@@@std@@@std@@@std@@QAE@PAU?$_Tree_node@U?$pair@$$CBIPAU_MAGIC_TYPE2@@@std@@PAX@1@PBV?$_Tree_val@U?$_Tree_simple_types@U?$pair@$$CBIPAU_MAGIC_TYPE2@@@std@@@std@@@1@@Z 0059af70 f i Unit.obj
 0002:0003afd0       ??0?$_Tree_unchecked_const_iterator@V?$_Tree_val@U?$_Tree_simple_types@U?$pair@$$CBEF@std@@@std@@@std@@U_Iterator_base12@2@@std@@QAE@$$QAV01@@Z 0059afd0 f i Unit.obj
 0002:0003b040       ??0?$_Tree_unchecked_const_iterator@V?$_Tree_val@U?$_Tree_simple_types@U?$pair@$$CBEF@std@@@std@@@std@@U_Iterator_base12@2@@std@@QAE@ABV01@@Z 0059b040 f i Unit.obj
 0002:0003b0b0       ??0?$_Tree_unchecked_const_iterator@V?$_Tree_val@U?$_Tree_simple_types@U?$pair@$$CBEF@std@@@std@@@std@@U_Iterator_base12@2@@std@@QAE@PAU?$_Tree_node@U?$pair@$$CBEF@std@@PAX@1@PBV?$_Tree_val@U?$_Tree_simple_types@U?$pair@$$CBEF@std@@@std@@@1@@Z 0059b0b0 f i Unit.obj
 0002:0003b120       ??0?$_Tree_unchecked_const_iterator@V?$_Tree_val@U?$_Tree_simple_types@U?$pair@$$CBEU_BUFF_TYPE9_INFO@@@std@@@std@@@std@@U_Iterator_base12@2@@std@@QAE@$$QAV01@@Z 0059b120 f i Unit.obj
 0002:0003b190       ??0?$_Tree_unchecked_const_iterator@V?$_Tree_val@U?$_Tree_simple_types@U?$pair@$$CBEU_BUFF_TYPE9_INFO@@@std@@@std@@@std@@U_Iterator_base12@2@@std@@QAE@ABV01@@Z 0059b190 f i Unit.obj
 0002:0003b200       ??0?$_Tree_unchecked_const_iterator@V?$_Tree_val@U?$_Tree_simple_types@U?$pair@$$CBEU_BUFF_TYPE9_INFO@@@std@@@std@@@std@@U_Iterator_base12@2@@std@@QAE@PAU?$_Tree_node@U?$pair@$$CBEU_BUFF_TYPE9_INFO@@@std@@PAX@1@PBV?$_Tree_val@U?$_Tree_simple_types@U?$pair@$$CBEU_BUFF_TYPE9_INFO@@@std@@@std@@@1@@Z 0059b200 f i Unit.obj
 0002:0003b270       ??0?$_Tree_unchecked_const_iterator@V?$_Tree_val@U?$_Tree_simple_types@U?$pair@$$CBEV?$map@EFU?$less@E@std@@V?$allocator@U?$pair@$$CBEF@std@@@2@@std@@@std@@@std@@@std@@U_Iterator_base12@2@@std@@QAE@$$QAV01@@Z 0059b270 f i Unit.obj
 0002:0003b2e0       ??0?$_Tree_unchecked_const_iterator@V?$_Tree_val@U?$_Tree_simple_types@U?$pair@$$CBEV?$map@EFU?$less@E@std@@V?$allocator@U?$pair@$$CBEF@std@@@2@@std@@@std@@@std@@@std@@U_Iterator_base12@2@@std@@QAE@ABV01@@Z 0059b2e0 f i Unit.obj
 0002:0003b350       ??0?$_Tree_unchecked_const_iterator@V?$_Tree_val@U?$_Tree_simple_types@U?$pair@$$CBEV?$map@EFU?$less@E@std@@V?$allocator@U?$pair@$$CBEF@std@@@2@@std@@@std@@@std@@@std@@U_Iterator_base12@2@@std@@QAE@PAU?$_Tree_node@U?$pair@$$CBEV?$map@EFU?$less@E@std@@V?$allocator@U?$pair@$$CBEF@std@@@2@@std@@@std@@PAX@1@PBV?$_Tree_val@U?$_Tree_simple_types@U?$pair@$$CBEV?$map@EFU?$less@E@std@@V?$allocator@U?$pair@$$CBEF@std@@@2@@std@@@std@@@std@@@1@@Z 0059b350 f i Unit.obj
 0002:0003b3c0       ??0?$_Tree_unchecked_const_iterator@V?$_Tree_val@U?$_Tree_simple_types@U?$pair@$$CBIPAU_MAGIC_TYPE1@@@std@@@std@@@std@@U_Iterator_base12@2@@std@@QAE@$$QAV01@@Z 0059b3c0 f i Unit.obj
 0002:0003b430       ??0?$_Tree_unchecked_const_iterator@V?$_Tree_val@U?$_Tree_simple_types@U?$pair@$$CBIPAU_MAGIC_TYPE1@@@std@@@std@@@std@@U_Iterator_base12@2@@std@@QAE@ABV01@@Z 0059b430 f i Unit.obj
 0002:0003b4a0       ??0?$_Tree_unchecked_const_iterator@V?$_Tree_val@U?$_Tree_simple_types@U?$pair@$$CBIPAU_MAGIC_TYPE1@@@std@@@std@@@std@@U_Iterator_base12@2@@std@@QAE@PAU?$_Tree_node@U?$pair@$$CBIPAU_MAGIC_TYPE1@@@std@@PAX@1@PBV?$_Tree_val@U?$_Tree_simple_types@U?$pair@$$CBIPAU_MAGIC_TYPE1@@@std@@@std@@@1@@Z 0059b4a0 f i Unit.obj
 0002:0003b510       ??0?$_Tree_unchecked_const_iterator@V?$_Tree_val@U?$_Tree_simple_types@U?$pair@$$CBIPAU_MAGIC_TYPE2@@@std@@@std@@@std@@U_Iterator_base12@2@@std@@QAE@$$QAV01@@Z 0059b510 f i Unit.obj
 0002:0003b580       ??0?$_Tree_unchecked_const_iterator@V?$_Tree_val@U?$_Tree_simple_types@U?$pair@$$CBIPAU_MAGIC_TYPE2@@@std@@@std@@@std@@U_Iterator_base12@2@@std@@QAE@ABV01@@Z 0059b580 f i Unit.obj
 0002:0003b5f0       ??0?$_Tree_unchecked_const_iterator@V?$_Tree_val@U?$_Tree_simple_types@U?$pair@$$CBIPAU_MAGIC_TYPE2@@@std@@@std@@@std@@U_Iterator_base12@2@@std@@QAE@PAU?$_Tree_node@U?$pair@$$CBIPAU_MAGIC_TYPE2@@@std@@PAX@1@PBV?$_Tree_val@U?$_Tree_simple_types@U?$pair@$$CBIPAU_MAGIC_TYPE2@@@std@@@std@@@1@@Z 0059b5f0 f i Unit.obj
 0002:0003b660       ??0?$_Tree_val@U?$_Tree_simple_types@U?$pair@$$CBEU_BUFF_TYPE4_INFO@@@std@@@std@@@std@@QAE@XZ 0059b660 f i Unit.obj
 0002:0003b6d0       ??0?$_Tree_val@U?$_Tree_simple_types@U?$pair@$$CBEU_BUFF_TYPE9_INFO@@@std@@@std@@@std@@QAE@XZ 0059b6d0 f i Unit.obj
 0002:0003b740       ??0?$_Tree_val@U?$_Tree_simple_types@U?$pair@$$CBEV?$map@EFU?$less@E@std@@V?$allocator@U?$pair@$$CBEF@std@@@2@@std@@@std@@@std@@@std@@QAE@XZ 0059b740 f i Unit.obj
 0002:0003b7b0       ??0?$allocator@U?$_Tree_node@U?$pair@$$CBEU_BUFF_TYPE4_INFO@@@std@@PAX@std@@@std@@QAE@XZ 0059b7b0 f i Unit.obj
 0002:0003b7f0       ??0?$allocator@U?$_Tree_node@U?$pair@$$CBEU_BUFF_TYPE9_INFO@@@std@@PAX@std@@@std@@QAE@XZ 0059b7f0 f i Unit.obj
 0002:0003b830       ??0?$allocator@U?$_Tree_node@U?$pair@$$CBEV?$map@EFU?$less@E@std@@V?$allocator@U?$pair@$$CBEF@std@@@2@@std@@@std@@PAX@std@@@std@@QAE@XZ 0059b830 f i Unit.obj
 0002:0003b870       ??0?$map@EU_BUFF_TYPE4_INFO@@U?$less@E@std@@V?$allocator@U?$pair@$$CBEU_BUFF_TYPE4_INFO@@@std@@@3@@std@@QAE@ABV01@@Z 0059b870 f i Unit.obj
 0002:0003b8f0       ??0?$map@EU_BUFF_TYPE4_INFO@@U?$less@E@std@@V?$allocator@U?$pair@$$CBEU_BUFF_TYPE4_INFO@@@std@@@3@@std@@QAE@XZ 0059b8f0 f i Unit.obj
 0002:0003b950       ??0?$map@EU_BUFF_TYPE9_INFO@@U?$less@E@std@@V?$allocator@U?$pair@$$CBEU_BUFF_TYPE9_INFO@@@std@@@3@@std@@QAE@XZ 0059b950 f i Unit.obj
 0002:0003b9b0       ??0?$map@EV?$map@EFU?$less@E@std@@V?$allocator@U?$pair@$$CBEF@std@@@2@@std@@U?$less@E@2@V?$allocator@U?$pair@$$CBEV?$map@EFU?$less@E@std@@V?$allocator@U?$pair@$$CBEF@std@@@2@@std@@@std@@@2@@std@@QAE@XZ 0059b9b0 f i Unit.obj
 0002:0003ba10       ??0ByteBuffer@@QAE@I@Z     0059ba10 f i Unit.obj
 0002:0003bb20       ??0MagicType3@Unit@@QAE@XZ 0059bb20 f i Unit.obj
 0002:0003bb80       ??0Packet@@QAE@E@Z         0059bb80 f i Unit.obj
 0002:0003bc00       ??0Unit@@QAE@W4UnitType@@@Z 0059bc00 f   Unit.obj
 0002:0003bd80       ??0_Mutex_base@std@@QAE@H@Z 0059bd80 f i Unit.obj
 0002:0003bdf0       ??0recursive_mutex@std@@QAE@XZ 0059bdf0 f i Unit.obj
 0002:0003be50       ??1?$_Compressed_pair@U?$less@E@std@@V?$_Compressed_pair@V?$allocator@U?$_Tree_node@U?$pair@$$CBEF@std@@PAX@std@@@std@@V?$_Tree_val@U?$_Tree_simple_types@U?$pair@$$CBEF@std@@@std@@@2@$00@2@$00@std@@QAE@XZ 0059be50 f i Unit.obj
 0002:0003bea0       ??1?$_Compressed_pair@U?$less@E@std@@V?$_Compressed_pair@V?$allocator@U?$_Tree_node@U?$pair@$$CBEU_BUFF_TYPE4_INFO@@@std@@PAX@std@@@std@@V?$_Tree_val@U?$_Tree_simple_types@U?$pair@$$CBEU_BUFF_TYPE4_INFO@@@std@@@std@@@2@$00@2@$00@std@@QAE@XZ 0059bea0 f i Unit.obj
 0002:0003bef0       ??1?$_Compressed_pair@U?$less@E@std@@V?$_Compressed_pair@V?$allocator@U?$_Tree_node@U?$pair@$$CBEU_BUFF_TYPE9_INFO@@@std@@PAX@std@@@std@@V?$_Tree_val@U?$_Tree_simple_types@U?$pair@$$CBEU_BUFF_TYPE9_INFO@@@std@@@std@@@2@$00@2@$00@std@@QAE@XZ 0059bef0 f i Unit.obj
 0002:0003bf40       ??1?$_Compressed_pair@U?$less@E@std@@V?$_Compressed_pair@V?$allocator@U?$_Tree_node@U?$pair@$$CBEV?$map@EFU?$less@E@std@@V?$allocator@U?$pair@$$CBEF@std@@@2@@std@@@std@@PAX@std@@@std@@V?$_Tree_val@U?$_Tree_simple_types@U?$pair@$$CBEV?$map@EFU?$less@E@std@@V?$allocator@U?$pair@$$CBEF@std@@@2@@std@@@std@@@std@@@2@$00@2@$00@std@@QAE@XZ 0059bf40 f i Unit.obj
 0002:0003bf90       ??1?$_Compressed_pair@V?$allocator@U?$_Tree_node@U?$pair@$$CBEF@std@@PAX@std@@@std@@V?$_Tree_val@U?$_Tree_simple_types@U?$pair@$$CBEF@std@@@std@@@2@$00@std@@QAE@XZ 0059bf90 f i Unit.obj
 0002:0003bfe0       ??1?$_Compressed_pair@V?$allocator@U?$_Tree_node@U?$pair@$$CBEU_BUFF_TYPE4_INFO@@@std@@PAX@std@@@std@@V?$_Tree_val@U?$_Tree_simple_types@U?$pair@$$CBEU_BUFF_TYPE4_INFO@@@std@@@std@@@2@$00@std@@QAE@XZ 0059bfe0 f i Unit.obj
 0002:0003c030       ??1?$_Compressed_pair@V?$allocator@U?$_Tree_node@U?$pair@$$CBEU_BUFF_TYPE9_INFO@@@std@@PAX@std@@@std@@V?$_Tree_val@U?$_Tree_simple_types@U?$pair@$$CBEU_BUFF_TYPE9_INFO@@@std@@@std@@@2@$00@std@@QAE@XZ 0059c030 f i Unit.obj
 0002:0003c080       ??1?$_Compressed_pair@V?$allocator@U?$_Tree_node@U?$pair@$$CBEV?$map@EFU?$less@E@std@@V?$allocator@U?$pair@$$CBEF@std@@@2@@std@@@std@@PAX@std@@@std@@V?$_Tree_val@U?$_Tree_simple_types@U?$pair@$$CBEV?$map@EFU?$less@E@std@@V?$allocator@U?$pair@$$CBEF@std@@@2@@std@@@std@@@std@@@2@$00@std@@QAE@XZ 0059c080 f i Unit.obj
 0002:0003c0d0       ??1?$_Tree@V?$_Tmap_traits@EFU?$less@E@std@@V?$allocator@U?$pair@$$CBEF@std@@@2@$0A@@std@@@std@@QAE@XZ 0059c0d0 f i Unit.obj
 0002:0003c160       ??1?$_Tree@V?$_Tmap_traits@EU_BUFF_TYPE4_INFO@@U?$less@E@std@@V?$allocator@U?$pair@$$CBEU_BUFF_TYPE4_INFO@@@std@@@3@$0A@@std@@@std@@QAE@XZ 0059c160 f i Unit.obj
 0002:0003c1f0       ??1?$_Tree@V?$_Tmap_traits@EU_BUFF_TYPE9_INFO@@U?$less@E@std@@V?$allocator@U?$pair@$$CBEU_BUFF_TYPE9_INFO@@@std@@@3@$0A@@std@@@std@@QAE@XZ 0059c1f0 f i Unit.obj
 0002:0003c280       ??1?$_Tree@V?$_Tmap_traits@EV?$map@EFU?$less@E@std@@V?$allocator@U?$pair@$$CBEF@std@@@2@@std@@U?$less@E@2@V?$allocator@U?$pair@$$CBEV?$map@EFU?$less@E@std@@V?$allocator@U?$pair@$$CBEF@std@@@2@@std@@@std@@@2@$0A@@std@@@std@@QAE@XZ 0059c280 f i Unit.obj
 0002:0003c310       ??1?$_Tree_comp_alloc@V?$_Tmap_traits@EFU?$less@E@std@@V?$allocator@U?$pair@$$CBEF@std@@@2@$0A@@std@@@std@@QAE@XZ 0059c310 f i Unit.obj
 0002:0003c3c0       ??1?$_Tree_comp_alloc@V?$_Tmap_traits@EU_BUFF_TYPE4_INFO@@U?$less@E@std@@V?$allocator@U?$pair@$$CBEU_BUFF_TYPE4_INFO@@@std@@@3@$0A@@std@@@std@@QAE@XZ 0059c3c0 f i Unit.obj
 0002:0003c470       ??1?$_Tree_comp_alloc@V?$_Tmap_traits@EU_BUFF_TYPE9_INFO@@U?$less@E@std@@V?$allocator@U?$pair@$$CBEU_BUFF_TYPE9_INFO@@@std@@@3@$0A@@std@@@std@@QAE@XZ 0059c470 f i Unit.obj
 0002:0003c520       ??1?$_Tree_comp_alloc@V?$_Tmap_traits@EV?$map@EFU?$less@E@std@@V?$allocator@U?$pair@$$CBEF@std@@@2@@std@@U?$less@E@2@V?$allocator@U?$pair@$$CBEV?$map@EFU?$less@E@std@@V?$allocator@U?$pair@$$CBEF@std@@@2@@std@@@std@@@2@$0A@@std@@@std@@QAE@XZ 0059c520 f i Unit.obj
 0002:0003c5d0       ??1?$_Tree_const_iterator@V?$_Tree_val@U?$_Tree_simple_types@U?$pair@$$CBEF@std@@@std@@@std@@@std@@QAE@XZ 0059c5d0 f i Unit.obj
 0002:0003c620       ??1?$_Tree_const_iterator@V?$_Tree_val@U?$_Tree_simple_types@U?$pair@$$CBEU_BUFF_TYPE9_INFO@@@std@@@std@@@std@@@std@@QAE@XZ 0059c620 f i Unit.obj
 0002:0003c670       ??1?$_Tree_const_iterator@V?$_Tree_val@U?$_Tree_simple_types@U?$pair@$$CBEV?$map@EFU?$less@E@std@@V?$allocator@U?$pair@$$CBEF@std@@@2@@std@@@std@@@std@@@std@@@std@@QAE@XZ 0059c670 f i Unit.obj
 0002:0003c6c0       ??1?$_Tree_const_iterator@V?$_Tree_val@U?$_Tree_simple_types@U?$pair@$$CBIPAU_MAGIC_TYPE1@@@std@@@std@@@std@@@std@@QAE@XZ 0059c6c0 f i Unit.obj
 0002:0003c710       ??1?$_Tree_const_iterator@V?$_Tree_val@U?$_Tree_simple_types@U?$pair@$$CBIPAU_MAGIC_TYPE2@@@std@@@std@@@std@@@std@@QAE@XZ 0059c710 f i Unit.obj
 0002:0003c760       ??1?$_Tree_iterator@V?$_Tree_val@U?$_Tree_simple_types@U?$pair@$$CBEF@std@@@std@@@std@@@std@@QAE@XZ 0059c760 f i Unit.obj
 0002:0003c7b0       ??1?$_Tree_iterator@V?$_Tree_val@U?$_Tree_simple_types@U?$pair@$$CBEU_BUFF_TYPE9_INFO@@@std@@@std@@@std@@@std@@QAE@XZ 0059c7b0 f i Unit.obj
 0002:0003c800       ??1?$_Tree_iterator@V?$_Tree_val@U?$_Tree_simple_types@U?$pair@$$CBEV?$map@EFU?$less@E@std@@V?$allocator@U?$pair@$$CBEF@std@@@2@@std@@@std@@@std@@@std@@@std@@QAE@XZ 0059c800 f i Unit.obj
 0002:0003c850       ??1?$_Tree_iterator@V?$_Tree_val@U?$_Tree_simple_types@U?$pair@$$CBIPAU_MAGIC_TYPE1@@@std@@@std@@@std@@@std@@QAE@XZ 0059c850 f i Unit.obj
 0002:0003c8a0       ??1?$_Tree_iterator@V?$_Tree_val@U?$_Tree_simple_types@U?$pair@$$CBIPAU_MAGIC_TYPE2@@@std@@@std@@@std@@@std@@QAE@XZ 0059c8a0 f i Unit.obj
 0002:0003c8f0       ??1?$_Tree_unchecked_const_iterator@V?$_Tree_val@U?$_Tree_simple_types@U?$pair@$$CBEF@std@@@std@@@std@@U_Iterator_base12@2@@std@@QAE@XZ 0059c8f0 f i Unit.obj
 0002:0003c940       ??1?$_Tree_unchecked_const_iterator@V?$_Tree_val@U?$_Tree_simple_types@U?$pair@$$CBEU_BUFF_TYPE9_INFO@@@std@@@std@@@std@@U_Iterator_base12@2@@std@@QAE@XZ 0059c940 f i Unit.obj
 0002:0003c990       ??1?$_Tree_unchecked_const_iterator@V?$_Tree_val@U?$_Tree_simple_types@U?$pair@$$CBEV?$map@EFU?$less@E@std@@V?$allocator@U?$pair@$$CBEF@std@@@2@@std@@@std@@@std@@@std@@U_Iterator_base12@2@@std@@QAE@XZ 0059c990 f i Unit.obj
 0002:0003c9e0       ??1?$_Tree_unchecked_const_iterator@V?$_Tree_val@U?$_Tree_simple_types@U?$pair@$$CBIPAU_MAGIC_TYPE1@@@std@@@std@@@std@@U_Iterator_base12@2@@std@@QAE@XZ 0059c9e0 f i Unit.obj
 0002:0003ca30       ??1?$_Tree_unchecked_const_iterator@V?$_Tree_val@U?$_Tree_simple_types@U?$pair@$$CBIPAU_MAGIC_TYPE2@@@std@@@std@@@std@@U_Iterator_base12@2@@std@@QAE@XZ 0059ca30 f i Unit.obj
 0002:0003ca80       ??1?$_Tree_val@U?$_Tree_simple_types@U?$pair@$$CBEF@std@@@std@@@std@@QAE@XZ 0059ca80 f i Unit.obj
 0002:0003cad0       ??1?$_Tree_val@U?$_Tree_simple_types@U?$pair@$$CBEU_BUFF_TYPE4_INFO@@@std@@@std@@@std@@QAE@XZ 0059cad0 f i Unit.obj
 0002:0003cb20       ??1?$_Tree_val@U?$_Tree_simple_types@U?$pair@$$CBEU_BUFF_TYPE9_INFO@@@std@@@std@@@std@@QAE@XZ 0059cb20 f i Unit.obj
 0002:0003cb70       ??1?$_Tree_val@U?$_Tree_simple_types@U?$pair@$$CBEV?$map@EFU?$less@E@std@@V?$allocator@U?$pair@$$CBEF@std@@@2@@std@@@std@@@std@@@std@@QAE@XZ 0059cb70 f i Unit.obj
 0002:0003cbc0       ??1?$map@EFU?$less@E@std@@V?$allocator@U?$pair@$$CBEF@std@@@2@@std@@QAE@XZ 0059cbc0 f i Unit.obj
 0002:0003cc10       ??1?$map@EU_BUFF_TYPE4_INFO@@U?$less@E@std@@V?$allocator@U?$pair@$$CBEU_BUFF_TYPE4_INFO@@@std@@@3@@std@@QAE@XZ 0059cc10 f i Unit.obj
 0002:0003cc60       ??1?$map@EU_BUFF_TYPE9_INFO@@U?$less@E@std@@V?$allocator@U?$pair@$$CBEU_BUFF_TYPE9_INFO@@@std@@@3@@std@@QAE@XZ 0059cc60 f i Unit.obj
 0002:0003ccb0       ??1?$map@EV?$map@EFU?$less@E@std@@V?$allocator@U?$pair@$$CBEF@std@@@2@@std@@U?$less@E@2@V?$allocator@U?$pair@$$CBEV?$map@EFU?$less@E@std@@V?$allocator@U?$pair@$$CBEF@std@@@2@@std@@@std@@@2@@std@@QAE@XZ 0059ccb0 f i Unit.obj
 0002:0003cd00       ??1?$pair@$$CBEV?$map@EFU?$less@E@std@@V?$allocator@U?$pair@$$CBEF@std@@@2@@std@@@std@@QAE@XZ 0059cd00 f i Unit.obj
 0002:0003cd60       ??1?$pair@V?$_Tree_iterator@V?$_Tree_val@U?$_Tree_simple_types@U?$pair@$$CBEU_BUFF_TYPE4_INFO@@@std@@@std@@@std@@@std@@_N@std@@QAE@XZ 0059cd60 f i Unit.obj
 0002:0003cdb0       ??1ReferenceObject@@UAE@XZ 0059cdb0 f i Unit.obj
 0002:0003cdf0       ??1Unit@@UAE@XZ            0059cdf0 f i Unit.obj
 0002:0003cea0       ??1_Mutex_base@std@@QAE@XZ 0059cea0 f i Unit.obj
 0002:0003cf00       ??1recursive_mutex@std@@QAE@XZ 0059cf00 f i Unit.obj
 0002:0003cf50       ??6ByteBuffer@@QAEAAV0@F@Z 0059cf50 f i Unit.obj
 0002:0003cfb0       ??6ByteBuffer@@QAEAAV0@G@Z 0059cfb0 f i Unit.obj
 0002:0003d010       ??8?$_Tree_const_iterator@V?$_Tree_val@U?$_Tree_simple_types@U?$pair@$$CBEF@std@@@std@@@std@@@std@@QBE_NABV01@@Z 0059d010 f i Unit.obj
 0002:0003d0f0       ??8?$_Tree_const_iterator@V?$_Tree_val@U?$_Tree_simple_types@U?$pair@$$CBEU_BUFF_TYPE9_INFO@@@std@@@std@@@std@@@std@@QBE_NABV01@@Z 0059d0f0 f i Unit.obj
 0002:0003d1d0       ??8?$_Tree_const_iterator@V?$_Tree_val@U?$_Tree_simple_types@U?$pair@$$CBEV?$map@EFU?$less@E@std@@V?$allocator@U?$pair@$$CBEF@std@@@2@@std@@@std@@@std@@@std@@@std@@QBE_NABV01@@Z 0059d1d0 f i Unit.obj
 0002:0003d2b0       ??8?$_Tree_const_iterator@V?$_Tree_val@U?$_Tree_simple_types@U?$pair@$$CBIPAU_MAGIC_TYPE1@@@std@@@std@@@std@@@std@@QBE_NABV01@@Z 0059d2b0 f i Unit.obj
 0002:0003d390       ??8?$_Tree_const_iterator@V?$_Tree_val@U?$_Tree_simple_types@U?$pair@$$CBIPAU_MAGIC_TYPE2@@@std@@@std@@@std@@@std@@QBE_NABV01@@Z 0059d390 f i Unit.obj
 0002:0003d470       ??9?$_Tree_const_iterator@V?$_Tree_val@U?$_Tree_simple_types@U?$pair@$$CBEF@std@@@std@@@std@@@std@@QBE_NABV01@@Z 0059d470 f i Unit.obj
 0002:0003d500       ??9?$_Tree_const_iterator@V?$_Tree_val@U?$_Tree_simple_types@U?$pair@$$CBEU_BUFF_TYPE9_INFO@@@std@@@std@@@std@@@std@@QBE_NABV01@@Z 0059d500 f i Unit.obj
 0002:0003d590       ??9?$_Tree_const_iterator@V?$_Tree_val@U?$_Tree_simple_types@U?$pair@$$CBEV?$map@EFU?$less@E@std@@V?$allocator@U?$pair@$$CBEF@std@@@2@@std@@@std@@@std@@@std@@@std@@QBE_NABV01@@Z 0059d590 f i Unit.obj
 0002:0003d620       ??9?$_Tree_const_iterator@V?$_Tree_val@U?$_Tree_simple_types@U?$pair@$$CBIPAU_MAGIC_TYPE1@@@std@@@std@@@std@@@std@@QBE_NABV01@@Z 0059d620 f i Unit.obj
 0002:0003d6b0       ??9?$_Tree_const_iterator@V?$_Tree_val@U?$_Tree_simple_types@U?$pair@$$CBIPAU_MAGIC_TYPE2@@@std@@@std@@@std@@@std@@QBE_NABV01@@Z 0059d6b0 f i Unit.obj
 0002:0003d740       ??C?$_Tree_iterator@V?$_Tree_val@U?$_Tree_simple_types@U?$pair@$$CBEF@std@@@std@@@std@@@std@@QBEPAU?$pair@$$CBEF@1@XZ 0059d740 f i Unit.obj
 0002:0003d7a0       ??C?$_Tree_iterator@V?$_Tree_val@U?$_Tree_simple_types@U?$pair@$$CBEV?$map@EFU?$less@E@std@@V?$allocator@U?$pair@$$CBEF@std@@@2@@std@@@std@@@std@@@std@@@std@@QBEPAU?$pair@$$CBEV?$map@EFU?$less@E@std@@V?$allocator@U?$pair@$$CBEF@std@@@2@@std@@@1@XZ 0059d7a0 f i Unit.obj
 0002:0003d800       ??C?$_Tree_iterator@V?$_Tree_val@U?$_Tree_simple_types@U?$pair@$$CBIPAU_MAGIC_TYPE1@@@std@@@std@@@std@@@std@@QBEPAU?$pair@$$CBIPAU_MAGIC_TYPE1@@@1@XZ 0059d800 f i Unit.obj
 0002:0003d860       ??C?$_Tree_iterator@V?$_Tree_val@U?$_Tree_simple_types@U?$pair@$$CBIPAU_MAGIC_TYPE2@@@std@@@std@@@std@@@std@@QBEPAU?$pair@$$CBIPAU_MAGIC_TYPE2@@@1@XZ 0059d860 f i Unit.obj
 0002:0003d8c0       ??D?$_Tree_const_iterator@V?$_Tree_val@U?$_Tree_simple_types@U?$pair@$$CBEF@std@@@std@@@std@@@std@@QBEABU?$pair@$$CBEF@1@XZ 0059d8c0 f i Unit.obj
 0002:0003d990       ??D?$_Tree_const_iterator@V?$_Tree_val@U?$_Tree_simple_types@U?$pair@$$CBEV?$map@EFU?$less@E@std@@V?$allocator@U?$pair@$$CBEF@std@@@2@@std@@@std@@@std@@@std@@@std@@QBEABU?$pair@$$CBEV?$map@EFU?$less@E@std@@V?$allocator@U?$pair@$$CBEF@std@@@2@@std@@@1@XZ 0059d990 f i Unit.obj
 0002:0003da60       ??D?$_Tree_const_iterator@V?$_Tree_val@U?$_Tree_simple_types@U?$pair@$$CBIPAU_MAGIC_TYPE1@@@std@@@std@@@std@@@std@@QBEABU?$pair@$$CBIPAU_MAGIC_TYPE1@@@1@XZ 0059da60 f i Unit.obj
 0002:0003db30       ??D?$_Tree_const_iterator@V?$_Tree_val@U?$_Tree_simple_types@U?$pair@$$CBIPAU_MAGIC_TYPE2@@@std@@@std@@@std@@@std@@QBEABU?$pair@$$CBIPAU_MAGIC_TYPE2@@@1@XZ 0059db30 f i Unit.obj
 0002:0003dc00       ??D?$_Tree_iterator@V?$_Tree_val@U?$_Tree_simple_types@U?$pair@$$CBEF@std@@@std@@@std@@@std@@QBEAAU?$pair@$$CBEF@1@XZ 0059dc00 f i Unit.obj
 0002:0003dc50       ??D?$_Tree_iterator@V?$_Tree_val@U?$_Tree_simple_types@U?$pair@$$CBEV?$map@EFU?$less@E@std@@V?$allocator@U?$pair@$$CBEF@std@@@2@@std@@@std@@@std@@@std@@@std@@QBEAAU?$pair@$$CBEV?$map@EFU?$less@E@std@@V?$allocator@U?$pair@$$CBEF@std@@@2@@std@@@1@XZ 0059dc50 f i Unit.obj
 0002:0003dca0       ??D?$_Tree_iterator@V?$_Tree_val@U?$_Tree_simple_types@U?$pair@$$CBIPAU_MAGIC_TYPE1@@@std@@@std@@@std@@@std@@QBEAAU?$pair@$$CBIPAU_MAGIC_TYPE1@@@1@XZ 0059dca0 f i Unit.obj
 0002:0003dcf0       ??D?$_Tree_iterator@V?$_Tree_val@U?$_Tree_simple_types@U?$pair@$$CBIPAU_MAGIC_TYPE2@@@std@@@std@@@std@@@std@@QBEAAU?$pair@$$CBIPAU_MAGIC_TYPE2@@@1@XZ 0059dcf0 f i Unit.obj
 0002:0003dd40       ??E?$_Tree_const_iterator@V?$_Tree_val@U?$_Tree_simple_types@U?$pair@$$CBEF@std@@@std@@@std@@@std@@QAE?AV01@H@Z 0059dd40 f i Unit.obj
 0002:0003de60       ??E?$_Tree_const_iterator@V?$_Tree_val@U?$_Tree_simple_types@U?$pair@$$CBEF@std@@@std@@@std@@@std@@QAEAAV01@XZ 0059de60 f i Unit.obj
 0002:0003df20       ??E?$_Tree_const_iterator@V?$_Tree_val@U?$_Tree_simple_types@U?$pair@$$CBEU_BUFF_TYPE4_INFO@@@std@@@std@@@std@@@std@@QAE?AV01@H@Z 0059df20 f i Unit.obj
 0002:0003e040       ??E?$_Tree_const_iterator@V?$_Tree_val@U?$_Tree_simple_types@U?$pair@$$CBEU_BUFF_TYPE9_INFO@@@std@@@std@@@std@@@std@@QAE?AV01@H@Z 0059e040 f i Unit.obj
 0002:0003e160       ??E?$_Tree_const_iterator@V?$_Tree_val@U?$_Tree_simple_types@U?$pair@$$CBEU_BUFF_TYPE9_INFO@@@std@@@std@@@std@@@std@@QAEAAV01@XZ 0059e160 f i Unit.obj
 0002:0003e220       ??E?$_Tree_const_iterator@V?$_Tree_val@U?$_Tree_simple_types@U?$pair@$$CBEV?$map@EFU?$less@E@std@@V?$allocator@U?$pair@$$CBEF@std@@@2@@std@@@std@@@std@@@std@@@std@@QAE?AV01@H@Z 0059e220 f i Unit.obj
 0002:0003e340       ??E?$_Tree_const_iterator@V?$_Tree_val@U?$_Tree_simple_types@U?$pair@$$CBEV?$map@EFU?$less@E@std@@V?$allocator@U?$pair@$$CBEF@std@@@2@@std@@@std@@@std@@@std@@@std@@QAEAAV01@XZ 0059e340 f i Unit.obj
 0002:0003e400       ??E?$_Tree_iterator@V?$_Tree_val@U?$_Tree_simple_types@U?$pair@$$CBEF@std@@@std@@@std@@@std@@QAE?AV01@H@Z 0059e400 f i Unit.obj
 0002:0003e520       ??E?$_Tree_iterator@V?$_Tree_val@U?$_Tree_simple_types@U?$pair@$$CBEF@std@@@std@@@std@@@std@@QAEAAV01@XZ 0059e520 f i Unit.obj
 0002:0003e580       ??E?$_Tree_iterator@V?$_Tree_val@U?$_Tree_simple_types@U?$pair@$$CBEU_BUFF_TYPE4_INFO@@@std@@@std@@@std@@@std@@QAE?AV01@H@Z 0059e580 f i Unit.obj
 0002:0003e6a0       ??E?$_Tree_iterator@V?$_Tree_val@U?$_Tree_simple_types@U?$pair@$$CBEU_BUFF_TYPE4_INFO@@@std@@@std@@@std@@@std@@QAEAAV01@XZ 0059e6a0 f i Unit.obj
 0002:0003e700       ??E?$_Tree_iterator@V?$_Tree_val@U?$_Tree_simple_types@U?$pair@$$CBEV?$map@EFU?$less@E@std@@V?$allocator@U?$pair@$$CBEF@std@@@2@@std@@@std@@@std@@@std@@@std@@QAE?AV01@H@Z 0059e700 f i Unit.obj
 0002:0003e820       ??E?$_Tree_iterator@V?$_Tree_val@U?$_Tree_simple_types@U?$pair@$$CBEV?$map@EFU?$less@E@std@@V?$allocator@U?$pair@$$CBEF@std@@@2@@std@@@std@@@std@@@std@@@std@@QAEAAV01@XZ 0059e820 f i Unit.obj
 0002:0003e880       ??E?$_Tree_unchecked_const_iterator@V?$_Tree_val@U?$_Tree_simple_types@U?$pair@$$CBEF@std@@@std@@@std@@U_Iterator_base12@2@@std@@QAEAAV01@XZ 0059e880 f i Unit.obj
 0002:0003e960       ??E?$_Tree_unchecked_const_iterator@V?$_Tree_val@U?$_Tree_simple_types@U?$pair@$$CBEU_BUFF_TYPE9_INFO@@@std@@@std@@@std@@U_Iterator_base12@2@@std@@QAEAAV01@XZ 0059e960 f i Unit.obj
 0002:0003ea40       ??E?$_Tree_unchecked_const_iterator@V?$_Tree_val@U?$_Tree_simple_types@U?$pair@$$CBEV?$map@EFU?$less@E@std@@V?$allocator@U?$pair@$$CBEF@std@@@2@@std@@@std@@@std@@@std@@U_Iterator_base12@2@@std@@QAEAAV01@XZ 0059ea40 f i Unit.obj
 0002:0003eb20       ??F?$_Tree_const_iterator@V?$_Tree_val@U?$_Tree_simple_types@U?$pair@$$CBEU_BUFF_TYPE4_INFO@@@std@@@std@@@std@@@std@@QAEAAV01@XZ 0059eb20 f i Unit.obj
 0002:0003ec30       ??F?$_Tree_iterator@V?$_Tree_val@U?$_Tree_simple_types@U?$pair@$$CBEU_BUFF_TYPE4_INFO@@@std@@@std@@@std@@@std@@QAEAAV01@XZ 0059ec30 f i Unit.obj
 0002:0003ec90       ??F?$_Tree_unchecked_const_iterator@V?$_Tree_val@U?$_Tree_simple_types@U?$pair@$$CBEU_BUFF_TYPE4_INFO@@@std@@@std@@@std@@U_Iterator_base12@2@@std@@QAEAAV01@XZ 0059ec90 f i Unit.obj
 0002:0003edf0       ??_G?$pair@$$CBEV?$map@EFU?$less@E@std@@V?$allocator@U?$pair@$$CBEF@std@@@2@@std@@@std@@QAEPAXI@Z 0059edf0 f i Unit.obj
 0002:0003ee60       ??_GReferenceObject@@UAEPAXI@Z 0059ee60 f i Unit.obj
 0002:0003ee60       ??_EReferenceObject@@UAEPAXI@Z 0059ee60 f i Unit.obj
 0002:0003eed0       ??_GUnit@@UAEPAXI@Z        0059eed0 f i Unit.obj
 0002:0003eed0       ??_EUnit@@UAEPAXI@Z        0059eed0 f i Unit.obj
 0002:0003ef50       ??_H@YGXPAXIIP6EPAX0@Z@Z   0059ef50 f i Unit.obj
 0002:0003f000       ?AddType4Buff@Unit@@QAEXEAAU_BUFF_TYPE4_INFO@@@Z 0059f000 f   Unit.obj
 0002:0003f160       ?BorderTempleEventZone@Unit@@QAE_NE@Z 0059f160 f i Unit.obj
 0002:0003f1f0       ?CanAttack@Unit@@UAE_NPAV1@@Z 0059f1f0 f   Unit.obj
 0002:0003f2f0       ?CanCastRHit@Unit@@UAE_NG@Z 0059f2f0 f   Unit.obj
 0002:0003f330       ?ChaosTempleEventZone@Unit@@QAE_NE@Z 0059f330 f i Unit.obj
 0002:0003f3c0       ?GetACDamage@Unit@@QAEFHPAV1@@Z 0059f3c0 f   Unit.obj
 0002:0003f440       ?GetDamage@CNpc@@QAEFPAV1@PAU_MAGIC_TABLE@@_N@Z 0059f440 f   Unit.obj
 0002:0003f650       ?GetDamage@CNpc@@QAEFPAVCUser@@PAU_MAGIC_TABLE@@_N@Z 0059f650 f   Unit.obj
 0002:0003f8d0       ?GetDamage@CNpc@@UAEFPAVUnit@@PAU_MAGIC_TABLE@@_N@Z 0059f8d0 f   Unit.obj
 0002:0003f960       ?GetDamage@CUser@@UAEFPAVUnit@@PAU_MAGIC_TABLE@@_N@Z 0059f960 f   Unit.obj
 0002:000400e0       ?GetData@?$CSTLMapOnlyLoad@U_MAGIC_TYPE1@@@@QAEPAU_MAGIC_TYPE1@@I@Z 005a00e0 f i Unit.obj
 0002:000402a0       ?GetData@?$CSTLMapOnlyLoad@U_MAGIC_TYPE2@@@@QAEPAU_MAGIC_TYPE2@@I@Z 005a02a0 f i Unit.obj
 0002:00040460       ?GetDistance@Unit@@QAEMMM@Z 005a0460 f   Unit.obj
 0002:000404f0       ?GetDistance@Unit@@QAEMPAV1@@Z 005a04f0 f   Unit.obj
 0002:000405c0       ?GetDistance@Unit@@SAMMMMM@Z 005a05c0 f   Unit.obj
 0002:000406b0       ?GetDistanceSqrt@Unit@@QAEMPAV1@@Z 005a06b0 f   Unit.obj
 0002:00040790       ?GetEventRoom@Unit@@QAEGXZ 005a0790 f i Unit.obj
 0002:00040810       ?GetHitRate@Unit@@QAEEM@Z  005a0810 f   Unit.obj
 0002:00040cf0       ?GetLevel@Unit@@QAEEXZ     005a0cf0 f i Unit.obj
 0002:00040d30       ?GetMagicDamage@Unit@@QAEFHPAV1@_N@Z 005a0d30 f   Unit.obj
 0002:00041520       ?GetNation@Unit@@QAEEXZ    005a1520 f i Unit.obj
 0002:00041560       ?GetProto@CNpc@@QAEPAVCNpcTable@@XZ 005a1560 f i Unit.obj
 0002:000415a0       ?GetSavedMagicDuration@Unit@@UAEFI@Z 005a15a0 f i Unit.obj
 0002:000415e0       ?GetType@CNpc@@QAEEXZ      005a15e0 f i Unit.obj
 0002:00041640       ?GetX@Unit@@QAEMXZ         005a1640 f i Unit.obj
 0002:00041680       ?GetZ@Unit@@QAEMXZ         005a1680 f i Unit.obj
 0002:000416c0       ?HasSavedMagic@Unit@@UAE_NI@Z 005a16c0 f i Unit.obj
 0002:00041700       ?HpChangeMagic@Unit@@UAEXHPAV1@W4AttributeType@@@Z 005a1700 f i Unit.obj
 0002:00041770       ?InitType3@Unit@@QAEXXZ    005a1770 f   Unit.obj
 0002:00041800       ?InitType4@Unit@@QAEX_NE@Z 005a1800 f   Unit.obj
 0002:000419f0       ?Initialize@Unit@@UAEXXZ   005a19f0 f   Unit.obj
 0002:00041df0       ?InsertSavedMagic@Unit@@UAEXIG@Z 005a1df0 f i Unit.obj
 0002:00041e30       ?JuraidTempleEventZone@Unit@@QAE_NE@Z 005a1e30 f i Unit.obj
 0002:00041ec0       ?OnAttack@Unit@@UAEXPAV1@W4AttackType@@@Z 005a1ec0 f i Unit.obj
 0002:00041f00       ?OnDeath@Unit@@QAEXPAV1@@Z 005a1f00 f   Unit.obj
 0002:00041f40       ?OnDefend@Unit@@UAEXPAV1@W4AttackType@@@Z 005a1f40 f i Unit.obj
 0002:00041f80       ?Reset@MagicType3@Unit@@QAEXXZ 005a1f80 f i Unit.obj
 0002:00042010       ?SendDeathAnimation@Unit@@QAEXPAV1@@Z 005a2010 f   Unit.obj
 0002:00042190       ?SetPosition@Unit@@QAEXMMM@Z 005a2190 f i Unit.obj
 0002:00042200       ?SetUnitEventRoom@Unit@@QAEXG@Z 005a2200 f i Unit.obj
 0002:00042250       ?SetZoneAttributes@MAP@@IAEXH@Z 005a2250 f   Unit.obj
 0002:00042c10       ?StateChangeServerDirect@Unit@@UAEXEI@Z 005a2c10 f i Unit.obj
 0002:00042c50       ?_Alloc_proxy@?$_Tree_comp_alloc@V?$_Tmap_traits@EU_BUFF_TYPE4_INFO@@U?$less@E@std@@V?$allocator@U?$pair@$$CBEU_BUFF_TYPE4_INFO@@@std@@@3@$0A@@std@@@std@@QAEXXZ 005a2c50 f i Unit.obj
 0002:00042d70       ?_Alloc_proxy@?$_Tree_comp_alloc@V?$_Tmap_traits@EU_BUFF_TYPE9_INFO@@U?$less@E@std@@V?$allocator@U?$pair@$$CBEU_BUFF_TYPE9_INFO@@@std@@@3@$0A@@std@@@std@@QAEXXZ 005a2d70 f i Unit.obj
 0002:00042e90       ?_Alloc_proxy@?$_Tree_comp_alloc@V?$_Tmap_traits@EV?$map@EFU?$less@E@std@@V?$allocator@U?$pair@$$CBEF@std@@@2@@std@@U?$less@E@2@V?$allocator@U?$pair@$$CBEV?$map@EFU?$less@E@std@@V?$allocator@U?$pair@$$CBEF@std@@@2@@std@@@std@@@2@$0A@@std@@@std@@QAEXXZ 005a2e90 f i Unit.obj
 0002:00042fb0       ?_Buyheadnode@?$_Tree_comp_alloc@V?$_Tmap_traits@EU_BUFF_TYPE4_INFO@@U?$less@E@std@@V?$allocator@U?$pair@$$CBEU_BUFF_TYPE4_INFO@@@std@@@3@$0A@@std@@@std@@QAEPAU?$_Tree_node@U?$pair@$$CBEU_BUFF_TYPE4_INFO@@@std@@PAX@2@XZ 005a2fb0 f i Unit.obj
 0002:00043160       ?_Buyheadnode@?$_Tree_comp_alloc@V?$_Tmap_traits@EU_BUFF_TYPE9_INFO@@U?$less@E@std@@V?$allocator@U?$pair@$$CBEU_BUFF_TYPE9_INFO@@@std@@@3@$0A@@std@@@std@@QAEPAU?$_Tree_node@U?$pair@$$CBEU_BUFF_TYPE9_INFO@@@std@@PAX@2@XZ 005a3160 f i Unit.obj
 0002:00043310       ?_Buyheadnode@?$_Tree_comp_alloc@V?$_Tmap_traits@EV?$map@EFU?$less@E@std@@V?$allocator@U?$pair@$$CBEF@std@@@2@@std@@U?$less@E@2@V?$allocator@U?$pair@$$CBEV?$map@EFU?$less@E@std@@V?$allocator@U?$pair@$$CBEF@std@@@2@@std@@@std@@@2@$0A@@std@@@std@@QAEPAU?$_Tree_node@U?$pair@$$CBEV?$map@EFU?$less@E@std@@V?$allocator@U?$pair@$$CBEF@std@@@2@@std@@@std@@PAX@2@XZ 005a3310 f i Unit.obj
 0002:000434c0       ?_Buynode0@?$_Tree_comp_alloc@V?$_Tmap_traits@EU_BUFF_TYPE4_INFO@@U?$less@E@std@@V?$allocator@U?$pair@$$CBEU_BUFF_TYPE4_INFO@@@std@@@3@$0A@@std@@@std@@QAEPAU?$_Tree_node@U?$pair@$$CBEU_BUFF_TYPE4_INFO@@@std@@PAX@2@XZ 005a34c0 f i Unit.obj
 0002:00043630       ?_Compare@?$_Tree@V?$_Tmap_traits@IPAU_MAGIC_TYPE1@@U?$less@I@std@@V?$allocator@U?$pair@$$CBIPAU_MAGIC_TYPE1@@@std@@@3@$0A@@std@@@std@@IBE_NABI0@Z 005a3630 f i Unit.obj
 0002:000436b0       ?_Compare@?$_Tree@V?$_Tmap_traits@IPAU_MAGIC_TYPE2@@U?$less@I@std@@V?$allocator@U?$pair@$$CBIPAU_MAGIC_TYPE2@@@std@@@3@$0A@@std@@@std@@IBE_NABI0@Z 005a36b0 f i Unit.obj
 0002:00043730       ?_Construct@?$_Tree_comp_alloc@V?$_Tmap_traits@EU_BUFF_TYPE4_INFO@@U?$less@E@std@@V?$allocator@U?$pair@$$CBEU_BUFF_TYPE4_INFO@@@std@@@3@$0A@@std@@@std@@QAEXXZ 005a3730 f i Unit.obj
 0002:00043820       ?_Construct@?$_Tree_comp_alloc@V?$_Tmap_traits@EU_BUFF_TYPE9_INFO@@U?$less@E@std@@V?$allocator@U?$pair@$$CBEU_BUFF_TYPE9_INFO@@@std@@@3@$0A@@std@@@std@@QAEXXZ 005a3820 f i Unit.obj
 0002:00043910       ?_Construct@?$_Tree_comp_alloc@V?$_Tmap_traits@EV?$map@EFU?$less@E@std@@V?$allocator@U?$pair@$$CBEF@std@@@2@@std@@U?$less@E@2@V?$allocator@U?$pair@$$CBEV?$map@EFU?$less@E@std@@V?$allocator@U?$pair@$$CBEF@std@@@2@@std@@@std@@@2@$0A@@std@@@std@@QAEXXZ 005a3910 f i Unit.obj
 0002:00043a00       ?_Destroy_if_not_nil@?$_Tree@V?$_Tmap_traits@EU_BUFF_TYPE4_INFO@@U?$less@E@std@@V?$allocator@U?$pair@$$CBEU_BUFF_TYPE4_INFO@@@std@@@3@$0A@@std@@@std@@IAEXPAU?$_Tree_node@U?$pair@$$CBEU_BUFF_TYPE4_INFO@@@std@@PAX@2@@Z 005a3a00 f i Unit.obj
 0002:00043a90       ?_Erase@?$_Tree@V?$_Tmap_traits@EFU?$less@E@std@@V?$allocator@U?$pair@$$CBEF@std@@@2@$0A@@std@@@std@@IAEXPAU?$_Tree_node@U?$pair@$$CBEF@std@@PAX@2@@Z 005a3a90 f i Unit.obj
 0002:00043b60       ?_Erase@?$_Tree@V?$_Tmap_traits@EU_BUFF_TYPE4_INFO@@U?$less@E@std@@V?$allocator@U?$pair@$$CBEU_BUFF_TYPE4_INFO@@@std@@@3@$0A@@std@@@std@@IAEXPAU?$_Tree_node@U?$pair@$$CBEU_BUFF_TYPE4_INFO@@@std@@PAX@2@@Z 005a3b60 f i Unit.obj
 0002:00043c30       ?_Erase@?$_Tree@V?$_Tmap_traits@EU_BUFF_TYPE9_INFO@@U?$less@E@std@@V?$allocator@U?$pair@$$CBEU_BUFF_TYPE9_INFO@@@std@@@3@$0A@@std@@@std@@IAEXPAU?$_Tree_node@U?$pair@$$CBEU_BUFF_TYPE9_INFO@@@std@@PAX@2@@Z 005a3c30 f i Unit.obj
 0002:00043d00       ?_Erase@?$_Tree@V?$_Tmap_traits@EV?$map@EFU?$less@E@std@@V?$allocator@U?$pair@$$CBEF@std@@@2@@std@@U?$less@E@2@V?$allocator@U?$pair@$$CBEV?$map@EFU?$less@E@std@@V?$allocator@U?$pair@$$CBEF@std@@@2@@std@@@std@@@2@$0A@@std@@@std@@IAEXPAU?$_Tree_node@U?$pair@$$CBEV?$map@EFU?$less@E@std@@V?$allocator@U?$pair@$$CBEF@std@@@2@@std@@@std@@PAX@2@@Z 005a3d00 f i Unit.obj
 0002:00043dd0       ?_Free_proxy@?$_Tree_comp_alloc@V?$_Tmap_traits@EFU?$less@E@std@@V?$allocator@U?$pair@$$CBEF@std@@@2@$0A@@std@@@std@@QAEXXZ 005a3dd0 f i Unit.obj
 0002:00043ed0       ?_Free_proxy@?$_Tree_comp_alloc@V?$_Tmap_traits@EU_BUFF_TYPE4_INFO@@U?$less@E@std@@V?$allocator@U?$pair@$$CBEU_BUFF_TYPE4_INFO@@@std@@@3@$0A@@std@@@std@@QAEXXZ 005a3ed0 f i Unit.obj
 0002:00043fd0       ?_Free_proxy@?$_Tree_comp_alloc@V?$_Tmap_traits@EU_BUFF_TYPE9_INFO@@U?$less@E@std@@V?$allocator@U?$pair@$$CBEU_BUFF_TYPE9_INFO@@@std@@@3@$0A@@std@@@std@@QAEXXZ 005a3fd0 f i Unit.obj
 0002:000440d0       ?_Free_proxy@?$_Tree_comp_alloc@V?$_Tmap_traits@EV?$map@EFU?$less@E@std@@V?$allocator@U?$pair@$$CBEF@std@@@2@@std@@U?$less@E@2@V?$allocator@U?$pair@$$CBEV?$map@EFU?$less@E@std@@V?$allocator@U?$pair@$$CBEF@std@@@2@@std@@@std@@@2@$0A@@std@@@std@@QAEXXZ 005a40d0 f i Unit.obj
 0002:000441d0       ?_Freeheadnode@?$_Tree_comp_alloc@V?$_Tmap_traits@EFU?$less@E@std@@V?$allocator@U?$pair@$$CBEF@std@@@2@$0A@@std@@@std@@QAEXPAU?$_Tree_node@U?$pair@$$CBEF@std@@PAX@2@@Z 005a41d0 f i Unit.obj
 0002:000442a0       ?_Freeheadnode@?$_Tree_comp_alloc@V?$_Tmap_traits@EU_BUFF_TYPE4_INFO@@U?$less@E@std@@V?$allocator@U?$pair@$$CBEU_BUFF_TYPE4_INFO@@@std@@@3@$0A@@std@@@std@@QAEXPAU?$_Tree_node@U?$pair@$$CBEU_BUFF_TYPE4_INFO@@@std@@PAX@2@@Z 005a42a0 f i Unit.obj
 0002:00044370       ?_Freeheadnode@?$_Tree_comp_alloc@V?$_Tmap_traits@EU_BUFF_TYPE9_INFO@@U?$less@E@std@@V?$allocator@U?$pair@$$CBEU_BUFF_TYPE9_INFO@@@std@@@3@$0A@@std@@@std@@QAEXPAU?$_Tree_node@U?$pair@$$CBEU_BUFF_TYPE9_INFO@@@std@@PAX@2@@Z 005a4370 f i Unit.obj
 0002:00044440       ?_Freeheadnode@?$_Tree_comp_alloc@V?$_Tmap_traits@EV?$map@EFU?$less@E@std@@V?$allocator@U?$pair@$$CBEF@std@@@2@@std@@U?$less@E@2@V?$allocator@U?$pair@$$CBEV?$map@EFU?$less@E@std@@V?$allocator@U?$pair@$$CBEF@std@@@2@@std@@@std@@@2@$0A@@std@@@std@@QAEXPAU?$_Tree_node@U?$pair@$$CBEV?$map@EFU?$less@E@std@@V?$allocator@U?$pair@$$CBEF@std@@@2@@std@@@std@@PAX@2@@Z 005a4440 f i Unit.obj
 0002:00044510       ?_Freenode0@?$_Tree_comp_alloc@V?$_Tmap_traits@EU_BUFF_TYPE4_INFO@@U?$less@E@std@@V?$allocator@U?$pair@$$CBEU_BUFF_TYPE4_INFO@@@std@@@3@$0A@@std@@@std@@QAEXPAU?$_Tree_node@U?$pair@$$CBEU_BUFF_TYPE4_INFO@@@std@@PAX@2@@Z 005a4510 f i Unit.obj
 0002:000445e0       ?_Get_data@?$_Tree_comp_alloc@V?$_Tmap_traits@EFU?$less@E@std@@V?$allocator@U?$pair@$$CBEF@std@@@2@$0A@@std@@@std@@QAEAAV?$_Tree_val@U?$_Tree_simple_types@U?$pair@$$CBEF@std@@@std@@@2@XZ 005a45e0 f i Unit.obj
 0002:00044640       ?_Get_data@?$_Tree_comp_alloc@V?$_Tmap_traits@EFU?$less@E@std@@V?$allocator@U?$pair@$$CBEF@std@@@2@$0A@@std@@@std@@QBEABV?$_Tree_val@U?$_Tree_simple_types@U?$pair@$$CBEF@std@@@std@@@2@XZ 005a4640 f i Unit.obj
 0002:000446a0       ?_Get_data@?$_Tree_comp_alloc@V?$_Tmap_traits@EU_BUFF_TYPE9_INFO@@U?$less@E@std@@V?$allocator@U?$pair@$$CBEU_BUFF_TYPE9_INFO@@@std@@@3@$0A@@std@@@std@@QAEAAV?$_Tree_val@U?$_Tree_simple_types@U?$pair@$$CBEU_BUFF_TYPE9_INFO@@@std@@@std@@@2@XZ 005a46a0 f i Unit.obj
 0002:00044700       ?_Get_data@?$_Tree_comp_alloc@V?$_Tmap_traits@EU_BUFF_TYPE9_INFO@@U?$less@E@std@@V?$allocator@U?$pair@$$CBEU_BUFF_TYPE9_INFO@@@std@@@3@$0A@@std@@@std@@QBEABV?$_Tree_val@U?$_Tree_simple_types@U?$pair@$$CBEU_BUFF_TYPE9_INFO@@@std@@@std@@@2@XZ 005a4700 f i Unit.obj
 0002:00044760       ?_Get_data@?$_Tree_comp_alloc@V?$_Tmap_traits@EV?$map@EFU?$less@E@std@@V?$allocator@U?$pair@$$CBEF@std@@@2@@std@@U?$less@E@2@V?$allocator@U?$pair@$$CBEV?$map@EFU?$less@E@std@@V?$allocator@U?$pair@$$CBEF@std@@@2@@std@@@std@@@2@$0A@@std@@@std@@QAEAAV?$_Tree_val@U?$_Tree_simple_types@U?$pair@$$CBEV?$map@EFU?$less@E@std@@V?$allocator@U?$pair@$$CBEF@std@@@2@@std@@@std@@@std@@@2@XZ 005a4760 f i Unit.obj
 0002:000447c0       ?_Get_data@?$_Tree_comp_alloc@V?$_Tmap_traits@EV?$map@EFU?$less@E@std@@V?$allocator@U?$pair@$$CBEF@std@@@2@@std@@U?$less@E@2@V?$allocator@U?$pair@$$CBEV?$map@EFU?$less@E@std@@V?$allocator@U?$pair@$$CBEF@std@@@2@@std@@@std@@@2@$0A@@std@@@std@@QBEABV?$_Tree_val@U?$_Tree_simple_types@U?$pair@$$CBEV?$map@EFU?$less@E@std@@V?$allocator@U?$pair@$$CBEF@std@@@2@@std@@@std@@@std@@@2@XZ 005a47c0 f i Unit.obj
 0002:00044820       ?_Get_data@?$_Tree_comp_alloc@V?$_Tmap_traits@IPAU_MAGIC_TYPE1@@U?$less@I@std@@V?$allocator@U?$pair@$$CBIPAU_MAGIC_TYPE1@@@std@@@3@$0A@@std@@@std@@QAEAAV?$_Tree_val@U?$_Tree_simple_types@U?$pair@$$CBIPAU_MAGIC_TYPE1@@@std@@@std@@@2@XZ 005a4820 f i Unit.obj
 0002:00044880       ?_Get_data@?$_Tree_comp_alloc@V?$_Tmap_traits@IPAU_MAGIC_TYPE1@@U?$less@I@std@@V?$allocator@U?$pair@$$CBIPAU_MAGIC_TYPE1@@@std@@@3@$0A@@std@@@std@@QBEABV?$_Tree_val@U?$_Tree_simple_types@U?$pair@$$CBIPAU_MAGIC_TYPE1@@@std@@@std@@@2@XZ 005a4880 f i Unit.obj
 0002:000448e0       ?_Get_data@?$_Tree_comp_alloc@V?$_Tmap_traits@IPAU_MAGIC_TYPE2@@U?$less@I@std@@V?$allocator@U?$pair@$$CBIPAU_MAGIC_TYPE2@@@std@@@3@$0A@@std@@@std@@QAEAAV?$_Tree_val@U?$_Tree_simple_types@U?$pair@$$CBIPAU_MAGIC_TYPE2@@@std@@@std@@@2@XZ 005a48e0 f i Unit.obj
 0002:00044940       ?_Get_data@?$_Tree_comp_alloc@V?$_Tmap_traits@IPAU_MAGIC_TYPE2@@U?$less@I@std@@V?$allocator@U?$pair@$$CBIPAU_MAGIC_TYPE2@@@std@@@3@$0A@@std@@@std@@QBEABV?$_Tree_val@U?$_Tree_simple_types@U?$pair@$$CBIPAU_MAGIC_TYPE2@@@std@@@std@@@2@XZ 005a4940 f i Unit.obj
 0002:000449a0       ?_Get_first@?$_Compressed_pair@U?$less@I@std@@V?$_Compressed_pair@V?$allocator@U?$_Tree_node@U?$pair@$$CBIPAU_MAGIC_TYPE1@@@std@@PAX@std@@@std@@V?$_Tree_val@U?$_Tree_simple_types@U?$pair@$$CBIPAU_MAGIC_TYPE1@@@std@@@std@@@2@$00@2@$00@std@@QAEAAU?$less@I@2@XZ 005a49a0 f i Unit.obj
 0002:000449e0       ?_Get_first@?$_Compressed_pair@U?$less@I@std@@V?$_Compressed_pair@V?$allocator@U?$_Tree_node@U?$pair@$$CBIPAU_MAGIC_TYPE1@@@std@@PAX@std@@@std@@V?$_Tree_val@U?$_Tree_simple_types@U?$pair@$$CBIPAU_MAGIC_TYPE1@@@std@@@std@@@2@$00@2@$00@std@@QBEABU?$less@I@2@XZ 005a49e0 f i Unit.obj
 0002:00044a20       ?_Get_first@?$_Compressed_pair@U?$less@I@std@@V?$_Compressed_pair@V?$allocator@U?$_Tree_node@U?$pair@$$CBIPAU_MAGIC_TYPE2@@@std@@PAX@std@@@std@@V?$_Tree_val@U?$_Tree_simple_types@U?$pair@$$CBIPAU_MAGIC_TYPE2@@@std@@@std@@@2@$00@2@$00@std@@QAEAAU?$less@I@2@XZ 005a4a20 f i Unit.obj
 0002:00044a60       ?_Get_first@?$_Compressed_pair@U?$less@I@std@@V?$_Compressed_pair@V?$allocator@U?$_Tree_node@U?$pair@$$CBIPAU_MAGIC_TYPE2@@@std@@PAX@std@@@std@@V?$_Tree_val@U?$_Tree_simple_types@U?$pair@$$CBIPAU_MAGIC_TYPE2@@@std@@@std@@@2@$00@2@$00@std@@QBEABU?$less@I@2@XZ 005a4a60 f i Unit.obj
 0002:00044aa0       ?_Get_first@?$_Compressed_pair@V?$allocator@U?$_Tree_node@U?$pair@$$CBEF@std@@PAX@std@@@std@@V?$_Tree_val@U?$_Tree_simple_types@U?$pair@$$CBEF@std@@@std@@@2@$00@std@@QAEAAV?$allocator@U?$_Tree_node@U?$pair@$$CBEF@std@@PAX@std@@@2@XZ 005a4aa0 f i Unit.obj
 0002:00044ae0       ?_Get_first@?$_Compressed_pair@V?$allocator@U?$_Tree_node@U?$pair@$$CBEU_BUFF_TYPE4_INFO@@@std@@PAX@std@@@std@@V?$_Tree_val@U?$_Tree_simple_types@U?$pair@$$CBEU_BUFF_TYPE4_INFO@@@std@@@std@@@2@$00@std@@QBEABV?$allocator@U?$_Tree_node@U?$pair@$$CBEU_BUFF_TYPE4_INFO@@@std@@PAX@std@@@2@XZ 005a4ae0 f i Unit.obj
 0002:00044b20       ?_Get_first@?$_Compressed_pair@V?$allocator@U?$_Tree_node@U?$pair@$$CBEU_BUFF_TYPE9_INFO@@@std@@PAX@std@@@std@@V?$_Tree_val@U?$_Tree_simple_types@U?$pair@$$CBEU_BUFF_TYPE9_INFO@@@std@@@std@@@2@$00@std@@QAEAAV?$allocator@U?$_Tree_node@U?$pair@$$CBEU_BUFF_TYPE9_INFO@@@std@@PAX@std@@@2@XZ 005a4b20 f i Unit.obj
 0002:00044b60       ?_Get_first@?$_Compressed_pair@V?$allocator@U?$_Tree_node@U?$pair@$$CBEV?$map@EFU?$less@E@std@@V?$allocator@U?$pair@$$CBEF@std@@@2@@std@@@std@@PAX@std@@@std@@V?$_Tree_val@U?$_Tree_simple_types@U?$pair@$$CBEV?$map@EFU?$less@E@std@@V?$allocator@U?$pair@$$CBEF@std@@@2@@std@@@std@@@std@@@2@$00@std@@QAEAAV?$allocator@U?$_Tree_node@U?$pair@$$CBEV?$map@EFU?$less@E@std@@V?$allocator@U?$pair@$$CBEF@std@@@2@@std@@@std@@PAX@std@@@2@XZ 005a4b60 f i Unit.obj
 0002:00044ba0       ?_Get_second@?$_Compressed_pair@U?$less@E@std@@V?$_Compressed_pair@V?$allocator@U?$_Tree_node@U?$pair@$$CBEF@std@@PAX@std@@@std@@V?$_Tree_val@U?$_Tree_simple_types@U?$pair@$$CBEF@std@@@std@@@2@$00@2@$00@std@@QAEAAV?$_Compressed_pair@V?$allocator@U?$_Tree_node@U?$pair@$$CBEF@std@@PAX@std@@@std@@V?$_Tree_val@U?$_Tree_simple_types@U?$pair@$$CBEF@std@@@std@@@2@$00@2@XZ 005a4ba0 f i Unit.obj
 0002:00044be0       ?_Get_second@?$_Compressed_pair@U?$less@E@std@@V?$_Compressed_pair@V?$allocator@U?$_Tree_node@U?$pair@$$CBEF@std@@PAX@std@@@std@@V?$_Tree_val@U?$_Tree_simple_types@U?$pair@$$CBEF@std@@@std@@@2@$00@2@$00@std@@QBEABV?$_Compressed_pair@V?$allocator@U?$_Tree_node@U?$pair@$$CBEF@std@@PAX@std@@@std@@V?$_Tree_val@U?$_Tree_simple_types@U?$pair@$$CBEF@std@@@std@@@2@$00@2@XZ 005a4be0 f i Unit.obj
 0002:00044c20       ?_Get_second@?$_Compressed_pair@U?$less@E@std@@V?$_Compressed_pair@V?$allocator@U?$_Tree_node@U?$pair@$$CBEU_BUFF_TYPE9_INFO@@@std@@PAX@std@@@std@@V?$_Tree_val@U?$_Tree_simple_types@U?$pair@$$CBEU_BUFF_TYPE9_INFO@@@std@@@std@@@2@$00@2@$00@std@@QAEAAV?$_Compressed_pair@V?$allocator@U?$_Tree_node@U?$pair@$$CBEU_BUFF_TYPE9_INFO@@@std@@PAX@std@@@std@@V?$_Tree_val@U?$_Tree_simple_types@U?$pair@$$CBEU_BUFF_TYPE9_INFO@@@std@@@std@@@2@$00@2@XZ 005a4c20 f i Unit.obj
 0002:00044c60       ?_Get_second@?$_Compressed_pair@U?$less@E@std@@V?$_Compressed_pair@V?$allocator@U?$_Tree_node@U?$pair@$$CBEU_BUFF_TYPE9_INFO@@@std@@PAX@std@@@std@@V?$_Tree_val@U?$_Tree_simple_types@U?$pair@$$CBEU_BUFF_TYPE9_INFO@@@std@@@std@@@2@$00@2@$00@std@@QBEABV?$_Compressed_pair@V?$allocator@U?$_Tree_node@U?$pair@$$CBEU_BUFF_TYPE9_INFO@@@std@@PAX@std@@@std@@V?$_Tree_val@U?$_Tree_simple_types@U?$pair@$$CBEU_BUFF_TYPE9_INFO@@@std@@@std@@@2@$00@2@XZ 005a4c60 f i Unit.obj
 0002:00044ca0       ?_Get_second@?$_Compressed_pair@U?$less@E@std@@V?$_Compressed_pair@V?$allocator@U?$_Tree_node@U?$pair@$$CBEV?$map@EFU?$less@E@std@@V?$allocator@U?$pair@$$CBEF@std@@@2@@std@@@std@@PAX@std@@@std@@V?$_Tree_val@U?$_Tree_simple_types@U?$pair@$$CBEV?$map@EFU?$less@E@std@@V?$allocator@U?$pair@$$CBEF@std@@@2@@std@@@std@@@std@@@2@$00@2@$00@std@@QAEAAV?$_Compressed_pair@V?$allocator@U?$_Tree_node@U?$pair@$$CBEV?$map@EFU?$less@E@std@@V?$allocator@U?$pair@$$CBEF@std@@@2@@std@@@std@@PAX@std@@@std@@V?$_Tree_val@U?$_Tree_simple_types@U?$pair@$$CBEV?$map@EFU?$less@E@std@@V?$allocator@U?$pair@$$CBEF@std@@@2@@std@@@std@@@std@@@2@$00@2@XZ 005a4ca0 f i Unit.obj
 0002:00044ce0       ?_Get_second@?$_Compressed_pair@U?$less@E@std@@V?$_Compressed_pair@V?$allocator@U?$_Tree_node@U?$pair@$$CBEV?$map@EFU?$less@E@std@@V?$allocator@U?$pair@$$CBEF@std@@@2@@std@@@std@@PAX@std@@@std@@V?$_Tree_val@U?$_Tree_simple_types@U?$pair@$$CBEV?$map@EFU?$less@E@std@@V?$allocator@U?$pair@$$CBEF@std@@@2@@std@@@std@@@std@@@2@$00@2@$00@std@@QBEABV?$_Compressed_pair@V?$allocator@U?$_Tree_node@U?$pair@$$CBEV?$map@EFU?$less@E@std@@V?$allocator@U?$pair@$$CBEF@std@@@2@@std@@@std@@PAX@std@@@std@@V?$_Tree_val@U?$_Tree_simple_types@U?$pair@$$CBEV?$map@EFU?$less@E@std@@V?$allocator@U?$pair@$$CBEF@std@@@2@@std@@@std@@@std@@@2@$00@2@XZ 005a4ce0 f i Unit.obj
 0002:00044d20       ?_Get_second@?$_Compressed_pair@U?$less@I@std@@V?$_Compressed_pair@V?$allocator@U?$_Tree_node@U?$pair@$$CBIPAU_MAGIC_TYPE1@@@std@@PAX@std@@@std@@V?$_Tree_val@U?$_Tree_simple_types@U?$pair@$$CBIPAU_MAGIC_TYPE1@@@std@@@std@@@2@$00@2@$00@std@@QAEAAV?$_Compressed_pair@V?$allocator@U?$_Tree_node@U?$pair@$$CBIPAU_MAGIC_TYPE1@@@std@@PAX@std@@@std@@V?$_Tree_val@U?$_Tree_simple_types@U?$pair@$$CBIPAU_MAGIC_TYPE1@@@std@@@std@@@2@$00@2@XZ 005a4d20 f i Unit.obj
 0002:00044d60       ?_Get_second@?$_Compressed_pair@U?$less@I@std@@V?$_Compressed_pair@V?$allocator@U?$_Tree_node@U?$pair@$$CBIPAU_MAGIC_TYPE1@@@std@@PAX@std@@@std@@V?$_Tree_val@U?$_Tree_simple_types@U?$pair@$$CBIPAU_MAGIC_TYPE1@@@std@@@std@@@2@$00@2@$00@std@@QBEABV?$_Compressed_pair@V?$allocator@U?$_Tree_node@U?$pair@$$CBIPAU_MAGIC_TYPE1@@@std@@PAX@std@@@std@@V?$_Tree_val@U?$_Tree_simple_types@U?$pair@$$CBIPAU_MAGIC_TYPE1@@@std@@@std@@@2@$00@2@XZ 005a4d60 f i Unit.obj
 0002:00044da0       ?_Get_second@?$_Compressed_pair@U?$less@I@std@@V?$_Compressed_pair@V?$allocator@U?$_Tree_node@U?$pair@$$CBIPAU_MAGIC_TYPE2@@@std@@PAX@std@@@std@@V?$_Tree_val@U?$_Tree_simple_types@U?$pair@$$CBIPAU_MAGIC_TYPE2@@@std@@@std@@@2@$00@2@$00@std@@QAEAAV?$_Compressed_pair@V?$allocator@U?$_Tree_node@U?$pair@$$CBIPAU_MAGIC_TYPE2@@@std@@PAX@std@@@std@@V?$_Tree_val@U?$_Tree_simple_types@U?$pair@$$CBIPAU_MAGIC_TYPE2@@@std@@@std@@@2@$00@2@XZ 005a4da0 f i Unit.obj
 0002:00044de0       ?_Get_second@?$_Compressed_pair@U?$less@I@std@@V?$_Compressed_pair@V?$allocator@U?$_Tree_node@U?$pair@$$CBIPAU_MAGIC_TYPE2@@@std@@PAX@std@@@std@@V?$_Tree_val@U?$_Tree_simple_types@U?$pair@$$CBIPAU_MAGIC_TYPE2@@@std@@@std@@@2@$00@2@$00@std@@QBEABV?$_Compressed_pair@V?$allocator@U?$_Tree_node@U?$pair@$$CBIPAU_MAGIC_TYPE2@@@std@@PAX@std@@@std@@V?$_Tree_val@U?$_Tree_simple_types@U?$pair@$$CBIPAU_MAGIC_TYPE2@@@std@@@std@@@2@$00@2@XZ 005a4de0 f i Unit.obj
 0002:00044e20       ?_Get_second@?$_Compressed_pair@V?$allocator@U?$_Tree_node@U?$pair@$$CBEF@std@@PAX@std@@@std@@V?$_Tree_val@U?$_Tree_simple_types@U?$pair@$$CBEF@std@@@std@@@2@$00@std@@QAEAAV?$_Tree_val@U?$_Tree_simple_types@U?$pair@$$CBEF@std@@@std@@@2@XZ 005a4e20 f i Unit.obj
 0002:00044e60       ?_Get_second@?$_Compressed_pair@V?$allocator@U?$_Tree_node@U?$pair@$$CBEF@std@@PAX@std@@@std@@V?$_Tree_val@U?$_Tree_simple_types@U?$pair@$$CBEF@std@@@std@@@2@$00@std@@QBEABV?$_Tree_val@U?$_Tree_simple_types@U?$pair@$$CBEF@std@@@std@@@2@XZ 005a4e60 f i Unit.obj
 0002:00044ea0       ?_Get_second@?$_Compressed_pair@V?$allocator@U?$_Tree_node@U?$pair@$$CBEU_BUFF_TYPE9_INFO@@@std@@PAX@std@@@std@@V?$_Tree_val@U?$_Tree_simple_types@U?$pair@$$CBEU_BUFF_TYPE9_INFO@@@std@@@std@@@2@$00@std@@QAEAAV?$_Tree_val@U?$_Tree_simple_types@U?$pair@$$CBEU_BUFF_TYPE9_INFO@@@std@@@std@@@2@XZ 005a4ea0 f i Unit.obj
 0002:00044ee0       ?_Get_second@?$_Compressed_pair@V?$allocator@U?$_Tree_node@U?$pair@$$CBEU_BUFF_TYPE9_INFO@@@std@@PAX@std@@@std@@V?$_Tree_val@U?$_Tree_simple_types@U?$pair@$$CBEU_BUFF_TYPE9_INFO@@@std@@@std@@@2@$00@std@@QBEABV?$_Tree_val@U?$_Tree_simple_types@U?$pair@$$CBEU_BUFF_TYPE9_INFO@@@std@@@std@@@2@XZ 005a4ee0 f i Unit.obj
 0002:00044f20       ?_Get_second@?$_Compressed_pair@V?$allocator@U?$_Tree_node@U?$pair@$$CBEV?$map@EFU?$less@E@std@@V?$allocator@U?$pair@$$CBEF@std@@@2@@std@@@std@@PAX@std@@@std@@V?$_Tree_val@U?$_Tree_simple_types@U?$pair@$$CBEV?$map@EFU?$less@E@std@@V?$allocator@U?$pair@$$CBEF@std@@@2@@std@@@std@@@std@@@2@$00@std@@QAEAAV?$_Tree_val@U?$_Tree_simple_types@U?$pair@$$CBEV?$map@EFU?$less@E@std@@V?$allocator@U?$pair@$$CBEF@std@@@2@@std@@@std@@@std@@@2@XZ 005a4f20 f i Unit.obj
 0002:00044f60       ?_Get_second@?$_Compressed_pair@V?$allocator@U?$_Tree_node@U?$pair@$$CBEV?$map@EFU?$less@E@std@@V?$allocator@U?$pair@$$CBEF@std@@@2@@std@@@std@@PAX@std@@@std@@V?$_Tree_val@U?$_Tree_simple_types@U?$pair@$$CBEV?$map@EFU?$less@E@std@@V?$allocator@U?$pair@$$CBEF@std@@@2@@std@@@std@@@std@@@2@$00@std@@QBEABV?$_Tree_val@U?$_Tree_simple_types@U?$pair@$$CBEV?$map@EFU?$less@E@std@@V?$allocator@U?$pair@$$CBEF@std@@@2@@std@@@std@@@std@@@2@XZ 005a4f60 f i Unit.obj
 0002:00044fa0       ?_Get_second@?$_Compressed_pair@V?$allocator@U?$_Tree_node@U?$pair@$$CBIPAU_MAGIC_TYPE1@@@std@@PAX@std@@@std@@V?$_Tree_val@U?$_Tree_simple_types@U?$pair@$$CBIPAU_MAGIC_TYPE1@@@std@@@std@@@2@$00@std@@QAEAAV?$_Tree_val@U?$_Tree_simple_types@U?$pair@$$CBIPAU_MAGIC_TYPE1@@@std@@@std@@@2@XZ 005a4fa0 f i Unit.obj
 0002:00044fe0       ?_Get_second@?$_Compressed_pair@V?$allocator@U?$_Tree_node@U?$pair@$$CBIPAU_MAGIC_TYPE1@@@std@@PAX@std@@@std@@V?$_Tree_val@U?$_Tree_simple_types@U?$pair@$$CBIPAU_MAGIC_TYPE1@@@std@@@std@@@2@$00@std@@QBEABV?$_Tree_val@U?$_Tree_simple_types@U?$pair@$$CBIPAU_MAGIC_TYPE1@@@std@@@std@@@2@XZ 005a4fe0 f i Unit.obj
 0002:00045020       ?_Get_second@?$_Compressed_pair@V?$allocator@U?$_Tree_node@U?$pair@$$CBIPAU_MAGIC_TYPE2@@@std@@PAX@std@@@std@@V?$_Tree_val@U?$_Tree_simple_types@U?$pair@$$CBIPAU_MAGIC_TYPE2@@@std@@@std@@@2@$00@std@@QAEAAV?$_Tree_val@U?$_Tree_simple_types@U?$pair@$$CBIPAU_MAGIC_TYPE2@@@std@@@std@@@2@XZ 005a5020 f i Unit.obj
 0002:00045060       ?_Get_second@?$_Compressed_pair@V?$allocator@U?$_Tree_node@U?$pair@$$CBIPAU_MAGIC_TYPE2@@@std@@PAX@std@@@std@@V?$_Tree_val@U?$_Tree_simple_types@U?$pair@$$CBIPAU_MAGIC_TYPE2@@@std@@@std@@@2@$00@std@@QBEABV?$_Tree_val@U?$_Tree_simple_types@U?$pair@$$CBIPAU_MAGIC_TYPE2@@@std@@@std@@@2@XZ 005a5060 f i Unit.obj
 0002:000450a0       ?_Getal@?$_Tree_comp_alloc@V?$_Tmap_traits@EFU?$less@E@std@@V?$allocator@U?$pair@$$CBEF@std@@@2@$0A@@std@@@std@@QAEAAV?$allocator@U?$_Tree_node@U?$pair@$$CBEF@std@@PAX@std@@@2@XZ 005a50a0 f i Unit.obj
 0002:00045100       ?_Getal@?$_Tree_comp_alloc@V?$_Tmap_traits@EU_BUFF_TYPE4_INFO@@U?$less@E@std@@V?$allocator@U?$pair@$$CBEU_BUFF_TYPE4_INFO@@@std@@@3@$0A@@std@@@std@@QBEABV?$allocator@U?$_Tree_node@U?$pair@$$CBEU_BUFF_TYPE4_INFO@@@std@@PAX@std@@@2@XZ 005a5100 f i Unit.obj
 0002:00045160       ?_Getal@?$_Tree_comp_alloc@V?$_Tmap_traits@EU_BUFF_TYPE9_INFO@@U?$less@E@std@@V?$allocator@U?$pair@$$CBEU_BUFF_TYPE9_INFO@@@std@@@3@$0A@@std@@@std@@QAEAAV?$allocator@U?$_Tree_node@U?$pair@$$CBEU_BUFF_TYPE9_INFO@@@std@@PAX@std@@@2@XZ 005a5160 f i Unit.obj
 0002:000451c0       ?_Getal@?$_Tree_comp_alloc@V?$_Tmap_traits@EV?$map@EFU?$less@E@std@@V?$allocator@U?$pair@$$CBEF@std@@@2@@std@@U?$less@E@2@V?$allocator@U?$pair@$$CBEV?$map@EFU?$less@E@std@@V?$allocator@U?$pair@$$CBEF@std@@@2@@std@@@std@@@2@$0A@@std@@@std@@QAEAAV?$allocator@U?$_Tree_node@U?$pair@$$CBEV?$map@EFU?$less@E@std@@V?$allocator@U?$pair@$$CBEF@std@@@2@@std@@@std@@PAX@std@@@2@XZ 005a51c0 f i Unit.obj
 0002:00045220       ?_Getcomp@?$_Tree_comp_alloc@V?$_Tmap_traits@IPAU_MAGIC_TYPE1@@U?$less@I@std@@V?$allocator@U?$pair@$$CBIPAU_MAGIC_TYPE1@@@std@@@3@$0A@@std@@@std@@QAEAAU?$less@I@2@XZ 005a5220 f i Unit.obj
 0002:00045270       ?_Getcomp@?$_Tree_comp_alloc@V?$_Tmap_traits@IPAU_MAGIC_TYPE1@@U?$less@I@std@@V?$allocator@U?$pair@$$CBIPAU_MAGIC_TYPE1@@@std@@@3@$0A@@std@@@std@@QBEABU?$less@I@2@XZ 005a5270 f i Unit.obj
 0002:000452c0       ?_Getcomp@?$_Tree_comp_alloc@V?$_Tmap_traits@IPAU_MAGIC_TYPE2@@U?$less@I@std@@V?$allocator@U?$pair@$$CBIPAU_MAGIC_TYPE2@@@std@@@3@$0A@@std@@@std@@QAEAAU?$less@I@2@XZ 005a52c0 f i Unit.obj
 0002:00045310       ?_Getcomp@?$_Tree_comp_alloc@V?$_Tmap_traits@IPAU_MAGIC_TYPE2@@U?$less@I@std@@V?$allocator@U?$pair@$$CBIPAU_MAGIC_TYPE2@@@std@@@3@$0A@@std@@@std@@QBEABU?$less@I@2@XZ 005a5310 f i Unit.obj
 0002:00045360       ?_Getpfirst@?$_Tree_comp_alloc@V?$_Tmap_traits@EFU?$less@E@std@@V?$allocator@U?$pair@$$CBEF@std@@@2@$0A@@std@@@std@@QBEPAPAU_Iterator_base12@2@XZ 005a5360 f i Unit.obj
 0002:000453c0       ?_Getpfirst@?$_Tree_comp_alloc@V?$_Tmap_traits@EU_BUFF_TYPE9_INFO@@U?$less@E@std@@V?$allocator@U?$pair@$$CBEU_BUFF_TYPE9_INFO@@@std@@@3@$0A@@std@@@std@@QBEPAPAU_Iterator_base12@2@XZ 005a53c0 f i Unit.obj
 0002:00045420       ?_Getpfirst@?$_Tree_comp_alloc@V?$_Tmap_traits@EV?$map@EFU?$less@E@std@@V?$allocator@U?$pair@$$CBEF@std@@@2@@std@@U?$less@E@2@V?$allocator@U?$pair@$$CBEV?$map@EFU?$less@E@std@@V?$allocator@U?$pair@$$CBEF@std@@@2@@std@@@std@@@2@$0A@@std@@@std@@QBEPAPAU_Iterator_base12@2@XZ 005a5420 f i Unit.obj
 0002:00045480       ?_Key@?$_Tree@V?$_Tmap_traits@IPAU_MAGIC_TYPE1@@U?$less@I@std@@V?$allocator@U?$pair@$$CBIPAU_MAGIC_TYPE1@@@std@@@3@$0A@@std@@@std@@IBEABIPAU?$_Tree_node@U?$pair@$$CBIPAU_MAGIC_TYPE1@@@std@@PAX@2@@Z 005a5480 f i Unit.obj
 0002:000454e0       ?_Key@?$_Tree@V?$_Tmap_traits@IPAU_MAGIC_TYPE2@@U?$less@I@std@@V?$allocator@U?$pair@$$CBIPAU_MAGIC_TYPE2@@@std@@@3@$0A@@std@@@std@@IBEABIPAU?$_Tree_node@U?$pair@$$CBIPAU_MAGIC_TYPE2@@@std@@PAX@2@@Z 005a54e0 f i Unit.obj
 0002:00045540       ?_Kfn@?$_Tree@V?$_Tmap_traits@IPAU_MAGIC_TYPE1@@U?$less@I@std@@V?$allocator@U?$pair@$$CBIPAU_MAGIC_TYPE1@@@std@@@3@$0A@@std@@@std@@IBEABIABU?$pair@$$CBIPAU_MAGIC_TYPE1@@@2@@Z 005a5540 f i Unit.obj
 0002:000455a0       ?_Kfn@?$_Tree@V?$_Tmap_traits@IPAU_MAGIC_TYPE2@@U?$less@I@std@@V?$allocator@U?$pair@$$CBIPAU_MAGIC_TYPE2@@@std@@@3@$0A@@std@@@std@@IBEABIABU?$pair@$$CBIPAU_MAGIC_TYPE2@@@2@@Z 005a55a0 f i Unit.obj
 0002:00045600       ?_Lmost@?$_Tree@V?$_Tmap_traits@EFU?$less@E@std@@V?$allocator@U?$pair@$$CBEF@std@@@2@$0A@@std@@@std@@IBEAAPAU?$_Tree_node@U?$pair@$$CBEF@std@@PAX@2@XZ 005a5600 f i Unit.obj
 0002:00045660       ?_Lmost@?$_Tree@V?$_Tmap_traits@EU_BUFF_TYPE9_INFO@@U?$less@E@std@@V?$allocator@U?$pair@$$CBEU_BUFF_TYPE9_INFO@@@std@@@3@$0A@@std@@@std@@IBEAAPAU?$_Tree_node@U?$pair@$$CBEU_BUFF_TYPE9_INFO@@@std@@PAX@2@XZ 005a5660 f i Unit.obj
 0002:000456c0       ?_Lmost@?$_Tree@V?$_Tmap_traits@EV?$map@EFU?$less@E@std@@V?$allocator@U?$pair@$$CBEF@std@@@2@@std@@U?$less@E@2@V?$allocator@U?$pair@$$CBEV?$map@EFU?$less@E@std@@V?$allocator@U?$pair@$$CBEF@std@@@2@@std@@@std@@@2@$0A@@std@@@std@@IBEAAPAU?$_Tree_node@U?$pair@$$CBEV?$map@EFU?$less@E@std@@V?$allocator@U?$pair@$$CBEF@std@@@2@@std@@@std@@PAX@2@XZ 005a56c0 f i Unit.obj
 0002:00045720       ?_Lrotate@?$_Tree@V?$_Tmap_traits@EFU?$less@E@std@@V?$allocator@U?$pair@$$CBEF@std@@@2@$0A@@std@@@std@@IAEXPAU?$_Tree_node@U?$pair@$$CBEF@std@@PAX@2@@Z 005a5720 f i Unit.obj
 0002:00045820       ?_Lrotate@?$_Tree@V?$_Tmap_traits@EU_BUFF_TYPE9_INFO@@U?$less@E@std@@V?$allocator@U?$pair@$$CBEU_BUFF_TYPE9_INFO@@@std@@@3@$0A@@std@@@std@@IAEXPAU?$_Tree_node@U?$pair@$$CBEU_BUFF_TYPE9_INFO@@@std@@PAX@2@@Z 005a5820 f i Unit.obj
 0002:00045920       ?_Lrotate@?$_Tree@V?$_Tmap_traits@EV?$map@EFU?$less@E@std@@V?$allocator@U?$pair@$$CBEF@std@@@2@@std@@U?$less@E@2@V?$allocator@U?$pair@$$CBEV?$map@EFU?$less@E@std@@V?$allocator@U?$pair@$$CBEF@std@@@2@@std@@@std@@@2@$0A@@std@@@std@@IAEXPAU?$_Tree_node@U?$pair@$$CBEV?$map@EFU?$less@E@std@@V?$allocator@U?$pair@$$CBEF@std@@@2@@std@@@std@@PAX@2@@Z 005a5920 f i Unit.obj
 0002:00045a20       ?_Max@?$_Tree_comp_alloc@V?$_Tmap_traits@EFU?$less@E@std@@V?$allocator@U?$pair@$$CBEF@std@@@2@$0A@@std@@@std@@SAPAU?$_Tree_node@U?$pair@$$CBEF@std@@PAX@2@PAU32@@Z 005a5a20 f i Unit.obj
 0002:00045a70       ?_Max@?$_Tree_comp_alloc@V?$_Tmap_traits@EU_BUFF_TYPE9_INFO@@U?$less@E@std@@V?$allocator@U?$pair@$$CBEU_BUFF_TYPE9_INFO@@@std@@@3@$0A@@std@@@std@@SAPAU?$_Tree_node@U?$pair@$$CBEU_BUFF_TYPE9_INFO@@@std@@PAX@2@PAU32@@Z 005a5a70 f i Unit.obj
 0002:00045ac0       ?_Max@?$_Tree_comp_alloc@V?$_Tmap_traits@EV?$map@EFU?$less@E@std@@V?$allocator@U?$pair@$$CBEF@std@@@2@@std@@U?$less@E@2@V?$allocator@U?$pair@$$CBEV?$map@EFU?$less@E@std@@V?$allocator@U?$pair@$$CBEF@std@@@2@@std@@@std@@@2@$0A@@std@@@std@@SAPAU?$_Tree_node@U?$pair@$$CBEV?$map@EFU?$less@E@std@@V?$allocator@U?$pair@$$CBEF@std@@@2@@std@@@std@@PAX@2@PAU32@@Z 005a5ac0 f i Unit.obj
 0002:00045b10       ?_Max@?$_Tree_val@U?$_Tree_simple_types@U?$pair@$$CBEF@std@@@std@@@std@@SAPAU?$_Tree_node@U?$pair@$$CBEF@std@@PAX@2@PAU32@@Z 005a5b10 f i Unit.obj
 0002:00045b70       ?_Max@?$_Tree_val@U?$_Tree_simple_types@U?$pair@$$CBEU_BUFF_TYPE9_INFO@@@std@@@std@@@std@@SAPAU?$_Tree_node@U?$pair@$$CBEU_BUFF_TYPE9_INFO@@@std@@PAX@2@PAU32@@Z 005a5b70 f i Unit.obj
 0002:00045bd0       ?_Max@?$_Tree_val@U?$_Tree_simple_types@U?$pair@$$CBEV?$map@EFU?$less@E@std@@V?$allocator@U?$pair@$$CBEF@std@@@2@@std@@@std@@@std@@@std@@SAPAU?$_Tree_node@U?$pair@$$CBEV?$map@EFU?$less@E@std@@V?$allocator@U?$pair@$$CBEF@std@@@2@@std@@@std@@PAX@2@PAU32@@Z 005a5bd0 f i Unit.obj
 0002:00045c30       ?_Min@?$_Tree_comp_alloc@V?$_Tmap_traits@EFU?$less@E@std@@V?$allocator@U?$pair@$$CBEF@std@@@2@$0A@@std@@@std@@SAPAU?$_Tree_node@U?$pair@$$CBEF@std@@PAX@2@PAU32@@Z 005a5c30 f i Unit.obj
 0002:00045c80       ?_Min@?$_Tree_comp_alloc@V?$_Tmap_traits@EU_BUFF_TYPE9_INFO@@U?$less@E@std@@V?$allocator@U?$pair@$$CBEU_BUFF_TYPE9_INFO@@@std@@@3@$0A@@std@@@std@@SAPAU?$_Tree_node@U?$pair@$$CBEU_BUFF_TYPE9_INFO@@@std@@PAX@2@PAU32@@Z 005a5c80 f i Unit.obj
 0002:00045cd0       ?_Min@?$_Tree_comp_alloc@V?$_Tmap_traits@EV?$map@EFU?$less@E@std@@V?$allocator@U?$pair@$$CBEF@std@@@2@@std@@U?$less@E@2@V?$allocator@U?$pair@$$CBEV?$map@EFU?$less@E@std@@V?$allocator@U?$pair@$$CBEF@std@@@2@@std@@@std@@@2@$0A@@std@@@std@@SAPAU?$_Tree_node@U?$pair@$$CBEV?$map@EFU?$less@E@std@@V?$allocator@U?$pair@$$CBEF@std@@@2@@std@@@std@@PAX@2@PAU32@@Z 005a5cd0 f i Unit.obj
 0002:00045d20       ?_Min@?$_Tree_val@U?$_Tree_simple_types@U?$pair@$$CBEF@std@@@std@@@std@@SAPAU?$_Tree_node@U?$pair@$$CBEF@std@@PAX@2@PAU32@@Z 005a5d20 f i Unit.obj
 0002:00045d70       ?_Min@?$_Tree_val@U?$_Tree_simple_types@U?$pair@$$CBEU_BUFF_TYPE9_INFO@@@std@@@std@@@std@@SAPAU?$_Tree_node@U?$pair@$$CBEU_BUFF_TYPE9_INFO@@@std@@PAX@2@PAU32@@Z 005a5d70 f i Unit.obj
 0002:00045dc0       ?_Min@?$_Tree_val@U?$_Tree_simple_types@U?$pair@$$CBEV?$map@EFU?$less@E@std@@V?$allocator@U?$pair@$$CBEF@std@@@2@@std@@@std@@@std@@@std@@SAPAU?$_Tree_node@U?$pair@$$CBEV?$map@EFU?$less@E@std@@V?$allocator@U?$pair@$$CBEF@std@@@2@@std@@@std@@PAX@2@PAU32@@Z 005a5dc0 f i Unit.obj
 0002:00045e10       ?_Myhead@?$_Tree_comp_alloc@V?$_Tmap_traits@EFU?$less@E@std@@V?$allocator@U?$pair@$$CBEF@std@@@2@$0A@@std@@@std@@QAEAAPAU?$_Tree_node@U?$pair@$$CBEF@std@@PAX@2@XZ 005a5e10 f i Unit.obj
 0002:00045e70       ?_Myhead@?$_Tree_comp_alloc@V?$_Tmap_traits@EFU?$less@E@std@@V?$allocator@U?$pair@$$CBEF@std@@@2@$0A@@std@@@std@@QBEABQAU?$_Tree_node@U?$pair@$$CBEF@std@@PAX@2@XZ 005a5e70 f i Unit.obj
 0002:00045ed0       ?_Myhead@?$_Tree_comp_alloc@V?$_Tmap_traits@EU_BUFF_TYPE9_INFO@@U?$less@E@std@@V?$allocator@U?$pair@$$CBEU_BUFF_TYPE9_INFO@@@std@@@3@$0A@@std@@@std@@QAEAAPAU?$_Tree_node@U?$pair@$$CBEU_BUFF_TYPE9_INFO@@@std@@PAX@2@XZ 005a5ed0 f i Unit.obj
 0002:00045f30       ?_Myhead@?$_Tree_comp_alloc@V?$_Tmap_traits@EU_BUFF_TYPE9_INFO@@U?$less@E@std@@V?$allocator@U?$pair@$$CBEU_BUFF_TYPE9_INFO@@@std@@@3@$0A@@std@@@std@@QBEABQAU?$_Tree_node@U?$pair@$$CBEU_BUFF_TYPE9_INFO@@@std@@PAX@2@XZ 005a5f30 f i Unit.obj
 0002:00045f90       ?_Myhead@?$_Tree_comp_alloc@V?$_Tmap_traits@EV?$map@EFU?$less@E@std@@V?$allocator@U?$pair@$$CBEF@std@@@2@@std@@U?$less@E@2@V?$allocator@U?$pair@$$CBEV?$map@EFU?$less@E@std@@V?$allocator@U?$pair@$$CBEF@std@@@2@@std@@@std@@@2@$0A@@std@@@std@@QAEAAPAU?$_Tree_node@U?$pair@$$CBEV?$map@EFU?$less@E@std@@V?$allocator@U?$pair@$$CBEF@std@@@2@@std@@@std@@PAX@2@XZ 005a5f90 f i Unit.obj
 0002:00045ff0       ?_Myhead@?$_Tree_comp_alloc@V?$_Tmap_traits@EV?$map@EFU?$less@E@std@@V?$allocator@U?$pair@$$CBEF@std@@@2@@std@@U?$less@E@2@V?$allocator@U?$pair@$$CBEV?$map@EFU?$less@E@std@@V?$allocator@U?$pair@$$CBEF@std@@@2@@std@@@std@@@2@$0A@@std@@@std@@QBEABQAU?$_Tree_node@U?$pair@$$CBEV?$map@EFU?$less@E@std@@V?$allocator@U?$pair@$$CBEF@std@@@2@@std@@@std@@PAX@2@XZ 005a5ff0 f i Unit.obj
 0002:00046050       ?_Myhead@?$_Tree_comp_alloc@V?$_Tmap_traits@IPAU_MAGIC_TYPE1@@U?$less@I@std@@V?$allocator@U?$pair@$$CBIPAU_MAGIC_TYPE1@@@std@@@3@$0A@@std@@@std@@QAEAAPAU?$_Tree_node@U?$pair@$$CBIPAU_MAGIC_TYPE1@@@std@@PAX@2@XZ 005a6050 f i Unit.obj
 0002:000460b0       ?_Myhead@?$_Tree_comp_alloc@V?$_Tmap_traits@IPAU_MAGIC_TYPE1@@U?$less@I@std@@V?$allocator@U?$pair@$$CBIPAU_MAGIC_TYPE1@@@std@@@3@$0A@@std@@@std@@QBEABQAU?$_Tree_node@U?$pair@$$CBIPAU_MAGIC_TYPE1@@@std@@PAX@2@XZ 005a60b0 f i Unit.obj
 0002:00046110       ?_Myhead@?$_Tree_comp_alloc@V?$_Tmap_traits@IPAU_MAGIC_TYPE2@@U?$less@I@std@@V?$allocator@U?$pair@$$CBIPAU_MAGIC_TYPE2@@@std@@@3@$0A@@std@@@std@@QAEAAPAU?$_Tree_node@U?$pair@$$CBIPAU_MAGIC_TYPE2@@@std@@PAX@2@XZ 005a6110 f i Unit.obj
 0002:00046170       ?_Myhead@?$_Tree_comp_alloc@V?$_Tmap_traits@IPAU_MAGIC_TYPE2@@U?$less@I@std@@V?$allocator@U?$pair@$$CBIPAU_MAGIC_TYPE2@@@std@@@3@$0A@@std@@@std@@QBEABQAU?$_Tree_node@U?$pair@$$CBIPAU_MAGIC_TYPE2@@@std@@PAX@2@XZ 005a6170 f i Unit.obj
 0002:000461d0       ?_Mynode@?$_Tree_unchecked_const_iterator@V?$_Tree_val@U?$_Tree_simple_types@U?$pair@$$CBEF@std@@@std@@@std@@U_Iterator_base12@2@@std@@QBEPAU?$_Tree_node@U?$pair@$$CBEF@std@@PAX@2@XZ 005a61d0 f i Unit.obj
 0002:00046210       ?_Mynode@?$_Tree_unchecked_const_iterator@V?$_Tree_val@U?$_Tree_simple_types@U?$pair@$$CBEU_BUFF_TYPE9_INFO@@@std@@@std@@@std@@U_Iterator_base12@2@@std@@QBEPAU?$_Tree_node@U?$pair@$$CBEU_BUFF_TYPE9_INFO@@@std@@PAX@2@XZ 005a6210 f i Unit.obj
 0002:00046250       ?_Mynode@?$_Tree_unchecked_const_iterator@V?$_Tree_val@U?$_Tree_simple_types@U?$pair@$$CBEV?$map@EFU?$less@E@std@@V?$allocator@U?$pair@$$CBEF@std@@@2@@std@@@std@@@std@@@std@@U_Iterator_base12@2@@std@@QBEPAU?$_Tree_node@U?$pair@$$CBEV?$map@EFU?$less@E@std@@V?$allocator@U?$pair@$$CBEF@std@@@2@@std@@@std@@PAX@2@XZ 005a6250 f i Unit.obj
 0002:00046290       ?_Mynode@?$_Tree_unchecked_const_iterator@V?$_Tree_val@U?$_Tree_simple_types@U?$pair@$$CBIPAU_MAGIC_TYPE1@@@std@@@std@@@std@@U_Iterator_base12@2@@std@@QBEPAU?$_Tree_node@U?$pair@$$CBIPAU_MAGIC_TYPE1@@@std@@PAX@2@XZ 005a6290 f i Unit.obj
 0002:000462d0       ?_Mynode@?$_Tree_unchecked_const_iterator@V?$_Tree_val@U?$_Tree_simple_types@U?$pair@$$CBIPAU_MAGIC_TYPE2@@@std@@@std@@@std@@U_Iterator_base12@2@@std@@QBEPAU?$_Tree_node@U?$pair@$$CBIPAU_MAGIC_TYPE2@@@std@@PAX@2@XZ 005a62d0 f i Unit.obj
 0002:00046310       ?_Myproxy@?$_Tree_comp_alloc@V?$_Tmap_traits@EFU?$less@E@std@@V?$allocator@U?$pair@$$CBEF@std@@@2@$0A@@std@@@std@@QAEAAPAU_Container_proxy@2@XZ 005a6310 f i Unit.obj
 0002:00046360       ?_Myproxy@?$_Tree_comp_alloc@V?$_Tmap_traits@EU_BUFF_TYPE4_INFO@@U?$less@E@std@@V?$allocator@U?$pair@$$CBEU_BUFF_TYPE4_INFO@@@std@@@3@$0A@@std@@@std@@QAEAAPAU_Container_proxy@2@XZ 005a6360 f i Unit.obj
 0002:000463b0       ?_Myproxy@?$_Tree_comp_alloc@V?$_Tmap_traits@EU_BUFF_TYPE9_INFO@@U?$less@E@std@@V?$allocator@U?$pair@$$CBEU_BUFF_TYPE9_INFO@@@std@@@3@$0A@@std@@@std@@QAEAAPAU_Container_proxy@2@XZ 005a63b0 f i Unit.obj
 0002:00046400       ?_Myproxy@?$_Tree_comp_alloc@V?$_Tmap_traits@EV?$map@EFU?$less@E@std@@V?$allocator@U?$pair@$$CBEF@std@@@2@@std@@U?$less@E@2@V?$allocator@U?$pair@$$CBEV?$map@EFU?$less@E@std@@V?$allocator@U?$pair@$$CBEF@std@@@2@@std@@@std@@@2@$0A@@std@@@std@@QAEAAPAU_Container_proxy@2@XZ 005a6400 f i Unit.obj
 0002:00046450       ?_Mysize@?$_Tree_comp_alloc@V?$_Tmap_traits@EFU?$less@E@std@@V?$allocator@U?$pair@$$CBEF@std@@@2@$0A@@std@@@std@@QAEAAIXZ 005a6450 f i Unit.obj
 0002:000464b0       ?_Mysize@?$_Tree_comp_alloc@V?$_Tmap_traits@EFU?$less@E@std@@V?$allocator@U?$pair@$$CBEF@std@@@2@$0A@@std@@@std@@QBEABIXZ 005a64b0 f i Unit.obj
 0002:00046510       ?_Mysize@?$_Tree_comp_alloc@V?$_Tmap_traits@EU_BUFF_TYPE4_INFO@@U?$less@E@std@@V?$allocator@U?$pair@$$CBEU_BUFF_TYPE4_INFO@@@std@@@3@$0A@@std@@@std@@QBEABIXZ 005a6510 f i Unit.obj
 0002:00046570       ?_Mysize@?$_Tree_comp_alloc@V?$_Tmap_traits@EU_BUFF_TYPE9_INFO@@U?$less@E@std@@V?$allocator@U?$pair@$$CBEU_BUFF_TYPE9_INFO@@@std@@@3@$0A@@std@@@std@@QAEAAIXZ 005a6570 f i Unit.obj
 0002:000465d0       ?_Mysize@?$_Tree_comp_alloc@V?$_Tmap_traits@EV?$map@EFU?$less@E@std@@V?$allocator@U?$pair@$$CBEF@std@@@2@@std@@U?$less@E@2@V?$allocator@U?$pair@$$CBEV?$map@EFU?$less@E@std@@V?$allocator@U?$pair@$$CBEF@std@@@2@@std@@@std@@@2@$0A@@std@@@std@@QAEAAIXZ 005a65d0 f i Unit.obj
 0002:00046630       ?_Mysize@?$_Tree_comp_alloc@V?$_Tmap_traits@EV?$map@EFU?$less@E@std@@V?$allocator@U?$pair@$$CBEF@std@@@2@@std@@U?$less@E@2@V?$allocator@U?$pair@$$CBEV?$map@EFU?$less@E@std@@V?$allocator@U?$pair@$$CBEF@std@@@2@@std@@@std@@@2@$0A@@std@@@std@@QBEABIXZ 005a6630 f i Unit.obj
 0002:00046690       ?_Orphan_all@?$_Tree_comp_alloc@V?$_Tmap_traits@EFU?$less@E@std@@V?$allocator@U?$pair@$$CBEF@std@@@2@$0A@@std@@@std@@QAEXXZ 005a6690 f i Unit.obj
 0002:000466f0       ?_Orphan_all@?$_Tree_comp_alloc@V?$_Tmap_traits@EU_BUFF_TYPE4_INFO@@U?$less@E@std@@V?$allocator@U?$pair@$$CBEU_BUFF_TYPE4_INFO@@@std@@@3@$0A@@std@@@std@@QAEXXZ 005a66f0 f i Unit.obj
 0002:00046750       ?_Orphan_all@?$_Tree_comp_alloc@V?$_Tmap_traits@EU_BUFF_TYPE9_INFO@@U?$less@E@std@@V?$allocator@U?$pair@$$CBEU_BUFF_TYPE9_INFO@@@std@@@3@$0A@@std@@@std@@QAEXXZ 005a6750 f i Unit.obj
 0002:000467b0       ?_Orphan_all@?$_Tree_comp_alloc@V?$_Tmap_traits@EV?$map@EFU?$less@E@std@@V?$allocator@U?$pair@$$CBEF@std@@@2@@std@@U?$less@E@2@V?$allocator@U?$pair@$$CBEV?$map@EFU?$less@E@std@@V?$allocator@U?$pair@$$CBEF@std@@@2@@std@@@std@@@2@$0A@@std@@@std@@QAEXXZ 005a67b0 f i Unit.obj
 0002:00046810       ?_Orphan_ptr@?$_Tree@V?$_Tmap_traits@EFU?$less@E@std@@V?$allocator@U?$pair@$$CBEF@std@@@2@$0A@@std@@@std@@IAEXPAU?$_Tree_node@U?$pair@$$CBEF@std@@PAX@2@@Z 005a6810 f i Unit.obj
 0002:00046970       ?_Orphan_ptr@?$_Tree@V?$_Tmap_traits@EU_BUFF_TYPE9_INFO@@U?$less@E@std@@V?$allocator@U?$pair@$$CBEU_BUFF_TYPE9_INFO@@@std@@@3@$0A@@std@@@std@@IAEXPAU?$_Tree_node@U?$pair@$$CBEU_BUFF_TYPE9_INFO@@@std@@PAX@2@@Z 005a6970 f i Unit.obj
 0002:00046ad0       ?_Orphan_ptr@?$_Tree@V?$_Tmap_traits@EV?$map@EFU?$less@E@std@@V?$allocator@U?$pair@$$CBEF@std@@@2@@std@@U?$less@E@2@V?$allocator@U?$pair@$$CBEV?$map@EFU?$less@E@std@@V?$allocator@U?$pair@$$CBEF@std@@@2@@std@@@std@@@2@$0A@@std@@@std@@IAEXPAU?$_Tree_node@U?$pair@$$CBEV?$map@EFU?$less@E@std@@V?$allocator@U?$pair@$$CBEF@std@@@2@@std@@@std@@PAX@2@@Z 005a6ad0 f i Unit.obj
 0002:00046c30       ?_Rmost@?$_Tree@V?$_Tmap_traits@EFU?$less@E@std@@V?$allocator@U?$pair@$$CBEF@std@@@2@$0A@@std@@@std@@IBEAAPAU?$_Tree_node@U?$pair@$$CBEF@std@@PAX@2@XZ 005a6c30 f i Unit.obj
 0002:00046c90       ?_Rmost@?$_Tree@V?$_Tmap_traits@EU_BUFF_TYPE9_INFO@@U?$less@E@std@@V?$allocator@U?$pair@$$CBEU_BUFF_TYPE9_INFO@@@std@@@3@$0A@@std@@@std@@IBEAAPAU?$_Tree_node@U?$pair@$$CBEU_BUFF_TYPE9_INFO@@@std@@PAX@2@XZ 005a6c90 f i Unit.obj
 0002:00046cf0       ?_Rmost@?$_Tree@V?$_Tmap_traits@EV?$map@EFU?$less@E@std@@V?$allocator@U?$pair@$$CBEF@std@@@2@@std@@U?$less@E@2@V?$allocator@U?$pair@$$CBEV?$map@EFU?$less@E@std@@V?$allocator@U?$pair@$$CBEF@std@@@2@@std@@@std@@@2@$0A@@std@@@std@@IBEAAPAU?$_Tree_node@U?$pair@$$CBEV?$map@EFU?$less@E@std@@V?$allocator@U?$pair@$$CBEF@std@@@2@@std@@@std@@PAX@2@XZ 005a6cf0 f i Unit.obj
 0002:00046d50       ?_Root@?$_Tree@V?$_Tmap_traits@EFU?$less@E@std@@V?$allocator@U?$pair@$$CBEF@std@@@2@$0A@@std@@@std@@IBEAAPAU?$_Tree_node@U?$pair@$$CBEF@std@@PAX@2@XZ 005a6d50 f i Unit.obj
 0002:00046db0       ?_Root@?$_Tree@V?$_Tmap_traits@EU_BUFF_TYPE9_INFO@@U?$less@E@std@@V?$allocator@U?$pair@$$CBEU_BUFF_TYPE9_INFO@@@std@@@3@$0A@@std@@@std@@IBEAAPAU?$_Tree_node@U?$pair@$$CBEU_BUFF_TYPE9_INFO@@@std@@PAX@2@XZ 005a6db0 f i Unit.obj
 0002:00046e10       ?_Root@?$_Tree@V?$_Tmap_traits@EV?$map@EFU?$less@E@std@@V?$allocator@U?$pair@$$CBEF@std@@@2@@std@@U?$less@E@2@V?$allocator@U?$pair@$$CBEV?$map@EFU?$less@E@std@@V?$allocator@U?$pair@$$CBEF@std@@@2@@std@@@std@@@2@$0A@@std@@@std@@IBEAAPAU?$_Tree_node@U?$pair@$$CBEV?$map@EFU?$less@E@std@@V?$allocator@U?$pair@$$CBEF@std@@@2@@std@@@std@@PAX@2@XZ 005a6e10 f i Unit.obj
 0002:00046e70       ?_Root@?$_Tree@V?$_Tmap_traits@IPAU_MAGIC_TYPE1@@U?$less@I@std@@V?$allocator@U?$pair@$$CBIPAU_MAGIC_TYPE1@@@std@@@3@$0A@@std@@@std@@IBEAAPAU?$_Tree_node@U?$pair@$$CBIPAU_MAGIC_TYPE1@@@std@@PAX@2@XZ 005a6e70 f i Unit.obj
 0002:00046ed0       ?_Root@?$_Tree@V?$_Tmap_traits@IPAU_MAGIC_TYPE2@@U?$less@I@std@@V?$allocator@U?$pair@$$CBIPAU_MAGIC_TYPE2@@@std@@@3@$0A@@std@@@std@@IBEAAPAU?$_Tree_node@U?$pair@$$CBIPAU_MAGIC_TYPE2@@@std@@PAX@2@XZ 005a6ed0 f i Unit.obj
 0002:00046f30       ?_Rrotate@?$_Tree@V?$_Tmap_traits@EFU?$less@E@std@@V?$allocator@U?$pair@$$CBEF@std@@@2@$0A@@std@@@std@@IAEXPAU?$_Tree_node@U?$pair@$$CBEF@std@@PAX@2@@Z 005a6f30 f i Unit.obj
 0002:00047030       ?_Rrotate@?$_Tree@V?$_Tmap_traits@EU_BUFF_TYPE9_INFO@@U?$less@E@std@@V?$allocator@U?$pair@$$CBEU_BUFF_TYPE9_INFO@@@std@@@3@$0A@@std@@@std@@IAEXPAU?$_Tree_node@U?$pair@$$CBEU_BUFF_TYPE9_INFO@@@std@@PAX@2@@Z 005a7030 f i Unit.obj
 0002:00047130       ?_Rrotate@?$_Tree@V?$_Tmap_traits@EV?$map@EFU?$less@E@std@@V?$allocator@U?$pair@$$CBEF@std@@@2@@std@@U?$less@E@2@V?$allocator@U?$pair@$$CBEV?$map@EFU?$less@E@std@@V?$allocator@U?$pair@$$CBEF@std@@@2@@std@@@std@@@2@$0A@@std@@@std@@IAEXPAU?$_Tree_node@U?$pair@$$CBEV?$map@EFU?$less@E@std@@V?$allocator@U?$pair@$$CBEF@std@@@2@@std@@@std@@PAX@2@@Z 005a7130 f i Unit.obj
 0002:00047230       ?_Tidy@?$_Tree@V?$_Tmap_traits@EFU?$less@E@std@@V?$allocator@U?$pair@$$CBEF@std@@@2@$0A@@std@@@std@@IAEXXZ 005a7230 f i Unit.obj
 0002:000473a0       ?_Tidy@?$_Tree@V?$_Tmap_traits@EU_BUFF_TYPE4_INFO@@U?$less@E@std@@V?$allocator@U?$pair@$$CBEU_BUFF_TYPE4_INFO@@@std@@@3@$0A@@std@@@std@@IAEXXZ 005a73a0 f i Unit.obj
 0002:00047510       ?_Tidy@?$_Tree@V?$_Tmap_traits@EU_BUFF_TYPE9_INFO@@U?$less@E@std@@V?$allocator@U?$pair@$$CBEU_BUFF_TYPE9_INFO@@@std@@@3@$0A@@std@@@std@@IAEXXZ 005a7510 f i Unit.obj
 0002:00047680       ?_Tidy@?$_Tree@V?$_Tmap_traits@EV?$map@EFU?$less@E@std@@V?$allocator@U?$pair@$$CBEF@std@@@2@@std@@U?$less@E@2@V?$allocator@U?$pair@$$CBEV?$map@EFU?$less@E@std@@V?$allocator@U?$pair@$$CBEF@std@@@2@@std@@@std@@@2@$0A@@std@@@std@@IAEXXZ 005a7680 f i Unit.obj
 0002:000477f0       ?allocate@?$allocator@U?$_Tree_node@U?$pair@$$CBEU_BUFF_TYPE4_INFO@@@std@@PAX@std@@@std@@QAEPAU?$_Tree_node@U?$pair@$$CBEU_BUFF_TYPE4_INFO@@@std@@PAX@2@I@Z 005a77f0 f i Unit.obj
 0002:00047850       ?allocate@?$allocator@U?$_Tree_node@U?$pair@$$CBEU_BUFF_TYPE9_INFO@@@std@@PAX@std@@@std@@QAEPAU?$_Tree_node@U?$pair@$$CBEU_BUFF_TYPE9_INFO@@@std@@PAX@2@I@Z 005a7850 f i Unit.obj
 0002:000478b0       ?allocate@?$allocator@U?$_Tree_node@U?$pair@$$CBEV?$map@EFU?$less@E@std@@V?$allocator@U?$pair@$$CBEF@std@@@2@@std@@@std@@PAX@std@@@std@@QAEPAU?$_Tree_node@U?$pair@$$CBEV?$map@EFU?$less@E@std@@V?$allocator@U?$pair@$$CBEF@std@@@2@@std@@@std@@PAX@2@I@Z 005a78b0 f i Unit.obj
 0002:00047910       ?areNPCsFriendly@MAP@@QAE_NXZ 005a7910 f i Unit.obj
 0002:00047980       ?begin@?$_Tree@V?$_Tmap_traits@EFU?$less@E@std@@V?$allocator@U?$pair@$$CBEF@std@@@2@$0A@@std@@@std@@QAE?AV?$_Tree_iterator@V?$_Tree_val@U?$_Tree_simple_types@U?$pair@$$CBEF@std@@@std@@@std@@@2@XZ 005a7980 f i Unit.obj
 0002:00047a30       ?begin@?$_Tree@V?$_Tmap_traits@EU_BUFF_TYPE4_INFO@@U?$less@E@std@@V?$allocator@U?$pair@$$CBEU_BUFF_TYPE4_INFO@@@std@@@3@$0A@@std@@@std@@QAE?AV?$_Tree_iterator@V?$_Tree_val@U?$_Tree_simple_types@U?$pair@$$CBEU_BUFF_TYPE4_INFO@@@std@@@std@@@std@@@2@XZ 005a7a30 f i Unit.obj
 0002:00047ae0       ?begin@?$_Tree@V?$_Tmap_traits@EU_BUFF_TYPE9_INFO@@U?$less@E@std@@V?$allocator@U?$pair@$$CBEU_BUFF_TYPE9_INFO@@@std@@@3@$0A@@std@@@std@@QAE?AV?$_Tree_iterator@V?$_Tree_val@U?$_Tree_simple_types@U?$pair@$$CBEU_BUFF_TYPE9_INFO@@@std@@@std@@@std@@@2@XZ 005a7ae0 f i Unit.obj
 0002:00047b90       ?begin@?$_Tree@V?$_Tmap_traits@EV?$map@EFU?$less@E@std@@V?$allocator@U?$pair@$$CBEF@std@@@2@@std@@U?$less@E@2@V?$allocator@U?$pair@$$CBEV?$map@EFU?$less@E@std@@V?$allocator@U?$pair@$$CBEF@std@@@2@@std@@@std@@@2@$0A@@std@@@std@@QAE?AV?$_Tree_iterator@V?$_Tree_val@U?$_Tree_simple_types@U?$pair@$$CBEV?$map@EFU?$less@E@std@@V?$allocator@U?$pair@$$CBEF@std@@@2@@std@@@std@@@std@@@std@@@2@XZ 005a7b90 f i Unit.obj
 0002:00047c40       ?canAttackOtherNation@MAP@@QAE_NXZ 005a7c40 f i Unit.obj
 0002:00047cb0       ?clear@?$_Tree@V?$_Tmap_traits@EFU?$less@E@std@@V?$allocator@U?$pair@$$CBEF@std@@@2@$0A@@std@@@std@@QAEXXZ 005a7cb0 f i Unit.obj
 0002:00047dc0       ?clear@?$_Tree@V?$_Tmap_traits@EU_BUFF_TYPE4_INFO@@U?$less@E@std@@V?$allocator@U?$pair@$$CBEU_BUFF_TYPE4_INFO@@@std@@@3@$0A@@std@@@std@@QAEXXZ 005a7dc0 f i Unit.obj
 0002:00047ed0       ?clear@?$_Tree@V?$_Tmap_traits@EU_BUFF_TYPE9_INFO@@U?$less@E@std@@V?$allocator@U?$pair@$$CBEU_BUFF_TYPE9_INFO@@@std@@@3@$0A@@std@@@std@@QAEXXZ 005a7ed0 f i Unit.obj
 0002:00047fe0       ?clear@?$_Tree@V?$_Tmap_traits@EV?$map@EFU?$less@E@std@@V?$allocator@U?$pair@$$CBEF@std@@@2@@std@@U?$less@E@2@V?$allocator@U?$pair@$$CBEV?$map@EFU?$less@E@std@@V?$allocator@U?$pair@$$CBEF@std@@@2@@std@@@std@@@2@$0A@@std@@@std@@QAEXXZ 005a7fe0 f i Unit.obj
 0002:000480f0       ?deallocate@?$allocator@U?$_Tree_node@U?$pair@$$CBEF@std@@PAX@std@@@std@@QAEXQAU?$_Tree_node@U?$pair@$$CBEF@std@@PAX@2@I@Z 005a80f0 f i Unit.obj
 0002:00048150       ?deallocate@?$allocator@U?$_Tree_node@U?$pair@$$CBEU_BUFF_TYPE9_INFO@@@std@@PAX@std@@@std@@QAEXQAU?$_Tree_node@U?$pair@$$CBEU_BUFF_TYPE9_INFO@@@std@@PAX@2@I@Z 005a8150 f i Unit.obj
 0002:000481b0       ?deallocate@?$allocator@U?$_Tree_node@U?$pair@$$CBEV?$map@EFU?$less@E@std@@V?$allocator@U?$pair@$$CBEF@std@@@2@@std@@@std@@PAX@std@@@std@@QAEXQAU?$_Tree_node@U?$pair@$$CBEV?$map@EFU?$less@E@std@@V?$allocator@U?$pair@$$CBEF@std@@@2@@std@@@std@@PAX@2@I@Z 005a81b0 f i Unit.obj
 0002:00048210       ?end@?$_Tree@V?$_Tmap_traits@EFU?$less@E@std@@V?$allocator@U?$pair@$$CBEF@std@@@2@$0A@@std@@@std@@QAE?AV?$_Tree_iterator@V?$_Tree_val@U?$_Tree_simple_types@U?$pair@$$CBEF@std@@@std@@@std@@@2@XZ 005a8210 f i Unit.obj
 0002:000482c0       ?end@?$_Tree@V?$_Tmap_traits@EU_BUFF_TYPE9_INFO@@U?$less@E@std@@V?$allocator@U?$pair@$$CBEU_BUFF_TYPE9_INFO@@@std@@@3@$0A@@std@@@std@@QAE?AV?$_Tree_iterator@V?$_Tree_val@U?$_Tree_simple_types@U?$pair@$$CBEU_BUFF_TYPE9_INFO@@@std@@@std@@@std@@@2@XZ 005a82c0 f i Unit.obj
 0002:00048370       ?end@?$_Tree@V?$_Tmap_traits@EV?$map@EFU?$less@E@std@@V?$allocator@U?$pair@$$CBEF@std@@@2@@std@@U?$less@E@2@V?$allocator@U?$pair@$$CBEV?$map@EFU?$less@E@std@@V?$allocator@U?$pair@$$CBEF@std@@@2@@std@@@std@@@2@$0A@@std@@@std@@QAE?AV?$_Tree_iterator@V?$_Tree_val@U?$_Tree_simple_types@U?$pair@$$CBEV?$map@EFU?$less@E@std@@V?$allocator@U?$pair@$$CBEF@std@@@2@@std@@@std@@@std@@@std@@@2@XZ 005a8370 f i Unit.obj
 0002:00048420       ?end@?$_Tree@V?$_Tmap_traits@IPAU_MAGIC_TYPE1@@U?$less@I@std@@V?$allocator@U?$pair@$$CBIPAU_MAGIC_TYPE1@@@std@@@3@$0A@@std@@@std@@QAE?AV?$_Tree_iterator@V?$_Tree_val@U?$_Tree_simple_types@U?$pair@$$CBIPAU_MAGIC_TYPE1@@@std@@@std@@@std@@@2@XZ 005a8420 f i Unit.obj
 0002:000484d0       ?end@?$_Tree@V?$_Tmap_traits@IPAU_MAGIC_TYPE2@@U?$less@I@std@@V?$allocator@U?$pair@$$CBIPAU_MAGIC_TYPE2@@@std@@@3@$0A@@std@@@std@@QAE?AV?$_Tree_iterator@V?$_Tree_val@U?$_Tree_simple_types@U?$pair@$$CBIPAU_MAGIC_TYPE2@@@std@@@std@@@std@@@2@XZ 005a84d0 f i Unit.obj
 0002:00048580       ?erase@?$_Tree@V?$_Tmap_traits@EFU?$less@E@std@@V?$allocator@U?$pair@$$CBEF@std@@@2@$0A@@std@@@std@@QAE?AV?$_Tree_iterator@V?$_Tree_val@U?$_Tree_simple_types@U?$pair@$$CBEF@std@@@std@@@std@@@2@V?$_Tree_const_iterator@V?$_Tree_val@U?$_Tree_simple_types@U?$pair@$$CBEF@std@@@std@@@std@@@2@0@Z 005a8580 f i Unit.obj
 0002:000488a0       ?erase@?$_Tree@V?$_Tmap_traits@EFU?$less@E@std@@V?$allocator@U?$pair@$$CBEF@std@@@2@$0A@@std@@@std@@QAE?AV?$_Tree_iterator@V?$_Tree_val@U?$_Tree_simple_types@U?$pair@$$CBEF@std@@@std@@@std@@@2@V?$_Tree_const_iterator@V?$_Tree_val@U?$_Tree_simple_types@U?$pair@$$CBEF@std@@@std@@@std@@@2@@Z 005a88a0 f i Unit.obj
 0002:00048fc0       ?erase@?$_Tree@V?$_Tmap_traits@EU_BUFF_TYPE4_INFO@@U?$less@E@std@@V?$allocator@U?$pair@$$CBEU_BUFF_TYPE4_INFO@@@std@@@3@$0A@@std@@@std@@QAE?AV?$_Tree_iterator@V?$_Tree_val@U?$_Tree_simple_types@U?$pair@$$CBEU_BUFF_TYPE4_INFO@@@std@@@std@@@std@@@2@V?$_Tree_const_iterator@V?$_Tree_val@U?$_Tree_simple_types@U?$pair@$$CBEU_BUFF_TYPE4_INFO@@@std@@@std@@@std@@@2@0@Z 005a8fc0 f i Unit.obj
 0002:000492e0       ?erase@?$_Tree@V?$_Tmap_traits@EU_BUFF_TYPE9_INFO@@U?$less@E@std@@V?$allocator@U?$pair@$$CBEU_BUFF_TYPE9_INFO@@@std@@@3@$0A@@std@@@std@@QAE?AV?$_Tree_iterator@V?$_Tree_val@U?$_Tree_simple_types@U?$pair@$$CBEU_BUFF_TYPE9_INFO@@@std@@@std@@@std@@@2@V?$_Tree_const_iterator@V?$_Tree_val@U?$_Tree_simple_types@U?$pair@$$CBEU_BUFF_TYPE9_INFO@@@std@@@std@@@std@@@2@0@Z 005a92e0 f i Unit.obj
 0002:00049600       ?erase@?$_Tree@V?$_Tmap_traits@EU_BUFF_TYPE9_INFO@@U?$less@E@std@@V?$allocator@U?$pair@$$CBEU_BUFF_TYPE9_INFO@@@std@@@3@$0A@@std@@@std@@QAE?AV?$_Tree_iterator@V?$_Tree_val@U?$_Tree_simple_types@U?$pair@$$CBEU_BUFF_TYPE9_INFO@@@std@@@std@@@std@@@2@V?$_Tree_const_iterator@V?$_Tree_val@U?$_Tree_simple_types@U?$pair@$$CBEU_BUFF_TYPE9_INFO@@@std@@@std@@@std@@@2@@Z 005a9600 f i Unit.obj
 0002:00049d20       ?erase@?$_Tree@V?$_Tmap_traits@EV?$map@EFU?$less@E@std@@V?$allocator@U?$pair@$$CBEF@std@@@2@@std@@U?$less@E@2@V?$allocator@U?$pair@$$CBEV?$map@EFU?$less@E@std@@V?$allocator@U?$pair@$$CBEF@std@@@2@@std@@@std@@@2@$0A@@std@@@std@@QAE?AV?$_Tree_iterator@V?$_Tree_val@U?$_Tree_simple_types@U?$pair@$$CBEV?$map@EFU?$less@E@std@@V?$allocator@U?$pair@$$CBEF@std@@@2@@std@@@std@@@std@@@std@@@2@V?$_Tree_const_iterator@V?$_Tree_val@U?$_Tree_simple_types@U?$pair@$$CBEV?$map@EFU?$less@E@std@@V?$allocator@U?$pair@$$CBEF@std@@@2@@std@@@std@@@std@@@std@@@2@0@Z 005a9d20 f i Unit.obj
 0002:0004a040       ?erase@?$_Tree@V?$_Tmap_traits@EV?$map@EFU?$less@E@std@@V?$allocator@U?$pair@$$CBEF@std@@@2@@std@@U?$less@E@2@V?$allocator@U?$pair@$$CBEV?$map@EFU?$less@E@std@@V?$allocator@U?$pair@$$CBEF@std@@@2@@std@@@std@@@2@$0A@@std@@@std@@QAE?AV?$_Tree_iterator@V?$_Tree_val@U?$_Tree_simple_types@U?$pair@$$CBEV?$map@EFU?$less@E@std@@V?$allocator@U?$pair@$$CBEF@std@@@2@@std@@@std@@@std@@@std@@@2@V?$_Tree_const_iterator@V?$_Tree_val@U?$_Tree_simple_types@U?$pair@$$CBEV?$map@EFU?$less@E@std@@V?$allocator@U?$pair@$$CBEF@std@@@2@@std@@@std@@@std@@@std@@@2@@Z 005aa040 f i Unit.obj
 0002:0004a760       ?find@?$_Tree@V?$_Tmap_traits@IPAU_MAGIC_TYPE1@@U?$less@I@std@@V?$allocator@U?$pair@$$CBIPAU_MAGIC_TYPE1@@@std@@@3@$0A@@std@@@std@@QAE?AV?$_Tree_iterator@V?$_Tree_val@U?$_Tree_simple_types@U?$pair@$$CBIPAU_MAGIC_TYPE1@@@std@@@std@@@std@@@2@ABI@Z 005aa760 f i Unit.obj
 0002:0004aa20       ?find@?$_Tree@V?$_Tmap_traits@IPAU_MAGIC_TYPE2@@U?$less@I@std@@V?$allocator@U?$pair@$$CBIPAU_MAGIC_TYPE2@@@std@@@3@$0A@@std@@@std@@QAE?AV?$_Tree_iterator@V?$_Tree_val@U?$_Tree_simple_types@U?$pair@$$CBIPAU_MAGIC_TYPE2@@@std@@@std@@@std@@@2@ABI@Z 005aaa20 f i Unit.obj
 0002:0004ace0       ?hasBuff@Unit@@QAE_NE_N@Z  005aace0 f i Unit.obj
 0002:0004b000       ?isAlive@Unit@@UAE_NXZ     005ab000 f i Unit.obj
 0002:0004b090       ?isAttackable@Unit@@UAE_NPAV1@@Z 005ab090 f   Unit.obj
 0002:0004b110       ?isBlinded@Unit@@QAE_NXZ   005ab110 f i Unit.obj
 0002:0004b150       ?isBlinking@Unit@@UAE_NXZ  005ab150 f i Unit.obj
 0002:0004b190       ?isHostileTo@CNpc@@UAE_NPAVUnit@@@Z 005ab190 f   Unit.obj
 0002:0004b3d0       ?isHostileTo@CUser@@UAE_NPAVUnit@@@Z 005ab3d0 f   Unit.obj
 0002:0004b650       ?isInArena@CUser@@QAE_NXZ  005ab650 f   Unit.obj
 0002:0004b7a0       ?isInPVPZone@CUser@@QAE_NXZ 005ab7a0 f   Unit.obj
 0002:0004b810       ?isInPartyArena@CUser@@QAE_NXZ 005ab810 f   Unit.obj
 0002:0004b960       ?isInRange@Unit@@QAE_NMMM@Z 005ab960 f   Unit.obj
 0002:0004ba10       ?isInRange@Unit@@QAE_NPAV1@M@Z 005aba10 f   Unit.obj
 0002:0004bab0       ?isInRange@Unit@@SA_NMMMMM@Z 005abab0 f   Unit.obj
 0002:0004bb70       ?isInRangeSlow@Unit@@QAE_NMMM@Z 005abb70 f   Unit.obj
 0002:0004bc10       ?isInRangeSlow@Unit@@QAE_NPAV1@M@Z 005abc10 f   Unit.obj
 0002:0004bca0       ?isInRangeSlow@Unit@@SA_NMMMMM@Z 005abca0 f   Unit.obj
 0002:0004bd50       ?isInSafetyArea@CUser@@QAE_NXZ 005abd50 f   Unit.obj
 0002:0004cd60       ?isIncapacitated@Unit@@QAE_NXZ 005acd60 f i Unit.obj
 0002:0004ce40       ?isKaul@Unit@@QAE_NXZ      005ace40 f i Unit.obj
 0002:0004ce80       ?isMonster@CNpc@@QAE_NXZ   005ace80 f i Unit.obj
 0002:0004cec0       ?isSameEventRoom@Unit@@UAE_NPAV1@@Z 005acec0 f   Unit.obj
 0002:0004cf40       ?key_comp@?$_Tree@V?$_Tmap_traits@EU_BUFF_TYPE4_INFO@@U?$less@E@std@@V?$allocator@U?$pair@$$CBEU_BUFF_TYPE4_INFO@@@std@@@3@$0A@@std@@@std@@QBE?AU?$less@E@2@XZ 005acf40 f i Unit.obj
 0002:0004cfa0       ?lower_bound@?$_Tree@V?$_Tmap_traits@IPAU_MAGIC_TYPE1@@U?$less@I@std@@V?$allocator@U?$pair@$$CBIPAU_MAGIC_TYPE1@@@std@@@3@$0A@@std@@@std@@QAE?AV?$_Tree_iterator@V?$_Tree_val@U?$_Tree_simple_types@U?$pair@$$CBIPAU_MAGIC_TYPE1@@@std@@@std@@@std@@@2@ABI@Z 005acfa0 f i Unit.obj
 0002:0004d040       ?lower_bound@?$_Tree@V?$_Tmap_traits@IPAU_MAGIC_TYPE2@@U?$less@I@std@@V?$allocator@U?$pair@$$CBIPAU_MAGIC_TYPE2@@@std@@@3@$0A@@std@@@std@@QAE?AV?$_Tree_iterator@V?$_Tree_val@U?$_Tree_simple_types@U?$pair@$$CBIPAU_MAGIC_TYPE2@@@std@@@std@@@std@@@2@ABI@Z 005ad040 f i Unit.obj
 0002:0004d0e0       ?max_size@?$_Default_allocator_traits@V?$allocator@U?$_Tree_node@U?$pair@$$CBEU_BUFF_TYPE4_INFO@@@std@@PAX@std@@@std@@@std@@SAIABV?$allocator@U?$_Tree_node@U?$pair@$$CBEU_BUFF_TYPE4_INFO@@@std@@PAX@std@@@2@@Z 005ad0e0 f i Unit.obj
 0002:0004d120       ?max_size@?$_Tree@V?$_Tmap_traits@EU_BUFF_TYPE4_INFO@@U?$less@E@std@@V?$allocator@U?$pair@$$CBEU_BUFF_TYPE4_INFO@@@std@@@3@$0A@@std@@@std@@QBEIXZ 005ad120 f i Unit.obj
 0002:0004d180       ?pointer_to@?$pointer_traits@PAU?$pair@$$CBEF@std@@@std@@SAPAU?$pair@$$CBEF@2@AAU32@@Z 005ad180 f i Unit.obj
 0002:0004d1d0       ?pointer_to@?$pointer_traits@PAU?$pair@$$CBEV?$map@EFU?$less@E@std@@V?$allocator@U?$pair@$$CBEF@std@@@2@@std@@@std@@@std@@SAPAU?$pair@$$CBEV?$map@EFU?$less@E@std@@V?$allocator@U?$pair@$$CBEF@std@@@2@@std@@@2@AAU32@@Z 005ad1d0 f i Unit.obj
 0002:0004d220       ?pointer_to@?$pointer_traits@PAU?$pair@$$CBIPAU_MAGIC_TYPE1@@@std@@@std@@SAPAU?$pair@$$CBIPAU_MAGIC_TYPE1@@@2@AAU32@@Z 005ad220 f i Unit.obj
 0002:0004d270       ?pointer_to@?$pointer_traits@PAU?$pair@$$CBIPAU_MAGIC_TYPE2@@@std@@@std@@SAPAU?$pair@$$CBIPAU_MAGIC_TYPE2@@@2@AAU32@@Z 005ad270 f i Unit.obj
 0002:0004d2c0       ?pow@@YAMMM@Z              005ad2c0 f i Unit.obj
 0002:0004d330       ?select_on_container_copy_construction@?$_Default_allocator_traits@V?$allocator@U?$_Tree_node@U?$pair@$$CBEU_BUFF_TYPE4_INFO@@@std@@PAX@std@@@std@@@std@@SA?AV?$allocator@U?$_Tree_node@U?$pair@$$CBEU_BUFF_TYPE4_INFO@@@std@@PAX@std@@@2@ABV32@@Z 005ad330 f i Unit.obj
 0002:0004d370       ?size@?$_Tree@V?$_Tmap_traits@EFU?$less@E@std@@V?$allocator@U?$pair@$$CBEF@std@@@2@$0A@@std@@@std@@QBEIXZ 005ad370 f i Unit.obj
 0002:0004d3d0       ?size@?$_Tree@V?$_Tmap_traits@EU_BUFF_TYPE4_INFO@@U?$less@E@std@@V?$allocator@U?$pair@$$CBEU_BUFF_TYPE4_INFO@@@std@@@3@$0A@@std@@@std@@QBEIXZ 005ad3d0 f i Unit.obj
 0002:0004d430       ?size@?$_Tree@V?$_Tmap_traits@EV?$map@EFU?$less@E@std@@V?$allocator@U?$pair@$$CBEF@std@@@2@@std@@U?$less@E@2@V?$allocator@U?$pair@$$CBEV?$map@EFU?$less@E@std@@V?$allocator@U?$pair@$$CBEF@std@@@2@@std@@@std@@@2@$0A@@std@@@std@@QBEIXZ 005ad430 f i Unit.obj
 0002:0004d490       _powf                      005ad490 f i Unit.obj
 0002:0004d510       _sqrtf                     005ad510 f i Unit.obj
 0002:0004d580       ??0CN3ShapeMgr@@QAE@XZ     005ad580 f   N3ShapeMgr.obj
 0002:0004d630       ??0__CellMain@CN3ShapeMgr@@QAE@XZ 005ad630 f i N3ShapeMgr.obj
 0002:0004d6b0       ??0__CellSub@CN3ShapeMgr@@QAE@XZ 005ad6b0 f i N3ShapeMgr.obj
 0002:0004d710       ??0__Vector3@@QAE@XZ       005ad710 f i N3ShapeMgr.obj
 0002:0004d750       ??1CN3ShapeMgr@@UAE@XZ     005ad750 f   N3ShapeMgr.obj
 0002:0004d890       ??1__CellMain@CN3ShapeMgr@@QAE@XZ 005ad890 f i N3ShapeMgr.obj
 0002:0004d950       ??1__CellSub@CN3ShapeMgr@@QAE@XZ 005ad950 f i N3ShapeMgr.obj
 0002:0004d9c0       ??_ECN3ShapeMgr@@UAEPAXI@Z 005ad9c0 f i N3ShapeMgr.obj
 0002:0004d9c0       ??_GCN3ShapeMgr@@UAEPAXI@Z 005ad9c0 f i N3ShapeMgr.obj
 0002:0004da40       ??_G__CellMain@CN3ShapeMgr@@QAEPAXI@Z 005ada40 f i N3ShapeMgr.obj
 0002:0004dac0       ?Create@CN3ShapeMgr@@QAE_NMM@Z 005adac0 f   N3ShapeMgr.obj
 0002:0004db60       ?Load@__CellMain@CN3ShapeMgr@@QAEXPAU_iobuf@@@Z 005adb60 f i N3ShapeMgr.obj
 0002:0004dd20       ?Load@__CellSub@CN3ShapeMgr@@QAEXPAU_iobuf@@@Z 005add20 f i N3ShapeMgr.obj
 0002:0004de70       ?LoadCollisionData@CN3ShapeMgr@@QAE_NPAU_iobuf@@@Z 005ade70 f   N3ShapeMgr.obj
 0002:0004e3d0       ?unlock@CN3ShapeMgr@@QAEXXZ 005ae3d0 f   N3ShapeMgr.obj
 0002:0004e560       ??$?0$$V@?$_Compressed_pair@V?$allocator@D@std@@V?$_String_val@U?$_Simple_types@D@std@@@2@$00@std@@QAE@U_Zero_then_variadic_args_t@1@@Z 005ae560 f i GameSocket.obj
 0002:0004e5c0       ??$?0$$V@?$_Compressed_pair@V?$allocator@U?$_Tree_node@U?$pair@$$CBEF@std@@PAX@std@@@std@@V?$_Tree_val@U?$_Tree_simple_types@U?$pair@$$CBEF@std@@@std@@@2@$00@std@@QAE@U_Zero_then_variadic_args_t@1@@Z 005ae5c0 f i GameSocket.obj
 0002:0004e620       ??$?0AAEAAFX$0A@@?$pair@EF@std@@QAE@AAEAAF@Z 005ae620 f i GameSocket.obj
 0002:0004e6a0       ??$?0AAIAAPAU_PARTY_GROUP@@X$0A@@?$pair@IPAU_PARTY_GROUP@@@std@@QAE@AAIAAPAU_PARTY_GROUP@@@Z 005ae6a0 f i GameSocket.obj
 0002:0004e720       ??$?0AAV?$_Tree_iterator@V?$_Tree_val@U?$_Tree_simple_types@U?$pair@$$CBEF@std@@@std@@@std@@@std@@_NX$0A@@?$pair@V?$_Tree_iterator@V?$_Tree_val@U?$_Tree_simple_types@U?$pair@$$CBEF@std@@@std@@@std@@@std@@_N@std@@QAE@AAV?$_Tree_iterator@V?$_Tree_val@U?$_Tree_simple_types@U?$pair@$$CBEF@std@@@std@@@std@@@1@$$QA_N@Z 005ae720 f i GameSocket.obj
 0002:0004e7a0       ??$?0AAV?$_Tree_iterator@V?$_Tree_val@U?$_Tree_simple_types@U?$pair@$$CBEV?$map@EFU?$less@E@std@@V?$allocator@U?$pair@$$CBEF@std@@@2@@std@@@std@@@std@@@std@@@std@@_NX$0A@@?$pair@V?$_Tree_iterator@V?$_Tree_val@U?$_Tree_simple_types@U?$pair@$$CBEV?$map@EFU?$less@E@std@@V?$allocator@U?$pair@$$CBEF@std@@@2@@std@@@std@@@std@@@std@@@std@@_N@std@@QAE@AAV?$_Tree_iterator@V?$_Tree_val@U?$_Tree_simple_types@U?$pair@$$CBEV?$map@EFU?$less@E@std@@V?$allocator@U?$pair@$$CBEF@std@@@2@@std@@@std@@@std@@@std@@@1@$$QA_N@Z 005ae7a0 f i GameSocket.obj
 0002:0004e820       ??$?0AAV?$_Tree_iterator@V?$_Tree_val@U?$_Tree_simple_types@U?$pair@$$CBIPAU_PARTY_GROUP@@@std@@@std@@@std@@@std@@_NX$0A@@?$pair@V?$_Tree_iterator@V?$_Tree_val@U?$_Tree_simple_types@U?$pair@$$CBIPAU_PARTY_GROUP@@@std@@@std@@@std@@@std@@_N@std@@QAE@AAV?$_Tree_iterator@V?$_Tree_val@U?$_Tree_simple_types@U?$pair@$$CBIPAU_PARTY_GROUP@@@std@@@std@@@std@@@1@$$QA_N@Z 005ae820 f i GameSocket.obj
 0002:0004e8a0       ??$?0ABE$$Z$$V@?$pair@$$CBEV?$map@EFU?$less@E@std@@V?$allocator@U?$pair@$$CBEF@std@@@2@@std@@@std@@QAE@Upiecewise_construct_t@1@V?$tuple@ABE@1@V?$tuple@$$V@1@@Z 005ae8a0 f i GameSocket.obj
 0002:0004e920       ??$?0ABE$0A@@?$tuple@ABE@std@@QAE@ABE@Z 005ae920 f i GameSocket.obj
 0002:0004e990       ??$?0ABE@?$_Tuple_val@ABE@std@@QAE@ABE@Z 005ae990 f i GameSocket.obj
 0002:0004e9f0       ??$?0ABU?$less@E@std@@U_Zero_then_variadic_args_t@1@@?$_Compressed_pair@U?$less@E@std@@V?$_Compressed_pair@V?$allocator@U?$_Tree_node@U?$pair@$$CBEF@std@@PAX@std@@@std@@V?$_Tree_val@U?$_Tree_simple_types@U?$pair@$$CBEF@std@@@std@@@2@$00@2@$00@std@@QAE@U_One_then_variadic_args_t@1@ABU?$less@E@1@$$QAU_Zero_then_variadic_args_t@1@@Z 005ae9f0 f i GameSocket.obj
 0002:0004ea70       ??$?0D@?$allocator@U_Container_proxy@std@@@std@@QAE@ABV?$allocator@D@1@@Z 005aea70 f i GameSocket.obj
 0002:0004eab0       ??$?0EFX$0A@@?$pair@$$CBEF@std@@QAE@$$QAU?$pair@EF@1@@Z 005aeab0 f i GameSocket.obj
 0002:0004eb40       ??$?0IPAU_PARTY_GROUP@@X$0A@@?$pair@$$CBIPAU_PARTY_GROUP@@@std@@QAE@$$QAU?$pair@IPAU_PARTY_GROUP@@@1@@Z 005aeb40 f i GameSocket.obj
 0002:0004ebc0       ??$?0U_Exact_args_t@std@@$0A@@?$tuple@$$V@std@@QAE@U_Exact_args_t@1@@Z 005aebc0 f i GameSocket.obj
 0002:0004ec00       ??$?0U_Exact_args_t@std@@ABE$$V$0A@@?$tuple@ABE@std@@QAE@U_Exact_args_t@1@ABE@Z 005aec00 f i GameSocket.obj
 0002:0004ec90       ??$?0V?$_Tree_iterator@V?$_Tree_val@U?$_Tree_simple_types@U?$pair@$$CBEF@std@@@std@@@std@@@std@@_NX$0A@@?$pair@V?$_Tree_iterator@V?$_Tree_val@U?$_Tree_simple_types@U?$pair@$$CBEF@std@@@std@@@std@@@std@@_N@std@@QAE@$$QAV?$_Tree_iterator@V?$_Tree_val@U?$_Tree_simple_types@U?$pair@$$CBEF@std@@@std@@@std@@@1@$$QA_N@Z 005aec90 f i GameSocket.obj
 0002:0004ed10       ??$?0V?$_Tree_iterator@V?$_Tree_val@U?$_Tree_simple_types@U?$pair@$$CBEV?$map@EFU?$less@E@std@@V?$allocator@U?$pair@$$CBEF@std@@@2@@std@@@std@@@std@@@std@@@std@@_NX$0A@@?$pair@V?$_Tree_iterator@V?$_Tree_val@U?$_Tree_simple_types@U?$pair@$$CBEV?$map@EFU?$less@E@std@@V?$allocator@U?$pair@$$CBEF@std@@@2@@std@@@std@@@std@@@std@@@std@@_N@std@@QAE@$$QAV?$_Tree_iterator@V?$_Tree_val@U?$_Tree_simple_types@U?$pair@$$CBEV?$map@EFU?$less@E@std@@V?$allocator@U?$pair@$$CBEF@std@@@2@@std@@@std@@@std@@@std@@@1@$$QA_N@Z 005aed10 f i GameSocket.obj
 0002:0004ed90       ??$?0V?$_Tree_iterator@V?$_Tree_val@U?$_Tree_simple_types@U?$pair@$$CBIPAU_PARTY_GROUP@@@std@@@std@@@std@@@std@@_NX$0A@@?$pair@V?$_Tree_iterator@V?$_Tree_val@U?$_Tree_simple_types@U?$pair@$$CBIPAU_PARTY_GROUP@@@std@@@std@@@std@@@std@@_N@std@@QAE@$$QAV?$_Tree_iterator@V?$_Tree_val@U?$_Tree_simple_types@U?$pair@$$CBIPAU_PARTY_GROUP@@@std@@@std@@@std@@@1@$$QA_N@Z 005aed90 f i GameSocket.obj
 0002:0004ee10       ??$?0V?$allocator@D@std@@$$V@?$_Compressed_pair@V?$allocator@D@std@@V?$_String_val@U?$_Simple_types@D@std@@@2@$00@std@@QAE@U_One_then_variadic_args_t@1@$$QAV?$allocator@D@1@@Z 005aee10 f i GameSocket.obj
 0002:0004ee80       ??$?0V?$allocator@D@std@@X@?$_String_alloc@U?$_String_base_types@DV?$allocator@D@std@@@std@@@std@@QAE@$$QAV?$allocator@D@1@@Z 005aee80 f i GameSocket.obj
 0002:0004ef40       ??$?0V?$tuple@ABE@std@@V?$tuple@$$V@1@$0A@$$Z$S@?$pair@$$CBEV?$map@EFU?$less@E@std@@V?$allocator@U?$pair@$$CBEF@std@@@2@@std@@@std@@QAE@AAV?$tuple@ABE@1@AAV?$tuple@$$V@1@U?$integer_sequence@I$0A@@1@U?$integer_sequence@I$S@1@@Z 005aef40 f i GameSocket.obj
 0002:0004efc0       ??$_Buynode@AAU?$pair@$$CBEF@std@@@?$_Tree_comp_alloc@V?$_Tmap_traits@EFU?$less@E@std@@V?$allocator@U?$pair@$$CBEF@std@@@2@$0A@@std@@@std@@QAEPAU?$_Tree_node@U?$pair@$$CBEF@std@@PAX@1@AAU?$pair@$$CBEF@1@@Z 005aefc0 f i GameSocket.obj
 0002:0004f0e0       ??$_Buynode@ABUpiecewise_construct_t@std@@V?$tuple@ABE@2@V?$tuple@$$V@2@@?$_Tree_comp_alloc@V?$_Tmap_traits@EV?$map@EFU?$less@E@std@@V?$allocator@U?$pair@$$CBEF@std@@@2@@std@@U?$less@E@2@V?$allocator@U?$pair@$$CBEV?$map@EFU?$less@E@std@@V?$allocator@U?$pair@$$CBEF@std@@@2@@std@@@std@@@2@$0A@@std@@@std@@QAEPAU?$_Tree_node@U?$pair@$$CBEV?$map@EFU?$less@E@std@@V?$allocator@U?$pair@$$CBEF@std@@@2@@std@@@std@@PAX@1@ABUpiecewise_construct_t@1@$$QAV?$tuple@ABE@1@$$QAV?$tuple@$$V@1@@Z 005af0e0 f i GameSocket.obj
 0002:0004f220       ??$_Buynode@U?$pair@EF@std@@@?$_Tree_comp_alloc@V?$_Tmap_traits@EFU?$less@E@std@@V?$allocator@U?$pair@$$CBEF@std@@@2@$0A@@std@@@std@@QAEPAU?$_Tree_node@U?$pair@$$CBEF@std@@PAX@1@$$QAU?$pair@EF@1@@Z 005af220 f i GameSocket.obj
 0002:0004f340       ??$_Buynode@U?$pair@IPAU_PARTY_GROUP@@@std@@@?$_Tree_comp_alloc@V?$_Tmap_traits@IPAU_PARTY_GROUP@@U?$less@I@std@@V?$allocator@U?$pair@$$CBIPAU_PARTY_GROUP@@@std@@@3@$0A@@std@@@std@@QAEPAU?$_Tree_node@U?$pair@$$CBIPAU_PARTY_GROUP@@@std@@PAX@1@$$QAU?$pair@IPAU_PARTY_GROUP@@@1@@Z 005af340 f i GameSocket.obj
 0002:0004f460       ??$_Buynode_if_nil@AAU?$pair@$$CBEF@std@@@?$_Tree@V?$_Tmap_traits@EFU?$less@E@std@@V?$allocator@U?$pair@$$CBEF@std@@@2@$0A@@std@@@std@@IAEPAU?$_Tree_node@U?$pair@$$CBEF@std@@PAX@1@PAU21@AAU?$pair@$$CBEF@1@@Z 005af460 f i GameSocket.obj
 0002:0004f4a0       ??$_Buynode_if_nil@AAU?$pair@$$CBEV?$map@EFU?$less@E@std@@V?$allocator@U?$pair@$$CBEF@std@@@2@@std@@@std@@@?$_Tree@V?$_Tmap_traits@EV?$map@EFU?$less@E@std@@V?$allocator@U?$pair@$$CBEF@std@@@2@@std@@U?$less@E@2@V?$allocator@U?$pair@$$CBEV?$map@EFU?$less@E@std@@V?$allocator@U?$pair@$$CBEF@std@@@2@@std@@@std@@@2@$0A@@std@@@std@@IAEPAU?$_Tree_node@U?$pair@$$CBEV?$map@EFU?$less@E@std@@V?$allocator@U?$pair@$$CBEF@std@@@2@@std@@@std@@PAX@1@PAU21@AAU?$pair@$$CBEV?$map@EFU?$less@E@std@@V?$allocator@U?$pair@$$CBEF@std@@@2@@std@@@1@@Z 005af4a0 f i GameSocket.obj
 0002:0004f4e0       ??$_Buynode_if_nil@AAU?$pair@$$CBIPAU_PARTY_GROUP@@@std@@@?$_Tree@V?$_Tmap_traits@IPAU_PARTY_GROUP@@U?$less@I@std@@V?$allocator@U?$pair@$$CBIPAU_PARTY_GROUP@@@std@@@3@$0A@@std@@@std@@IAEPAU?$_Tree_node@U?$pair@$$CBIPAU_PARTY_GROUP@@@std@@PAX@1@PAU21@AAU?$pair@$$CBIPAU_PARTY_GROUP@@@1@@Z 005af4e0 f i GameSocket.obj
 0002:0004f520       ??$_Copy@U_Copy_tag@?$_Tree@V?$_Tmap_traits@EFU?$less@E@std@@V?$allocator@U?$pair@$$CBEF@std@@@2@$0A@@std@@@std@@@?$_Tree@V?$_Tmap_traits@EFU?$less@E@std@@V?$allocator@U?$pair@$$CBEF@std@@@2@$0A@@std@@@std@@IAEXABV01@U_Copy_tag@01@@Z 005af520 f i GameSocket.obj
 0002:0004f660       ??$_Copy_nodes@U_Copy_tag@?$_Tree@V?$_Tmap_traits@EFU?$less@E@std@@V?$allocator@U?$pair@$$CBEF@std@@@2@$0A@@std@@@std@@@?$_Tree@V?$_Tmap_traits@EFU?$less@E@std@@V?$allocator@U?$pair@$$CBEF@std@@@2@$0A@@std@@@std@@IAEPAU?$_Tree_node@U?$pair@$$CBEF@std@@PAX@1@PAU21@0U_Copy_tag@01@@Z 005af660 f i GameSocket.obj
 0002:0004f840       ??$_Copy_or_move@U?$pair@$$CBEF@std@@U?$integral_constant@_N$0A@@2@@?$_Tree@V?$_Tmap_traits@EFU?$less@E@std@@V?$allocator@U?$pair@$$CBEF@std@@@2@$0A@@std@@@std@@IAEPAU?$_Tree_node@U?$pair@$$CBEF@std@@PAX@1@AAU?$pair@$$CBEF@1@U_Copy_tag@01@U?$integral_constant@_N$0A@@1@@Z 005af840 f i GameSocket.obj
 0002:0004f8a0       ??$_Insert_at@AAU?$pair@$$CBEF@std@@PAU?$_Tree_node@U?$pair@$$CBEF@std@@PAX@2@@?$_Tree@V?$_Tmap_traits@EFU?$less@E@std@@V?$allocator@U?$pair@$$CBEF@std@@@2@$0A@@std@@@std@@IAE?AV?$_Tree_iterator@V?$_Tree_val@U?$_Tree_simple_types@U?$pair@$$CBEF@std@@@std@@@std@@@1@_NPAU?$_Tree_node@U?$pair@$$CBEF@std@@PAX@1@AAU?$pair@$$CBEF@1@1@Z 005af8a0 f i GameSocket.obj
 0002:0004fc40       ??$_Insert_at@AAU?$pair@$$CBEV?$map@EFU?$less@E@std@@V?$allocator@U?$pair@$$CBEF@std@@@2@@std@@@std@@PAU?$_Tree_node@U?$pair@$$CBEV?$map@EFU?$less@E@std@@V?$allocator@U?$pair@$$CBEF@std@@@2@@std@@@std@@PAX@2@@?$_Tree@V?$_Tmap_traits@EV?$map@EFU?$less@E@std@@V?$allocator@U?$pair@$$CBEF@std@@@2@@std@@U?$less@E@2@V?$allocator@U?$pair@$$CBEV?$map@EFU?$less@E@std@@V?$allocator@U?$pair@$$CBEF@std@@@2@@std@@@std@@@2@$0A@@std@@@std@@IAE?AV?$_Tree_iterator@V?$_Tree_val@U?$_Tree_simple_types@U?$pair@$$CBEV?$map@EFU?$less@E@std@@V?$allocator@U?$pair@$$CBEF@std@@@2@@std@@@std@@@std@@@std@@@1@_NPAU?$_Tree_node@U?$pair@$$CBEV?$map@EFU?$less@E@std@@V?$allocator@U?$pair@$$CBEF@std@@@2@@std@@@std@@PAX@1@AAU?$pair@$$CBEV?$map@EFU?$less@E@std@@V?$allocator@U?$pair@$$CBEF@std@@@2@@std@@@1@1@Z 005afc40 f i GameSocket.obj
 0002:0004ffe0       ??$_Insert_at@AAU?$pair@$$CBIPAU_PARTY_GROUP@@@std@@PAU?$_Tree_node@U?$pair@$$CBIPAU_PARTY_GROUP@@@std@@PAX@2@@?$_Tree@V?$_Tmap_traits@IPAU_PARTY_GROUP@@U?$less@I@std@@V?$allocator@U?$pair@$$CBIPAU_PARTY_GROUP@@@std@@@3@$0A@@std@@@std@@IAE?AV?$_Tree_iterator@V?$_Tree_val@U?$_Tree_simple_types@U?$pair@$$CBIPAU_PARTY_GROUP@@@std@@@std@@@std@@@1@_NPAU?$_Tree_node@U?$pair@$$CBIPAU_PARTY_GROUP@@@std@@PAX@1@AAU?$pair@$$CBIPAU_PARTY_GROUP@@@1@1@Z 005affe0 f i GameSocket.obj
 0002:00050380       ??$_Insert_hint@AAU?$pair@$$CBEV?$map@EFU?$less@E@std@@V?$allocator@U?$pair@$$CBEF@std@@@2@@std@@@std@@PAU?$_Tree_node@U?$pair@$$CBEV?$map@EFU?$less@E@std@@V?$allocator@U?$pair@$$CBEF@std@@@2@@std@@@std@@PAX@2@@?$_Tree@V?$_Tmap_traits@EV?$map@EFU?$less@E@std@@V?$allocator@U?$pair@$$CBEF@std@@@2@@std@@U?$less@E@2@V?$allocator@U?$pair@$$CBEV?$map@EFU?$less@E@std@@V?$allocator@U?$pair@$$CBEF@std@@@2@@std@@@std@@@2@$0A@@std@@@std@@IAE?AV?$_Tree_iterator@V?$_Tree_val@U?$_Tree_simple_types@U?$pair@$$CBEV?$map@EFU?$less@E@std@@V?$allocator@U?$pair@$$CBEF@std@@@2@@std@@@std@@@std@@@std@@@1@V?$_Tree_const_iterator@V?$_Tree_val@U?$_Tree_simple_types@U?$pair@$$CBEV?$map@EFU?$less@E@std@@V?$allocator@U?$pair@$$CBEF@std@@@2@@std@@@std@@@std@@@std@@@1@AAU?$pair@$$CBEV?$map@EFU?$less@E@std@@V?$allocator@U?$pair@$$CBEF@std@@@2@@std@@@1@PAU?$_Tree_node@U?$pair@$$CBEV?$map@EFU?$less@E@std@@V?$allocator@U?$pair@$$CBEF@std@@@2@@std@@@std@@PAX@1@@Z 005b0380 f i GameSocket.obj
 0002:000517d0       ??$_Insert_nohint@AAU?$pair@$$CBEF@std@@PAU?$_Tree_node@U?$pair@$$CBEF@std@@PAX@2@@?$_Tree@V?$_Tmap_traits@EFU?$less@E@std@@V?$allocator@U?$pair@$$CBEF@std@@@2@$0A@@std@@@std@@IAE?AU?$pair@V?$_Tree_iterator@V?$_Tree_val@U?$_Tree_simple_types@U?$pair@$$CBEF@std@@@std@@@std@@@std@@_N@1@_NAAU?$pair@$$CBEF@1@PAU?$_Tree_node@U?$pair@$$CBEF@std@@PAX@1@@Z 005b17d0 f i GameSocket.obj
 0002:00051e00       ??$_Insert_nohint@AAU?$pair@$$CBEV?$map@EFU?$less@E@std@@V?$allocator@U?$pair@$$CBEF@std@@@2@@std@@@std@@PAU?$_Tree_node@U?$pair@$$CBEV?$map@EFU?$less@E@std@@V?$allocator@U?$pair@$$CBEF@std@@@2@@std@@@std@@PAX@2@@?$_Tree@V?$_Tmap_traits@EV?$map@EFU?$less@E@std@@V?$allocator@U?$pair@$$CBEF@std@@@2@@std@@U?$less@E@2@V?$allocator@U?$pair@$$CBEV?$map@EFU?$less@E@std@@V?$allocator@U?$pair@$$CBEF@std@@@2@@std@@@std@@@2@$0A@@std@@@std@@IAE?AU?$pair@V?$_Tree_iterator@V?$_Tree_val@U?$_Tree_simple_types@U?$pair@$$CBEV?$map@EFU?$less@E@std@@V?$allocator@U?$pair@$$CBEF@std@@@2@@std@@@std@@@std@@@std@@@std@@_N@1@_NAAU?$pair@$$CBEV?$map@EFU?$less@E@std@@V?$allocator@U?$pair@$$CBEF@std@@@2@@std@@@1@PAU?$_Tree_node@U?$pair@$$CBEV?$map@EFU?$less@E@std@@V?$allocator@U?$pair@$$CBEF@std@@@2@@std@@@std@@PAX@1@@Z 005b1e00 f i GameSocket.obj
 0002:00052430       ??$_Insert_nohint@AAU?$pair@$$CBIPAU_PARTY_GROUP@@@std@@PAU?$_Tree_node@U?$pair@$$CBIPAU_PARTY_GROUP@@@std@@PAX@2@@?$_Tree@V?$_Tmap_traits@IPAU_PARTY_GROUP@@U?$less@I@std@@V?$allocator@U?$pair@$$CBIPAU_PARTY_GROUP@@@std@@@3@$0A@@std@@@std@@IAE?AU?$pair@V?$_Tree_iterator@V?$_Tree_val@U?$_Tree_simple_types@U?$pair@$$CBIPAU_PARTY_GROUP@@@std@@@std@@@std@@@std@@_N@1@_NAAU?$pair@$$CBIPAU_PARTY_GROUP@@@1@PAU?$_Tree_node@U?$pair@$$CBIPAU_PARTY_GROUP@@@std@@PAX@1@@Z 005b2430 f i GameSocket.obj
 0002:00052a60       ??$_Kfn@$$CBEF@?$_Tmap_traits@EFU?$less@E@std@@V?$allocator@U?$pair@$$CBEF@std@@@2@$0A@@std@@SAABEABU?$pair@$$CBEF@1@@Z 005b2a60 f i GameSocket.obj
 0002:00052aa0       ??$_Kfn@$$CBEV?$map@EFU?$less@E@std@@V?$allocator@U?$pair@$$CBEF@std@@@2@@std@@@?$_Tmap_traits@EV?$map@EFU?$less@E@std@@V?$allocator@U?$pair@$$CBEF@std@@@2@@std@@U?$less@E@2@V?$allocator@U?$pair@$$CBEV?$map@EFU?$less@E@std@@V?$allocator@U?$pair@$$CBEF@std@@@2@@std@@@std@@@2@$0A@@std@@SAABEABU?$pair@$$CBEV?$map@EFU?$less@E@std@@V?$allocator@U?$pair@$$CBEF@std@@@2@@std@@@1@@Z 005b2aa0 f i GameSocket.obj
 0002:00052ae0       ??$_Kfn@$$CBIPAU_PARTY_GROUP@@@?$_Tmap_traits@IPAU_PARTY_GROUP@@U?$less@I@std@@V?$allocator@U?$pair@$$CBIPAU_PARTY_GROUP@@@std@@@3@$0A@@std@@SAABIABU?$pair@$$CBIPAU_PARTY_GROUP@@@1@@Z 005b2ae0 f i GameSocket.obj
 0002:00052b20       ??$_Lbound@E@?$_Tree@V?$_Tmap_traits@EV?$map@EFU?$less@E@std@@V?$allocator@U?$pair@$$CBEF@std@@@2@@std@@U?$less@E@2@V?$allocator@U?$pair@$$CBEV?$map@EFU?$less@E@std@@V?$allocator@U?$pair@$$CBEF@std@@@2@@std@@@std@@@2@$0A@@std@@@std@@IBEPAU?$_Tree_node@U?$pair@$$CBEV?$map@EFU?$less@E@std@@V?$allocator@U?$pair@$$CBEF@std@@@2@@std@@@std@@PAX@1@ABE@Z 005b2b20 f i GameSocket.obj
 0002:00052bf0       ??$_Max_value@I@std@@YAABIABI0@Z 005b2bf0 f i GameSocket.obj
 0002:00052c60       ??$_Pocca@V?$allocator@U?$_Tree_node@U?$pair@$$CBEF@std@@PAX@std@@@std@@@std@@YAXAAV?$allocator@U?$_Tree_node@U?$pair@$$CBEF@std@@PAX@std@@@0@ABV10@@Z 005b2c60 f i GameSocket.obj
 0002:00052cf0       ??$_Pocca@V?$allocator@U?$_Tree_node@U?$pair@$$CBEF@std@@PAX@std@@@std@@@std@@YAXAAV?$allocator@U?$_Tree_node@U?$pair@$$CBEF@std@@PAX@std@@@0@ABV10@U?$integral_constant@_N$0A@@0@@Z 005b2cf0 f i GameSocket.obj
 0002:000531b0       ??$_Try_emplace@ABE$$V@?$map@EV?$map@EFU?$less@E@std@@V?$allocator@U?$pair@$$CBEF@std@@@2@@std@@U?$less@E@2@V?$allocator@U?$pair@$$CBEV?$map@EFU?$less@E@std@@V?$allocator@U?$pair@$$CBEF@std@@@2@@std@@@std@@@2@@std@@QAE?AU?$pair@V?$_Tree_iterator@V?$_Tree_val@U?$_Tree_simple_types@U?$pair@$$CBEV?$map@EFU?$less@E@std@@V?$allocator@U?$pair@$$CBEF@std@@@2@@std@@@std@@@std@@@std@@@std@@_N@1@ABE@Z 005b31b0 f i GameSocket.obj
 0002:000534f0       ??$_Unfancy@D@std@@YAPADPAD@Z 005b34f0 f i GameSocket.obj
 0002:00053530       ??$addressof@$$CBV?$_Tree@V?$_Tmap_traits@EFU?$less@E@std@@V?$allocator@U?$pair@$$CBEF@std@@@2@$0A@@std@@@std@@@std@@YAPBV?$_Tree@V?$_Tmap_traits@EFU?$less@E@std@@V?$allocator@U?$pair@$$CBEF@std@@@2@$0A@@std@@@0@ABV10@@Z 005b3530 f i GameSocket.obj
 0002:00053570       ??$addressof@PAD@std@@YAPAPADAAPAD@Z 005b3570 f i GameSocket.obj
 0002:000535b0       ??$addressof@PAU?$_Tree_node@U?$pair@$$CBIPAU_PARTY_GROUP@@@std@@PAX@std@@@std@@YAPAPAU?$_Tree_node@U?$pair@$$CBIPAU_PARTY_GROUP@@@std@@PAX@0@AAPAU10@@Z 005b35b0 f i GameSocket.obj
 0002:000535f0       ??$addressof@U?$pair@$$CBIPAU_PARTY_GROUP@@@std@@@std@@YAPAU?$pair@$$CBIPAU_PARTY_GROUP@@@0@AAU10@@Z 005b35f0 f i GameSocket.obj
 0002:00053630       ??$addressof@U?$pair@$$CBIPAVCNpc@@@std@@@std@@YAPAU?$pair@$$CBIPAVCNpc@@@0@AAU10@@Z 005b3630 f i GameSocket.obj
 0002:00053670       ??$addressof@V?$_String_val@U?$_Simple_types@D@std@@@std@@@std@@YAPAV?$_String_val@U?$_Simple_types@D@std@@@0@AAV10@@Z 005b3670 f i GameSocket.obj
 0002:000536b0       ??$addressof@V?$_Tree_val@U?$_Tree_simple_types@U?$pair@$$CBIPAU_PARTY_GROUP@@@std@@@std@@@std@@@std@@YAPAV?$_Tree_val@U?$_Tree_simple_types@U?$pair@$$CBIPAU_PARTY_GROUP@@@std@@@std@@@0@AAV10@@Z 005b36b0 f i GameSocket.obj
 0002:000536f0       ??$addressof@V?$_Tree_val@U?$_Tree_simple_types@U?$pair@$$CBIPAVCNpc@@@std@@@std@@@std@@@std@@YAPAV?$_Tree_val@U?$_Tree_simple_types@U?$pair@$$CBIPAVCNpc@@@std@@@std@@@0@AAV10@@Z 005b36f0 f i GameSocket.obj
 0002:00053730       ??$construct@PADABQAD@?$_Default_allocator_traits@V?$allocator@D@std@@@std@@SAXAAV?$allocator@D@1@QAPADABQAD@Z 005b3730 f i GameSocket.obj
 0002:000537b0       ??$construct@PAU?$_Tree_node@U?$pair@$$CBEF@std@@PAX@std@@AAPAU12@@?$_Default_allocator_traits@V?$allocator@U?$_Tree_node@U?$pair@$$CBEF@std@@PAX@std@@@std@@@std@@SAXAAV?$allocator@U?$_Tree_node@U?$pair@$$CBEF@std@@PAX@std@@@1@QAPAU?$_Tree_node@U?$pair@$$CBEF@std@@PAX@1@AAPAU31@@Z 005b37b0 f i GameSocket.obj
 0002:00053830       ??$construct@PAU?$_Tree_node@U?$pair@$$CBIPAU_PARTY_GROUP@@@std@@PAX@std@@AAPAU12@@?$_Default_allocator_traits@V?$allocator@U?$_Tree_node@U?$pair@$$CBIPAU_PARTY_GROUP@@@std@@PAX@std@@@std@@@std@@SAXAAV?$allocator@U?$_Tree_node@U?$pair@$$CBIPAU_PARTY_GROUP@@@std@@PAX@std@@@1@QAPAU?$_Tree_node@U?$pair@$$CBIPAU_PARTY_GROUP@@@std@@PAX@1@AAPAU31@@Z 005b3830 f i GameSocket.obj
 0002:000538b0       ??$construct@U?$pair@$$CBEF@std@@AAU12@@?$_Default_allocator_traits@V?$allocator@U?$_Tree_node@U?$pair@$$CBEF@std@@PAX@std@@@std@@@std@@SAXAAV?$allocator@U?$_Tree_node@U?$pair@$$CBEF@std@@PAX@std@@@1@QAU?$pair@$$CBEF@1@AAU31@@Z 005b38b0 f i GameSocket.obj
 0002:00053930       ??$construct@U?$pair@$$CBEF@std@@U?$pair@EF@2@@?$_Default_allocator_traits@V?$allocator@U?$_Tree_node@U?$pair@$$CBEF@std@@PAX@std@@@std@@@std@@SAXAAV?$allocator@U?$_Tree_node@U?$pair@$$CBEF@std@@PAX@std@@@1@QAU?$pair@$$CBEF@1@$$QAU?$pair@EF@1@@Z 005b3930 f i GameSocket.obj
 0002:000539b0       ??$construct@U?$pair@$$CBEV?$map@EFU?$less@E@std@@V?$allocator@U?$pair@$$CBEF@std@@@2@@std@@@std@@ABUpiecewise_construct_t@2@V?$tuple@ABE@2@V?$tuple@$$V@2@@?$_Default_allocator_traits@V?$allocator@U?$_Tree_node@U?$pair@$$CBEV?$map@EFU?$less@E@std@@V?$allocator@U?$pair@$$CBEF@std@@@2@@std@@@std@@PAX@std@@@std@@@std@@SAXAAV?$allocator@U?$_Tree_node@U?$pair@$$CBEV?$map@EFU?$less@E@std@@V?$allocator@U?$pair@$$CBEF@std@@@2@@std@@@std@@PAX@std@@@1@QAU?$pair@$$CBEV?$map@EFU?$less@E@std@@V?$allocator@U?$pair@$$CBEF@std@@@2@@std@@@1@ABUpiecewise_construct_t@1@$$QAV?$tuple@ABE@1@$$QAV?$tuple@$$V@1@@Z 005b39b0 f i GameSocket.obj
 0002:00053ad0       ??$construct@U?$pair@$$CBIPAU_PARTY_GROUP@@@std@@U?$pair@IPAU_PARTY_GROUP@@@2@@?$_Default_allocator_traits@V?$allocator@U?$_Tree_node@U?$pair@$$CBIPAU_PARTY_GROUP@@@std@@PAX@std@@@std@@@std@@SAXAAV?$allocator@U?$_Tree_node@U?$pair@$$CBIPAU_PARTY_GROUP@@@std@@PAX@std@@@1@QAU?$pair@$$CBIPAU_PARTY_GROUP@@@1@$$QAU?$pair@IPAU_PARTY_GROUP@@@1@@Z 005b3ad0 f i GameSocket.obj
 0002:00053b50       ??$destroy@PAD@?$_Default_allocator_traits@V?$allocator@D@std@@@std@@SAXAAV?$allocator@D@1@QAPAD@Z 005b3b50 f i GameSocket.obj
 0002:00053b80       ??$destroy@PAU?$_Tree_node@U?$pair@$$CBIPAU_PARTY_GROUP@@@std@@PAX@std@@@?$_Default_allocator_traits@V?$allocator@U?$_Tree_node@U?$pair@$$CBIPAU_PARTY_GROUP@@@std@@PAX@std@@@std@@@std@@SAXAAV?$allocator@U?$_Tree_node@U?$pair@$$CBIPAU_PARTY_GROUP@@@std@@PAX@std@@@1@QAPAU?$_Tree_node@U?$pair@$$CBIPAU_PARTY_GROUP@@@std@@PAX@1@@Z 005b3b80 f i GameSocket.obj
 0002:00053bb0       ??$destroy@U?$pair@$$CBIPAU_PARTY_GROUP@@@std@@@?$_Default_allocator_traits@V?$allocator@U?$_Tree_node@U?$pair@$$CBIPAU_PARTY_GROUP@@@std@@PAX@std@@@std@@@std@@SAXAAV?$allocator@U?$_Tree_node@U?$pair@$$CBIPAU_PARTY_GROUP@@@std@@PAX@std@@@1@QAU?$pair@$$CBIPAU_PARTY_GROUP@@@1@@Z 005b3bb0 f i GameSocket.obj
 0002:00053be0       ??$emplace@U?$pair@EF@std@@@?$_Tree@V?$_Tmap_traits@EFU?$less@E@std@@V?$allocator@U?$pair@$$CBEF@std@@@2@$0A@@std@@@std@@QAE?AU?$pair@V?$_Tree_iterator@V?$_Tree_val@U?$_Tree_simple_types@U?$pair@$$CBEF@std@@@std@@@std@@@std@@_N@1@$$QAU?$pair@EF@1@@Z 005b3be0 f i GameSocket.obj
 0002:00053c90       ??$emplace@U?$pair@IPAU_PARTY_GROUP@@@std@@@?$_Tree@V?$_Tmap_traits@IPAU_PARTY_GROUP@@U?$less@I@std@@V?$allocator@U?$pair@$$CBIPAU_PARTY_GROUP@@@std@@@3@$0A@@std@@@std@@QAE?AU?$pair@V?$_Tree_iterator@V?$_Tree_val@U?$_Tree_simple_types@U?$pair@$$CBIPAU_PARTY_GROUP@@@std@@@std@@@std@@@std@@_N@1@$$QAU?$pair@IPAU_PARTY_GROUP@@@1@@Z 005b3c90 f i GameSocket.obj
 0002:00053d40       ??$emplace_hint@ABUpiecewise_construct_t@std@@V?$tuple@ABE@2@V?$tuple@$$V@2@@?$_Tree@V?$_Tmap_traits@EV?$map@EFU?$less@E@std@@V?$allocator@U?$pair@$$CBEF@std@@@2@@std@@U?$less@E@2@V?$allocator@U?$pair@$$CBEV?$map@EFU?$less@E@std@@V?$allocator@U?$pair@$$CBEF@std@@@2@@std@@@std@@@2@$0A@@std@@@std@@QAE?AV?$_Tree_iterator@V?$_Tree_val@U?$_Tree_simple_types@U?$pair@$$CBEV?$map@EFU?$less@E@std@@V?$allocator@U?$pair@$$CBEF@std@@@2@@std@@@std@@@std@@@std@@@1@V?$_Tree_const_iterator@V?$_Tree_val@U?$_Tree_simple_types@U?$pair@$$CBEV?$map@EFU?$less@E@std@@V?$allocator@U?$pair@$$CBEF@std@@@2@@std@@@std@@@std@@@std@@@1@ABUpiecewise_construct_t@1@$$QAV?$tuple@ABE@1@$$QAV?$tuple@$$V@1@@Z 005b3d40 f i GameSocket.obj
 0002:00053e80       ??$forward@AAF@std@@YAAAFAAF@Z 005b3e80 f i GameSocket.obj
 0002:00053ec0       ??$forward@AAI@std@@YAAAIAAI@Z 005b3ec0 f i GameSocket.obj
 0002:00053f00       ??$forward@AAPAU?$_Tree_node@U?$pair@$$CBEF@std@@PAX@std@@@std@@YAAAPAU?$_Tree_node@U?$pair@$$CBEF@std@@PAX@0@AAPAU10@@Z 005b3f00 f i GameSocket.obj
 0002:00053f40       ??$forward@AAPAU?$_Tree_node@U?$pair@$$CBIPAU_PARTY_GROUP@@@std@@PAX@std@@@std@@YAAAPAU?$_Tree_node@U?$pair@$$CBIPAU_PARTY_GROUP@@@std@@PAX@0@AAPAU10@@Z 005b3f40 f i GameSocket.obj
 0002:00053f80       ??$forward@AAPAU_PARTY_GROUP@@@std@@YAAAPAU_PARTY_GROUP@@AAPAU1@@Z 005b3f80 f i GameSocket.obj
 0002:00053fc0       ??$forward@AAU?$pair@$$CBEF@std@@@std@@YAAAU?$pair@$$CBEF@0@AAU10@@Z 005b3fc0 f i GameSocket.obj
 0002:00054000       ??$forward@AAU?$pair@$$CBEV?$map@EFU?$less@E@std@@V?$allocator@U?$pair@$$CBEF@std@@@2@@std@@@std@@@std@@YAAAU?$pair@$$CBEV?$map@EFU?$less@E@std@@V?$allocator@U?$pair@$$CBEF@std@@@2@@std@@@0@AAU10@@Z 005b4000 f i GameSocket.obj
 0002:00054040       ??$forward@AAU?$pair@$$CBIPAU_PARTY_GROUP@@@std@@@std@@YAAAU?$pair@$$CBIPAU_PARTY_GROUP@@@0@AAU10@@Z 005b4040 f i GameSocket.obj
 0002:00054080       ??$forward@AAV?$_Tree_iterator@V?$_Tree_val@U?$_Tree_simple_types@U?$pair@$$CBEF@std@@@std@@@std@@@std@@@std@@YAAAV?$_Tree_iterator@V?$_Tree_val@U?$_Tree_simple_types@U?$pair@$$CBEF@std@@@std@@@std@@@0@AAV10@@Z 005b4080 f i GameSocket.obj
 0002:000540c0       ??$forward@AAV?$_Tree_iterator@V?$_Tree_val@U?$_Tree_simple_types@U?$pair@$$CBEV?$map@EFU?$less@E@std@@V?$allocator@U?$pair@$$CBEF@std@@@2@@std@@@std@@@std@@@std@@@std@@@std@@YAAAV?$_Tree_iterator@V?$_Tree_val@U?$_Tree_simple_types@U?$pair@$$CBEV?$map@EFU?$less@E@std@@V?$allocator@U?$pair@$$CBEF@std@@@2@@std@@@std@@@std@@@std@@@0@AAV10@@Z 005b40c0 f i GameSocket.obj
 0002:00054100       ??$forward@AAV?$_Tree_iterator@V?$_Tree_val@U?$_Tree_simple_types@U?$pair@$$CBIPAU_PARTY_GROUP@@@std@@@std@@@std@@@std@@@std@@YAAAV?$_Tree_iterator@V?$_Tree_val@U?$_Tree_simple_types@U?$pair@$$CBIPAU_PARTY_GROUP@@@std@@@std@@@std@@@0@AAV10@@Z 005b4100 f i GameSocket.obj
 0002:00054140       ??$forward@ABE@std@@YAABEABE@Z 005b4140 f i GameSocket.obj
 0002:00054180       ??$forward@ABQAD@std@@YAABQADABQAD@Z 005b4180 f i GameSocket.obj
 0002:000541c0       ??$forward@ABUpiecewise_construct_t@std@@@std@@YAABUpiecewise_construct_t@0@ABU10@@Z 005b41c0 f i GameSocket.obj
 0002:00054200       ??$forward@F@std@@YA$$QAFAAF@Z 005b4200 f i GameSocket.obj
 0002:00054240       ??$forward@I@std@@YA$$QAIAAI@Z 005b4240 f i GameSocket.obj
 0002:00054280       ??$forward@PAU_PARTY_GROUP@@@std@@YA$$QAPAU_PARTY_GROUP@@AAPAU1@@Z 005b4280 f i GameSocket.obj
 0002:000542c0       ??$forward@U?$pair@EF@std@@@std@@YA$$QAU?$pair@EF@0@AAU10@@Z 005b42c0 f i GameSocket.obj
 0002:00054300       ??$forward@U?$pair@IPAU_PARTY_GROUP@@@std@@@std@@YA$$QAU?$pair@IPAU_PARTY_GROUP@@@0@AAU10@@Z 005b4300 f i GameSocket.obj
 0002:00054340       ??$forward@V?$_Tree_iterator@V?$_Tree_val@U?$_Tree_simple_types@U?$pair@$$CBEF@std@@@std@@@std@@@std@@@std@@YA$$QAV?$_Tree_iterator@V?$_Tree_val@U?$_Tree_simple_types@U?$pair@$$CBEF@std@@@std@@@std@@@0@AAV10@@Z 005b4340 f i GameSocket.obj
 0002:00054380       ??$forward@V?$_Tree_iterator@V?$_Tree_val@U?$_Tree_simple_types@U?$pair@$$CBEV?$map@EFU?$less@E@std@@V?$allocator@U?$pair@$$CBEF@std@@@2@@std@@@std@@@std@@@std@@@std@@@std@@YA$$QAV?$_Tree_iterator@V?$_Tree_val@U?$_Tree_simple_types@U?$pair@$$CBEV?$map@EFU?$less@E@std@@V?$allocator@U?$pair@$$CBEF@std@@@2@@std@@@std@@@std@@@std@@@0@AAV10@@Z 005b4380 f i GameSocket.obj
 0002:000543c0       ??$forward@V?$_Tree_iterator@V?$_Tree_val@U?$_Tree_simple_types@U?$pair@$$CBIPAU_PARTY_GROUP@@@std@@@std@@@std@@@std@@@std@@YA$$QAV?$_Tree_iterator@V?$_Tree_val@U?$_Tree_simple_types@U?$pair@$$CBIPAU_PARTY_GROUP@@@std@@@std@@@std@@@0@AAV10@@Z 005b43c0 f i GameSocket.obj
 0002:00054400       ??$forward@V?$allocator@D@std@@@std@@YA$$QAV?$allocator@D@0@AAV10@@Z 005b4400 f i GameSocket.obj
 0002:00054440       ??$forward@V?$tuple@$$V@std@@@std@@YA$$QAV?$tuple@$$V@0@AAV10@@Z 005b4440 f i GameSocket.obj
 0002:00054480       ??$forward@V?$tuple@ABE@std@@@std@@YA$$QAV?$tuple@ABE@0@AAV10@@Z 005b4480 f i GameSocket.obj
 0002:000544c0       ??$forward_as_tuple@$$V@std@@YA?AV?$tuple@$$V@0@XZ 005b44c0 f i GameSocket.obj
 0002:00054510       ??$forward_as_tuple@ABE@std@@YA?AV?$tuple@ABE@0@ABE@Z 005b4510 f i GameSocket.obj
 0002:000545b0       ??$get@$0A@ABE@std@@YAABE$$QAV?$tuple@ABE@0@@Z 005b45b0 f i GameSocket.obj
 0002:00054600       ??$insert@U?$pair@EF@std@@X@?$map@EFU?$less@E@std@@V?$allocator@U?$pair@$$CBEF@std@@@2@@std@@QAE?AU?$pair@V?$_Tree_iterator@V?$_Tree_val@U?$_Tree_simple_types@U?$pair@$$CBEF@std@@@std@@@std@@@std@@_N@1@$$QAU?$pair@EF@1@@Z 005b4600 f i GameSocket.obj
 0002:00054690       ??$insert@U?$pair@IPAU_PARTY_GROUP@@@std@@X@?$map@IPAU_PARTY_GROUP@@U?$less@I@std@@V?$allocator@U?$pair@$$CBIPAU_PARTY_GROUP@@@std@@@3@@std@@QAE?AU?$pair@V?$_Tree_iterator@V?$_Tree_val@U?$_Tree_simple_types@U?$pair@$$CBIPAU_PARTY_GROUP@@@std@@@std@@@std@@@std@@_N@1@$$QAU?$pair@IPAU_PARTY_GROUP@@@1@@Z 005b4690 f i GameSocket.obj
 0002:00054720       ??$make_pair@AAEAAF@std@@YA?AU?$pair@EF@0@AAEAAF@Z 005b4720 f i GameSocket.obj
 0002:00054790       ??$make_pair@AAIAAPAU_PARTY_GROUP@@@std@@YA?AU?$pair@IPAU_PARTY_GROUP@@@0@AAIAAPAU_PARTY_GROUP@@@Z 005b4790 f i GameSocket.obj
 0002:00054800       ??$move@AAV?$tuple@ABE@std@@@std@@YA$$QAV?$tuple@ABE@0@AAV10@@Z 005b4800 f i GameSocket.obj
 0002:00054840       ??$read@F@ByteBuffer@@QAEFXZ 005b4840 f i GameSocket.obj
 0002:000548c0       ??$read@F@ByteBuffer@@QBEFI@Z 005b48c0 f i GameSocket.obj
 0002:00054940       ??$read@H@ByteBuffer@@QAEHXZ 005b4940 f i GameSocket.obj
 0002:000549c0       ??$read@H@ByteBuffer@@QBEHI@Z 005b49c0 f i GameSocket.obj
 0002:00054a40       ??$read@M@ByteBuffer@@QAEMXZ 005b4a40 f i GameSocket.obj
 0002:00054ac0       ??$read@M@ByteBuffer@@QBEMI@Z 005b4ac0 f i GameSocket.obj
 0002:00054b40       ??$read@_K@ByteBuffer@@QAE_KXZ 005b4b40 f i GameSocket.obj
 0002:00054bc0       ??$read@_K@ByteBuffer@@QBE_KI@Z 005b4bc0 f i GameSocket.obj
 0002:00054c40       ??$try_emplace@$$V@?$map@EV?$map@EFU?$less@E@std@@V?$allocator@U?$pair@$$CBEF@std@@@2@@std@@U?$less@E@2@V?$allocator@U?$pair@$$CBEV?$map@EFU?$less@E@std@@V?$allocator@U?$pair@$$CBEF@std@@@2@@std@@@std@@@2@@std@@QAE?AU?$pair@V?$_Tree_iterator@V?$_Tree_val@U?$_Tree_simple_types@U?$pair@$$CBEV?$map@EFU?$less@E@std@@V?$allocator@U?$pair@$$CBEF@std@@@2@@std@@@std@@@std@@@std@@@std@@_N@1@ABE@Z 005b4c40 f i GameSocket.obj
 0002:00054d10       ??0?$_String_alloc@U?$_String_base_types@DV?$allocator@D@std@@@std@@@std@@QAE@XZ 005b4d10 f i GameSocket.obj
 0002:00054dc0       ??0?$_String_val@U?$_Simple_types@D@std@@@std@@QAE@XZ 005b4dc0 f i GameSocket.obj
 0002:00054e80       ??0?$_Tree@V?$_Tmap_traits@EFU?$less@E@std@@V?$allocator@U?$pair@$$CBEF@std@@@2@$0A@@std@@@std@@QAE@ABU?$less@E@1@@Z 005b4e80 f i GameSocket.obj
 0002:00054ee0       ??0?$_Tree_comp_alloc@V?$_Tmap_traits@EFU?$less@E@std@@V?$allocator@U?$pair@$$CBEF@std@@@2@$0A@@std@@@std@@QAE@ABU?$less@E@1@@Z 005b4ee0 f i GameSocket.obj
 0002:00054fa0       ??0?$_Tree_const_iterator@V?$_Tree_val@U?$_Tree_simple_types@U?$pair@$$CBEV?$map@EFU?$less@E@std@@V?$allocator@U?$pair@$$CBEF@std@@@2@@std@@@std@@@std@@@std@@@std@@QAE@XZ 005b4fa0 f i GameSocket.obj
 0002:00055000       ??0?$_Tree_const_iterator@V?$_Tree_val@U?$_Tree_simple_types@U?$pair@$$CBIPAU_PARTY_GROUP@@@std@@@std@@@std@@@std@@QAE@$$QAV01@@Z 005b5000 f i GameSocket.obj
 0002:00055060       ??0?$_Tree_const_iterator@V?$_Tree_val@U?$_Tree_simple_types@U?$pair@$$CBIPAU_PARTY_GROUP@@@std@@@std@@@std@@@std@@QAE@ABV01@@Z 005b5060 f i GameSocket.obj
 0002:000550c0       ??0?$_Tree_const_iterator@V?$_Tree_val@U?$_Tree_simple_types@U?$pair@$$CBIPAU_PARTY_GROUP@@@std@@@std@@@std@@@std@@QAE@PAU?$_Tree_node@U?$pair@$$CBIPAU_PARTY_GROUP@@@std@@PAX@1@PBV?$_Tree_val@U?$_Tree_simple_types@U?$pair@$$CBIPAU_PARTY_GROUP@@@std@@@std@@@1@@Z 005b50c0 f i GameSocket.obj
 0002:00055120       ??0?$_Tree_const_iterator@V?$_Tree_val@U?$_Tree_simple_types@U?$pair@$$CBIPAVCNpc@@@std@@@std@@@std@@@std@@QAE@$$QAV01@@Z 005b5120 f i GameSocket.obj
 0002:00055180       ??0?$_Tree_const_iterator@V?$_Tree_val@U?$_Tree_simple_types@U?$pair@$$CBIPAVCNpc@@@std@@@std@@@std@@@std@@QAE@ABV01@@Z 005b5180 f i GameSocket.obj
 0002:000551e0       ??0?$_Tree_const_iterator@V?$_Tree_val@U?$_Tree_simple_types@U?$pair@$$CBIPAVCNpc@@@std@@@std@@@std@@@std@@QAE@PAU?$_Tree_node@U?$pair@$$CBIPAVCNpc@@@std@@PAX@1@PBV?$_Tree_val@U?$_Tree_simple_types@U?$pair@$$CBIPAVCNpc@@@std@@@std@@@1@@Z 005b51e0 f i GameSocket.obj
 0002:00055240       ??0?$_Tree_iterator@V?$_Tree_val@U?$_Tree_simple_types@U?$pair@$$CBIPAU_PARTY_GROUP@@@std@@@std@@@std@@@std@@QAE@$$QAV01@@Z 005b5240 f i GameSocket.obj
 0002:000552a0       ??0?$_Tree_iterator@V?$_Tree_val@U?$_Tree_simple_types@U?$pair@$$CBIPAU_PARTY_GROUP@@@std@@@std@@@std@@@std@@QAE@ABV01@@Z 005b52a0 f i GameSocket.obj
 0002:00055300       ??0?$_Tree_iterator@V?$_Tree_val@U?$_Tree_simple_types@U?$pair@$$CBIPAU_PARTY_GROUP@@@std@@@std@@@std@@@std@@QAE@PAU?$_Tree_node@U?$pair@$$CBIPAU_PARTY_GROUP@@@std@@PAX@1@PBV?$_Tree_val@U?$_Tree_simple_types@U?$pair@$$CBIPAU_PARTY_GROUP@@@std@@@std@@@1@@Z 005b5300 f i GameSocket.obj
 0002:00055360       ??0?$_Tree_iterator@V?$_Tree_val@U?$_Tree_simple_types@U?$pair@$$CBIPAVCNpc@@@std@@@std@@@std@@@std@@QAE@$$QAV01@@Z 005b5360 f i GameSocket.obj
 0002:000553c0       ??0?$_Tree_iterator@V?$_Tree_val@U?$_Tree_simple_types@U?$pair@$$CBIPAVCNpc@@@std@@@std@@@std@@@std@@QAE@ABV01@@Z 005b53c0 f i GameSocket.obj
 0002:00055420       ??0?$_Tree_iterator@V?$_Tree_val@U?$_Tree_simple_types@U?$pair@$$CBIPAVCNpc@@@std@@@std@@@std@@@std@@QAE@PAU?$_Tree_node@U?$pair@$$CBIPAVCNpc@@@std@@PAX@1@PBV?$_Tree_val@U?$_Tree_simple_types@U?$pair@$$CBIPAVCNpc@@@std@@@std@@@1@@Z 005b5420 f i GameSocket.obj
 0002:00055480       ??0?$_Tree_unchecked_const_iterator@V?$_Tree_val@U?$_Tree_simple_types@U?$pair@$$CBEV?$map@EFU?$less@E@std@@V?$allocator@U?$pair@$$CBEF@std@@@2@@std@@@std@@@std@@@std@@U_Iterator_base12@2@@std@@QAE@XZ 005b5480 f i GameSocket.obj
 0002:000554e0       ??0?$_Tree_unchecked_const_iterator@V?$_Tree_val@U?$_Tree_simple_types@U?$pair@$$CBIPAU_PARTY_GROUP@@@std@@@std@@@std@@U_Iterator_base12@2@@std@@QAE@$$QAV01@@Z 005b54e0 f i GameSocket.obj
 0002:00055550       ??0?$_Tree_unchecked_const_iterator@V?$_Tree_val@U?$_Tree_simple_types@U?$pair@$$CBIPAU_PARTY_GROUP@@@std@@@std@@@std@@U_Iterator_base12@2@@std@@QAE@ABV01@@Z 005b5550 f i GameSocket.obj
 0002:000555c0       ??0?$_Tree_unchecked_const_iterator@V?$_Tree_val@U?$_Tree_simple_types@U?$pair@$$CBIPAU_PARTY_GROUP@@@std@@@std@@@std@@U_Iterator_base12@2@@std@@QAE@PAU?$_Tree_node@U?$pair@$$CBIPAU_PARTY_GROUP@@@std@@PAX@1@PBV?$_Tree_val@U?$_Tree_simple_types@U?$pair@$$CBIPAU_PARTY_GROUP@@@std@@@std@@@1@@Z 005b55c0 f i GameSocket.obj
 0002:00055630       ??0?$_Tree_unchecked_const_iterator@V?$_Tree_val@U?$_Tree_simple_types@U?$pair@$$CBIPAVCNpc@@@std@@@std@@@std@@U_Iterator_base12@2@@std@@QAE@$$QAV01@@Z 005b5630 f i GameSocket.obj
 0002:000556a0       ??0?$_Tree_unchecked_const_iterator@V?$_Tree_val@U?$_Tree_simple_types@U?$pair@$$CBIPAVCNpc@@@std@@@std@@@std@@U_Iterator_base12@2@@std@@QAE@ABV01@@Z 005b56a0 f i GameSocket.obj
 0002:00055710       ??0?$_Tree_unchecked_const_iterator@V?$_Tree_val@U?$_Tree_simple_types@U?$pair@$$CBIPAVCNpc@@@std@@@std@@@std@@U_Iterator_base12@2@@std@@QAE@PAU?$_Tree_node@U?$pair@$$CBIPAVCNpc@@@std@@PAX@1@PBV?$_Tree_val@U?$_Tree_simple_types@U?$pair@$$CBIPAVCNpc@@@std@@@std@@@1@@Z 005b5710 f i GameSocket.obj
 0002:00055780       ??0?$_Tree_val@U?$_Tree_simple_types@U?$pair@$$CBEF@std@@@std@@@std@@QAE@XZ 005b5780 f i GameSocket.obj
 0002:000557f0       ??0?$allocator@D@std@@QAE@XZ 005b57f0 f i GameSocket.obj
 0002:00055830       ??0?$allocator@U?$_Tree_node@U?$pair@$$CBEF@std@@PAX@std@@@std@@QAE@XZ 005b5830 f i GameSocket.obj
 0002:00055870       ??0?$basic_string@DU?$char_traits@D@std@@V?$allocator@D@2@@std@@QAE@ABV01@@Z 005b5870 f i GameSocket.obj
 0002:00055940       ??0?$basic_string@DU?$char_traits@D@std@@V?$allocator@D@2@@std@@QAE@XZ 005b5940 f i GameSocket.obj
 0002:000559e0       ??0?$map@EFU?$less@E@std@@V?$allocator@U?$pair@$$CBEF@std@@@2@@std@@QAE@XZ 005b59e0 f i GameSocket.obj
 0002:00055a40       ??0?$tuple@$$V@std@@QAE@ABV01@@Z 005b5a40 f i GameSocket.obj
 0002:00055a80       ??0?$tuple@$$V@std@@QAE@XZ 005b5a80 f i GameSocket.obj
 0002:00055ac0       ??0?$tuple@ABE@std@@QAE@$$QAV01@@Z 005b5ac0 f i GameSocket.obj
 0002:00055b30       ??0_Bxty@?$_String_val@U?$_Simple_types@D@std@@@std@@QAE@XZ 005b5b30 f i GameSocket.obj
 0002:00055b70       ??0_PARTY_GROUP@@QAE@XZ    005b5b70 f i GameSocket.obj
 0002:00055be0       ??1?$_Compressed_pair@V?$allocator@D@std@@V?$_String_val@U?$_Simple_types@D@std@@@2@$00@std@@QAE@XZ 005b5be0 f i GameSocket.obj
 0002:00055c30       ??1?$_String_alloc@U?$_String_base_types@DV?$allocator@D@std@@@std@@@std@@QAE@XZ 005b5c30 f i GameSocket.obj
 0002:00055cc0       ??1?$_String_val@U?$_Simple_types@D@std@@@std@@QAE@XZ 005b5cc0 f i GameSocket.obj
 0002:00055d20       ??1?$_Tree_const_iterator@V?$_Tree_val@U?$_Tree_simple_types@U?$pair@$$CBIPAU_PARTY_GROUP@@@std@@@std@@@std@@@std@@QAE@XZ 005b5d20 f i GameSocket.obj
 0002:00055d70       ??1?$_Tree_const_iterator@V?$_Tree_val@U?$_Tree_simple_types@U?$pair@$$CBIPAVCNpc@@@std@@@std@@@std@@@std@@QAE@XZ 005b5d70 f i GameSocket.obj
 0002:00055dc0       ??1?$_Tree_iterator@V?$_Tree_val@U?$_Tree_simple_types@U?$pair@$$CBIPAU_PARTY_GROUP@@@std@@@std@@@std@@@std@@QAE@XZ 005b5dc0 f i GameSocket.obj
 0002:00055e10       ??1?$_Tree_iterator@V?$_Tree_val@U?$_Tree_simple_types@U?$pair@$$CBIPAVCNpc@@@std@@@std@@@std@@@std@@QAE@XZ 005b5e10 f i GameSocket.obj
 0002:00055e60       ??1?$_Tree_unchecked_const_iterator@V?$_Tree_val@U?$_Tree_simple_types@U?$pair@$$CBIPAU_PARTY_GROUP@@@std@@@std@@@std@@U_Iterator_base12@2@@std@@QAE@XZ 005b5e60 f i GameSocket.obj
 0002:00055eb0       ??1?$_Tree_unchecked_const_iterator@V?$_Tree_val@U?$_Tree_simple_types@U?$pair@$$CBIPAVCNpc@@@std@@@std@@@std@@U_Iterator_base12@2@@std@@QAE@XZ 005b5eb0 f i GameSocket.obj
 0002:00055f00       ??1?$basic_string@DU?$char_traits@D@std@@V?$allocator@D@2@@std@@QAE@XZ 005b5f00 f i GameSocket.obj
 0002:00055f90       ??1?$pair@V?$_Tree_iterator@V?$_Tree_val@U?$_Tree_simple_types@U?$pair@$$CBEF@std@@@std@@@std@@@std@@_N@std@@QAE@XZ 005b5f90 f i GameSocket.obj
 0002:00055fe0       ??1?$pair@V?$_Tree_iterator@V?$_Tree_val@U?$_Tree_simple_types@U?$pair@$$CBEV?$map@EFU?$less@E@std@@V?$allocator@U?$pair@$$CBEF@std@@@2@@std@@@std@@@std@@@std@@@std@@_N@std@@QAE@XZ 005b5fe0 f i GameSocket.obj
 0002:00056030       ??1?$pair@V?$_Tree_iterator@V?$_Tree_val@U?$_Tree_simple_types@U?$pair@$$CBIPAU_PARTY_GROUP@@@std@@@std@@@std@@@std@@_N@std@@QAE@XZ 005b6030 f i GameSocket.obj
 0002:00056080       ??1CGameSocket@@UAE@XZ     005b6080 f   GameSocket.obj
 0002:000560f0       ??1KOSocket@@UAE@XZ        005b60f0 f i GameSocket.obj
 0002:00056140       ??1_Bxty@?$_String_val@U?$_Simple_types@D@std@@@std@@QAE@XZ 005b6140 f i GameSocket.obj
 0002:00056180       ??3@YAXPAX0@Z              005b6180 f i GameSocket.obj
 0002:000561b0       ??4?$_Tree@V?$_Tmap_traits@EFU?$less@E@std@@V?$allocator@U?$pair@$$CBEF@std@@@2@$0A@@std@@@std@@QAEAAV01@ABV01@@Z 005b61b0 f i GameSocket.obj
 0002:00056260       ??4?$_Tree_const_iterator@V?$_Tree_val@U?$_Tree_simple_types@U?$pair@$$CBEV?$map@EFU?$less@E@std@@V?$allocator@U?$pair@$$CBEF@std@@@2@@std@@@std@@@std@@@std@@@std@@QAEAAV01@ABV01@@Z 005b6260 f i GameSocket.obj
 0002:000562c0       ??4?$_Tree_unchecked_const_iterator@V?$_Tree_val@U?$_Tree_simple_types@U?$pair@$$CBEV?$map@EFU?$less@E@std@@V?$allocator@U?$pair@$$CBEF@std@@@2@@std@@@std@@@std@@@std@@U_Iterator_base12@2@@std@@QAEAAV01@ABV01@@Z 005b62c0 f i GameSocket.obj
 0002:00056330       ??4?$map@EFU?$less@E@std@@V?$allocator@U?$pair@$$CBEF@std@@@2@@std@@QAEAAV01@ABV01@@Z 005b6330 f i GameSocket.obj
 0002:00056390       ??5ByteBuffer@@QAEAAV0@AAF@Z 005b6390 f i GameSocket.obj
 0002:000563f0       ??5ByteBuffer@@QAEAAV0@AAH@Z 005b63f0 f i GameSocket.obj
 0002:00056450       ??5ByteBuffer@@QAEAAV0@AAM@Z 005b6450 f i GameSocket.obj
 0002:000564b0       ??5ByteBuffer@@QAEAAV0@AAV?$basic_string@DU?$char_traits@D@std@@V?$allocator@D@2@@std@@@Z 005b64b0 f i GameSocket.obj
 0002:000565a0       ??5ByteBuffer@@QAEAAV0@AA_K@Z 005b65a0 f i GameSocket.obj
 0002:00056600       ??8?$_Tree_const_iterator@V?$_Tree_val@U?$_Tree_simple_types@U?$pair@$$CBIPAU_PARTY_GROUP@@@std@@@std@@@std@@@std@@QBE_NABV01@@Z 005b6600 f i GameSocket.obj
 0002:000566e0       ??8?$_Tree_const_iterator@V?$_Tree_val@U?$_Tree_simple_types@U?$pair@$$CBIPAVCNpc@@@std@@@std@@@std@@@std@@QBE_NABV01@@Z 005b66e0 f i GameSocket.obj
 0002:000567c0       ??9?$_Tree_const_iterator@V?$_Tree_val@U?$_Tree_simple_types@U?$pair@$$CBIPAVCNpc@@@std@@@std@@@std@@@std@@QBE_NABV01@@Z 005b67c0 f i GameSocket.obj
 0002:00056850       ??A?$map@EV?$map@EFU?$less@E@std@@V?$allocator@U?$pair@$$CBEF@std@@@2@@std@@U?$less@E@2@V?$allocator@U?$pair@$$CBEV?$map@EFU?$less@E@std@@V?$allocator@U?$pair@$$CBEF@std@@@2@@std@@@std@@@2@@std@@QAEAAV?$map@EFU?$less@E@std@@V?$allocator@U?$pair@$$CBEF@std@@@2@@1@ABE@Z 005b6850 f i GameSocket.obj
 0002:00056940       ??C?$_Tree_iterator@V?$_Tree_val@U?$_Tree_simple_types@U?$pair@$$CBIPAVCNpc@@@std@@@std@@@std@@@std@@QBEPAU?$pair@$$CBIPAVCNpc@@@1@XZ 005b6940 f i GameSocket.obj
 0002:000569a0       ??D?$_Tree_const_iterator@V?$_Tree_val@U?$_Tree_simple_types@U?$pair@$$CBIPAVCNpc@@@std@@@std@@@std@@@std@@QBEABU?$pair@$$CBIPAVCNpc@@@1@XZ 005b69a0 f i GameSocket.obj
 0002:00056a70       ??D?$_Tree_iterator@V?$_Tree_val@U?$_Tree_simple_types@U?$pair@$$CBIPAVCNpc@@@std@@@std@@@std@@@std@@QBEAAU?$pair@$$CBIPAVCNpc@@@1@XZ 005b6a70 f i GameSocket.obj
 0002:00056ac0       ??E?$_Tree_const_iterator@V?$_Tree_val@U?$_Tree_simple_types@U?$pair@$$CBIPAVCNpc@@@std@@@std@@@std@@@std@@QAEAAV01@XZ 005b6ac0 f i GameSocket.obj
 0002:00056b80       ??E?$_Tree_iterator@V?$_Tree_val@U?$_Tree_simple_types@U?$pair@$$CBIPAVCNpc@@@std@@@std@@@std@@@std@@QAE?AV01@H@Z 005b6b80 f i GameSocket.obj
 0002:00056ca0       ??E?$_Tree_iterator@V?$_Tree_val@U?$_Tree_simple_types@U?$pair@$$CBIPAVCNpc@@@std@@@std@@@std@@@std@@QAEAAV01@XZ 005b6ca0 f i GameSocket.obj
 0002:00056d00       ??E?$_Tree_unchecked_const_iterator@V?$_Tree_val@U?$_Tree_simple_types@U?$pair@$$CBIPAVCNpc@@@std@@@std@@@std@@U_Iterator_base12@2@@std@@QAEAAV01@XZ 005b6d00 f i GameSocket.obj
 0002:00056de0       ??F?$_Tree_const_iterator@V?$_Tree_val@U?$_Tree_simple_types@U?$pair@$$CBEF@std@@@std@@@std@@@std@@QAEAAV01@XZ 005b6de0 f i GameSocket.obj
 0002:00056ef0       ??F?$_Tree_const_iterator@V?$_Tree_val@U?$_Tree_simple_types@U?$pair@$$CBEV?$map@EFU?$less@E@std@@V?$allocator@U?$pair@$$CBEF@std@@@2@@std@@@std@@@std@@@std@@@std@@QAEAAV01@XZ 005b6ef0 f i GameSocket.obj
 0002:00057000       ??F?$_Tree_const_iterator@V?$_Tree_val@U?$_Tree_simple_types@U?$pair@$$CBIPAU_PARTY_GROUP@@@std@@@std@@@std@@@std@@QAEAAV01@XZ 005b7000 f i GameSocket.obj
 0002:00057110       ??F?$_Tree_iterator@V?$_Tree_val@U?$_Tree_simple_types@U?$pair@$$CBEF@std@@@std@@@std@@@std@@QAEAAV01@XZ 005b7110 f i GameSocket.obj
 0002:00057170       ??F?$_Tree_iterator@V?$_Tree_val@U?$_Tree_simple_types@U?$pair@$$CBEV?$map@EFU?$less@E@std@@V?$allocator@U?$pair@$$CBEF@std@@@2@@std@@@std@@@std@@@std@@@std@@QAEAAV01@XZ 005b7170 f i GameSocket.obj
 0002:000571d0       ??F?$_Tree_iterator@V?$_Tree_val@U?$_Tree_simple_types@U?$pair@$$CBIPAU_PARTY_GROUP@@@std@@@std@@@std@@@std@@QAEAAV01@XZ 005b71d0 f i GameSocket.obj
 0002:00057230       ??F?$_Tree_unchecked_const_iterator@V?$_Tree_val@U?$_Tree_simple_types@U?$pair@$$CBEF@std@@@std@@@std@@U_Iterator_base12@2@@std@@QAEAAV01@XZ 005b7230 f i GameSocket.obj
 0002:00057330       ??F?$_Tree_unchecked_const_iterator@V?$_Tree_val@U?$_Tree_simple_types@U?$pair@$$CBEV?$map@EFU?$less@E@std@@V?$allocator@U?$pair@$$CBEF@std@@@2@@std@@@std@@@std@@@std@@U_Iterator_base12@2@@std@@QAEAAV01@XZ 005b7330 f i GameSocket.obj
 0002:00057430       ??F?$_Tree_unchecked_const_iterator@V?$_Tree_val@U?$_Tree_simple_types@U?$pair@$$CBIPAU_PARTY_GROUP@@@std@@@std@@@std@@U_Iterator_base12@2@@std@@QAEAAV01@XZ 005b7430 f i GameSocket.obj
 0002:00057640       ??_GCGameSocket@@UAEPAXI@Z 005b7640 f i GameSocket.obj
 0002:00057640       ??_ECGameSocket@@UAEPAXI@Z 005b7640 f i GameSocket.obj
 0002:000576c0       ?GetOpcode@Packet@@QBEEXZ  005b76c0 f i GameSocket.obj
 0002:00057700       ?GetSocketID@KOSocket@@QAEGXZ 005b7700 f i GameSocket.obj
 0002:00057750       ?HandlePacket@CGameSocket@@UAE_NAAVPacket@@@Z 005b7750 f   GameSocket.obj
 0002:00057c20       ?Initialize@CGameSocket@@QAEXXZ 005b7c20 f   GameSocket.obj
 0002:00057c80       ?OnConnect@CGameSocket@@UAEXXZ 005b7c80 f   GameSocket.obj
 0002:00057ce0       ?OnDisconnect@CGameSocket@@UAEXXZ 005b7ce0 f   GameSocket.obj
 0002:00057e00       ?PutData@?$CSTLMap@U_PARTY_GROUP@@@@QAE_NIPAU_PARTY_GROUP@@@Z 005b7e00 f i GameSocket.obj
 0002:00057f50       ?ReadUserInfo@CGameSocket@@QAEXAAVPacket@@PAVCUser@@@Z 005b7f50 f   GameSocket.obj
 0002:00058360       ?RecvBattleEvent@CGameSocket@@QAEXAAVPacket@@@Z 005b8360 f   GameSocket.obj
 0002:00058620       ?RecvGateOpen@CGameSocket@@QAEXAAVPacket@@@Z 005b8620 f   GameSocket.obj
 0002:00058780       ?RecvHealMagic@CGameSocket@@QAEXAAVPacket@@@Z 005b8780 f   GameSocket.obj
 0002:00058830       ?RecvNpcHpChange@CGameSocket@@QAEXAAVPacket@@@Z 005b8830 f   GameSocket.obj
 0002:00058a00       ?RecvNpcKillRequest@CGameSocket@@QAEXAAVPacket@@@Z 005b8a00 f   GameSocket.obj
 0002:00058c90       ?RecvNpcMoveResult@CGameSocket@@QAEXAAVPacket@@@Z 005b8c90 f   GameSocket.obj
 0002:00058e20       ?RecvNpcSpawnRequest@CGameSocket@@QAEXAAVPacket@@@Z 005b8e20 f   GameSocket.obj
 0002:00059360       ?RecvNpcUpdate@CGameSocket@@QAEXAAVPacket@@@Z 005b9360 f   GameSocket.obj
 0002:000594a0       ?RecvPartyInfoAllData@CGameSocket@@QAEXAAVPacket@@@Z 005b94a0 f   GameSocket.obj
 0002:00059650       ?RecvServerConnect@CGameSocket@@QAEXAAVPacket@@@Z 005b9650 f   GameSocket.obj
 0002:00059890       ?RecvTimeAndWeather@CGameSocket@@QAEXAAVPacket@@@Z 005b9890 f   GameSocket.obj
 0002:000599e0       ?RecvUserInOut@CGameSocket@@QAEXAAVPacket@@@Z 005b99e0 f   GameSocket.obj
 0002:00059f10       ?RecvUserInfo@CGameSocket@@QAEXAAVPacket@@@Z 005b9f10 f   GameSocket.obj
 0002:0005a220       ?RecvUserInfoAllData@CGameSocket@@QAEXAAVPacket@@@Z 005ba220 f   GameSocket.obj
 0002:0005a2b0       ?RecvUserLogOut@CGameSocket@@QAEXAAVPacket@@@Z 005ba2b0 f   GameSocket.obj
 0002:0005a3f0       ?RecvUserMove@CGameSocket@@QAEXAAVPacket@@@Z 005ba3f0 f   GameSocket.obj
 0002:0005a540       ?RecvUserRegene@CGameSocket@@QAEXAAVPacket@@@Z 005ba540 f   GameSocket.obj
 0002:0005a690       ?RecvUserSetHP@CGameSocket@@QAEXAAVPacket@@@Z 005ba690 f   GameSocket.obj
 0002:0005a7e0       ?RecvUserTransform@CGameSocket@@QAEXAAVPacket@@@Z 005ba7e0 f   GameSocket.obj
 0002:0005a8d0       ?RecvUserUpdate@CGameSocket@@QAEXAAVPacket@@@Z 005ba8d0 f   GameSocket.obj
 0002:0005a960       ?RecvUserVisibility@CGameSocket@@QAEXAAVPacket@@@Z 005ba960 f   GameSocket.obj
 0002:0005aa50       ?RecvZoneChange@CGameSocket@@QAEXAAVPacket@@@Z 005baa50 f   GameSocket.obj
 0002:0005ab60       ?SByte@ByteBuffer@@QAEXXZ  005bab60 f i GameSocket.obj
 0002:0005aba0       ?SetUid@CGameSocket@@QAE_NMMHH@Z 005baba0 f   GameSocket.obj
 0002:0005af20       ?_Alloc_proxy@?$_String_alloc@U?$_String_base_types@DV?$allocator@D@std@@@std@@@std@@QAEXXZ 005baf20 f i GameSocket.obj
 0002:0005b040       ?_Alloc_proxy@?$_Tree_comp_alloc@V?$_Tmap_traits@EFU?$less@E@std@@V?$allocator@U?$pair@$$CBEF@std@@@2@$0A@@std@@@std@@QAEXXZ 005bb040 f i GameSocket.obj
 0002:0005b160       ?_Buyheadnode@?$_Tree_comp_alloc@V?$_Tmap_traits@EFU?$less@E@std@@V?$allocator@U?$pair@$$CBEF@std@@@2@$0A@@std@@@std@@QAEPAU?$_Tree_node@U?$pair@$$CBEF@std@@PAX@2@XZ 005bb160 f i GameSocket.obj
 0002:0005b310       ?_Buynode0@?$_Tree_comp_alloc@V?$_Tmap_traits@EFU?$less@E@std@@V?$allocator@U?$pair@$$CBEF@std@@@2@$0A@@std@@@std@@QAEPAU?$_Tree_node@U?$pair@$$CBEF@std@@PAX@2@XZ 005bb310 f i GameSocket.obj
 0002:0005b480       ?_Buynode0@?$_Tree_comp_alloc@V?$_Tmap_traits@EV?$map@EFU?$less@E@std@@V?$allocator@U?$pair@$$CBEF@std@@@2@@std@@U?$less@E@2@V?$allocator@U?$pair@$$CBEV?$map@EFU?$less@E@std@@V?$allocator@U?$pair@$$CBEF@std@@@2@@std@@@std@@@2@$0A@@std@@@std@@QAEPAU?$_Tree_node@U?$pair@$$CBEV?$map@EFU?$less@E@std@@V?$allocator@U?$pair@$$CBEF@std@@@2@@std@@@std@@PAX@2@XZ 005bb480 f i GameSocket.obj
 0002:0005b5f0       ?_Buynode0@?$_Tree_comp_alloc@V?$_Tmap_traits@IPAU_PARTY_GROUP@@U?$less@I@std@@V?$allocator@U?$pair@$$CBIPAU_PARTY_GROUP@@@std@@@3@$0A@@std@@@std@@QAEPAU?$_Tree_node@U?$pair@$$CBIPAU_PARTY_GROUP@@@std@@PAX@2@XZ 005bb5f0 f i GameSocket.obj
 0002:0005b760       ?_Calculate_growth@?$basic_string@DU?$char_traits@D@std@@V?$allocator@D@2@@std@@QBEII@Z 005bb760 f i GameSocket.obj
 0002:0005b870       ?_Compare@?$_Tree@V?$_Tmap_traits@EV?$map@EFU?$less@E@std@@V?$allocator@U?$pair@$$CBEF@std@@@2@@std@@U?$less@E@2@V?$allocator@U?$pair@$$CBEV?$map@EFU?$less@E@std@@V?$allocator@U?$pair@$$CBEF@std@@@2@@std@@@std@@@2@$0A@@std@@@std@@IBE_NABE0@Z 005bb870 f i GameSocket.obj
 0002:0005b8f0       ?_Construct@?$_Tree_comp_alloc@V?$_Tmap_traits@EFU?$less@E@std@@V?$allocator@U?$pair@$$CBEF@std@@@2@$0A@@std@@@std@@QAEXXZ 005bb8f0 f i GameSocket.obj
 0002:0005b9e0       ?_Construct_lv_contents@?$basic_string@DU?$char_traits@D@std@@V?$allocator@D@2@@std@@QAEXABV12@@Z 005bb9e0 f i GameSocket.obj
 0002:0005bbb0       ?_Copy_alloc@?$_Tree_comp_alloc@V?$_Tmap_traits@EFU?$less@E@std@@V?$allocator@U?$pair@$$CBEF@std@@@2@$0A@@std@@@std@@QAEXABV?$allocator@U?$_Tree_node@U?$pair@$$CBEF@std@@PAX@std@@@2@@Z 005bbbb0 f i GameSocket.obj
 0002:0005bc70       ?_Destroy_if_not_nil@?$_Tree@V?$_Tmap_traits@EFU?$less@E@std@@V?$allocator@U?$pair@$$CBEF@std@@@2@$0A@@std@@@std@@IAEXPAU?$_Tree_node@U?$pair@$$CBEF@std@@PAX@2@@Z 005bbc70 f i GameSocket.obj
 0002:0005bd00       ?_Destroy_if_not_nil@?$_Tree@V?$_Tmap_traits@EV?$map@EFU?$less@E@std@@V?$allocator@U?$pair@$$CBEF@std@@@2@@std@@U?$less@E@2@V?$allocator@U?$pair@$$CBEV?$map@EFU?$less@E@std@@V?$allocator@U?$pair@$$CBEF@std@@@2@@std@@@std@@@2@$0A@@std@@@std@@IAEXPAU?$_Tree_node@U?$pair@$$CBEV?$map@EFU?$less@E@std@@V?$allocator@U?$pair@$$CBEF@std@@@2@@std@@@std@@PAX@2@@Z 005bbd00 f i GameSocket.obj
 0002:0005bd90       ?_Destroy_if_not_nil@?$_Tree@V?$_Tmap_traits@IPAU_PARTY_GROUP@@U?$less@I@std@@V?$allocator@U?$pair@$$CBIPAU_PARTY_GROUP@@@std@@@3@$0A@@std@@@std@@IAEXPAU?$_Tree_node@U?$pair@$$CBIPAU_PARTY_GROUP@@@std@@PAX@2@@Z 005bbd90 f i GameSocket.obj
 0002:0005be20       ?_Eos@?$basic_string@DU?$char_traits@D@std@@V?$allocator@D@2@@std@@QAEXI@Z 005bbe20 f i GameSocket.obj
 0002:0005beb0       ?_Free_proxy@?$_String_alloc@U?$_String_base_types@DV?$allocator@D@std@@@std@@@std@@QAEXXZ 005bbeb0 f i GameSocket.obj
 0002:0005bfb0       ?_Freenode0@?$_Tree_comp_alloc@V?$_Tmap_traits@EFU?$less@E@std@@V?$allocator@U?$pair@$$CBEF@std@@@2@$0A@@std@@@std@@QAEXPAU?$_Tree_node@U?$pair@$$CBEF@std@@PAX@2@@Z 005bbfb0 f i GameSocket.obj
 0002:0005c080       ?_Freenode0@?$_Tree_comp_alloc@V?$_Tmap_traits@EV?$map@EFU?$less@E@std@@V?$allocator@U?$pair@$$CBEF@std@@@2@@std@@U?$less@E@2@V?$allocator@U?$pair@$$CBEV?$map@EFU?$less@E@std@@V?$allocator@U?$pair@$$CBEF@std@@@2@@std@@@std@@@2@$0A@@std@@@std@@QAEXPAU?$_Tree_node@U?$pair@$$CBEV?$map@EFU?$less@E@std@@V?$allocator@U?$pair@$$CBEF@std@@@2@@std@@@std@@PAX@2@@Z 005bc080 f i GameSocket.obj
 0002:0005c150       ?_Freenode0@?$_Tree_comp_alloc@V?$_Tmap_traits@IPAU_PARTY_GROUP@@U?$less@I@std@@V?$allocator@U?$pair@$$CBIPAU_PARTY_GROUP@@@std@@@3@$0A@@std@@@std@@QAEXPAU?$_Tree_node@U?$pair@$$CBIPAU_PARTY_GROUP@@@std@@PAX@2@@Z 005bc150 f i GameSocket.obj
 0002:0005c220       ?_Get_data@?$_String_alloc@U?$_String_base_types@DV?$allocator@D@std@@@std@@@std@@QAEAAV?$_String_val@U?$_Simple_types@D@std@@@2@XZ 005bc220 f i GameSocket.obj
 0002:0005c270       ?_Get_data@?$_String_alloc@U?$_String_base_types@DV?$allocator@D@std@@@std@@@std@@QBEABV?$_String_val@U?$_Simple_types@D@std@@@2@XZ 005bc270 f i GameSocket.obj
 0002:0005c2c0       ?_Get_data@?$_Tree_comp_alloc@V?$_Tmap_traits@IPAU_PARTY_GROUP@@U?$less@I@std@@V?$allocator@U?$pair@$$CBIPAU_PARTY_GROUP@@@std@@@3@$0A@@std@@@std@@QAEAAV?$_Tree_val@U?$_Tree_simple_types@U?$pair@$$CBIPAU_PARTY_GROUP@@@std@@@std@@@2@XZ 005bc2c0 f i GameSocket.obj
 0002:0005c320       ?_Get_data@?$_Tree_comp_alloc@V?$_Tmap_traits@IPAU_PARTY_GROUP@@U?$less@I@std@@V?$allocator@U?$pair@$$CBIPAU_PARTY_GROUP@@@std@@@3@$0A@@std@@@std@@QBEABV?$_Tree_val@U?$_Tree_simple_types@U?$pair@$$CBIPAU_PARTY_GROUP@@@std@@@std@@@2@XZ 005bc320 f i GameSocket.obj
 0002:0005c380       ?_Get_data@?$_Tree_comp_alloc@V?$_Tmap_traits@IPAVCNpc@@U?$less@I@std@@V?$allocator@U?$pair@$$CBIPAVCNpc@@@std@@@3@$0A@@std@@@std@@QAEAAV?$_Tree_val@U?$_Tree_simple_types@U?$pair@$$CBIPAVCNpc@@@std@@@std@@@2@XZ 005bc380 f i GameSocket.obj
 0002:0005c3e0       ?_Get_data@?$_Tree_comp_alloc@V?$_Tmap_traits@IPAVCNpc@@U?$less@I@std@@V?$allocator@U?$pair@$$CBIPAVCNpc@@@std@@@3@$0A@@std@@@std@@QBEABV?$_Tree_val@U?$_Tree_simple_types@U?$pair@$$CBIPAVCNpc@@@std@@@std@@@2@XZ 005bc3e0 f i GameSocket.obj
 0002:0005c440       ?_Get_first@?$_Compressed_pair@U?$less@E@std@@V?$_Compressed_pair@V?$allocator@U?$_Tree_node@U?$pair@$$CBEF@std@@PAX@std@@@std@@V?$_Tree_val@U?$_Tree_simple_types@U?$pair@$$CBEF@std@@@std@@@2@$00@2@$00@std@@QAEAAU?$less@E@2@XZ 005bc440 f i GameSocket.obj
 0002:0005c480       ?_Get_first@?$_Compressed_pair@U?$less@E@std@@V?$_Compressed_pair@V?$allocator@U?$_Tree_node@U?$pair@$$CBEF@std@@PAX@std@@@std@@V?$_Tree_val@U?$_Tree_simple_types@U?$pair@$$CBEF@std@@@std@@@2@$00@2@$00@std@@QBEABU?$less@E@2@XZ 005bc480 f i GameSocket.obj
 0002:0005c4c0       ?_Get_first@?$_Compressed_pair@U?$less@E@std@@V?$_Compressed_pair@V?$allocator@U?$_Tree_node@U?$pair@$$CBEV?$map@EFU?$less@E@std@@V?$allocator@U?$pair@$$CBEF@std@@@2@@std@@@std@@PAX@std@@@std@@V?$_Tree_val@U?$_Tree_simple_types@U?$pair@$$CBEV?$map@EFU?$less@E@std@@V?$allocator@U?$pair@$$CBEF@std@@@2@@std@@@std@@@std@@@2@$00@2@$00@std@@QAEAAU?$less@E@2@XZ 005bc4c0 f i GameSocket.obj
 0002:0005c500       ?_Get_first@?$_Compressed_pair@U?$less@E@std@@V?$_Compressed_pair@V?$allocator@U?$_Tree_node@U?$pair@$$CBEV?$map@EFU?$less@E@std@@V?$allocator@U?$pair@$$CBEF@std@@@2@@std@@@std@@PAX@std@@@std@@V?$_Tree_val@U?$_Tree_simple_types@U?$pair@$$CBEV?$map@EFU?$less@E@std@@V?$allocator@U?$pair@$$CBEF@std@@@2@@std@@@std@@@std@@@2@$00@2@$00@std@@QBEABU?$less@E@2@XZ 005bc500 f i GameSocket.obj
 0002:0005c540       ?_Get_first@?$_Compressed_pair@U?$less@I@std@@V?$_Compressed_pair@V?$allocator@U?$_Tree_node@U?$pair@$$CBIPAU_PARTY_GROUP@@@std@@PAX@std@@@std@@V?$_Tree_val@U?$_Tree_simple_types@U?$pair@$$CBIPAU_PARTY_GROUP@@@std@@@std@@@2@$00@2@$00@std@@QAEAAU?$less@I@2@XZ 005bc540 f i GameSocket.obj
 0002:0005c580       ?_Get_first@?$_Compressed_pair@V?$allocator@D@std@@V?$_String_val@U?$_Simple_types@D@std@@@2@$00@std@@QAEAAV?$allocator@D@2@XZ 005bc580 f i GameSocket.obj
 0002:0005c5c0       ?_Get_first@?$_Compressed_pair@V?$allocator@D@std@@V?$_String_val@U?$_Simple_types@D@std@@@2@$00@std@@QBEABV?$allocator@D@2@XZ 005bc5c0 f i GameSocket.obj
 0002:0005c600       ?_Get_first@?$_Compressed_pair@V?$allocator@U?$_Tree_node@U?$pair@$$CBEF@std@@PAX@std@@@std@@V?$_Tree_val@U?$_Tree_simple_types@U?$pair@$$CBEF@std@@@std@@@2@$00@std@@QBEABV?$allocator@U?$_Tree_node@U?$pair@$$CBEF@std@@PAX@std@@@2@XZ 005bc600 f i GameSocket.obj
 0002:0005c640       ?_Get_first@?$_Compressed_pair@V?$allocator@U?$_Tree_node@U?$pair@$$CBEV?$map@EFU?$less@E@std@@V?$allocator@U?$pair@$$CBEF@std@@@2@@std@@@std@@PAX@std@@@std@@V?$_Tree_val@U?$_Tree_simple_types@U?$pair@$$CBEV?$map@EFU?$less@E@std@@V?$allocator@U?$pair@$$CBEF@std@@@2@@std@@@std@@@std@@@2@$00@std@@QBEABV?$allocator@U?$_Tree_node@U?$pair@$$CBEV?$map@EFU?$less@E@std@@V?$allocator@U?$pair@$$CBEF@std@@@2@@std@@@std@@PAX@std@@@2@XZ 005bc640 f i GameSocket.obj
 0002:0005c680       ?_Get_first@?$_Compressed_pair@V?$allocator@U?$_Tree_node@U?$pair@$$CBIPAU_PARTY_GROUP@@@std@@PAX@std@@@std@@V?$_Tree_val@U?$_Tree_simple_types@U?$pair@$$CBIPAU_PARTY_GROUP@@@std@@@std@@@2@$00@std@@QAEAAV?$allocator@U?$_Tree_node@U?$pair@$$CBIPAU_PARTY_GROUP@@@std@@PAX@std@@@2@XZ 005bc680 f i GameSocket.obj
 0002:0005c6c0       ?_Get_first@?$_Compressed_pair@V?$allocator@U?$_Tree_node@U?$pair@$$CBIPAU_PARTY_GROUP@@@std@@PAX@std@@@std@@V?$_Tree_val@U?$_Tree_simple_types@U?$pair@$$CBIPAU_PARTY_GROUP@@@std@@@std@@@2@$00@std@@QBEABV?$allocator@U?$_Tree_node@U?$pair@$$CBIPAU_PARTY_GROUP@@@std@@PAX@std@@@2@XZ 005bc6c0 f i GameSocket.obj
 0002:0005c700       ?_Get_second@?$_Compressed_pair@U?$less@I@std@@V?$_Compressed_pair@V?$allocator@U?$_Tree_node@U?$pair@$$CBIPAU_PARTY_GROUP@@@std@@PAX@std@@@std@@V?$_Tree_val@U?$_Tree_simple_types@U?$pair@$$CBIPAU_PARTY_GROUP@@@std@@@std@@@2@$00@2@$00@std@@QAEAAV?$_Compressed_pair@V?$allocator@U?$_Tree_node@U?$pair@$$CBIPAU_PARTY_GROUP@@@std@@PAX@std@@@std@@V?$_Tree_val@U?$_Tree_simple_types@U?$pair@$$CBIPAU_PARTY_GROUP@@@std@@@std@@@2@$00@2@XZ 005bc700 f i GameSocket.obj
 0002:0005c740       ?_Get_second@?$_Compressed_pair@U?$less@I@std@@V?$_Compressed_pair@V?$allocator@U?$_Tree_node@U?$pair@$$CBIPAU_PARTY_GROUP@@@std@@PAX@std@@@std@@V?$_Tree_val@U?$_Tree_simple_types@U?$pair@$$CBIPAU_PARTY_GROUP@@@std@@@std@@@2@$00@2@$00@std@@QBEABV?$_Compressed_pair@V?$allocator@U?$_Tree_node@U?$pair@$$CBIPAU_PARTY_GROUP@@@std@@PAX@std@@@std@@V?$_Tree_val@U?$_Tree_simple_types@U?$pair@$$CBIPAU_PARTY_GROUP@@@std@@@std@@@2@$00@2@XZ 005bc740 f i GameSocket.obj
 0002:0005c780       ?_Get_second@?$_Compressed_pair@U?$less@I@std@@V?$_Compressed_pair@V?$allocator@U?$_Tree_node@U?$pair@$$CBIPAVCNpc@@@std@@PAX@std@@@std@@V?$_Tree_val@U?$_Tree_simple_types@U?$pair@$$CBIPAVCNpc@@@std@@@std@@@2@$00@2@$00@std@@QAEAAV?$_Compressed_pair@V?$allocator@U?$_Tree_node@U?$pair@$$CBIPAVCNpc@@@std@@PAX@std@@@std@@V?$_Tree_val@U?$_Tree_simple_types@U?$pair@$$CBIPAVCNpc@@@std@@@std@@@2@$00@2@XZ 005bc780 f i GameSocket.obj
 0002:0005c7c0       ?_Get_second@?$_Compressed_pair@U?$less@I@std@@V?$_Compressed_pair@V?$allocator@U?$_Tree_node@U?$pair@$$CBIPAVCNpc@@@std@@PAX@std@@@std@@V?$_Tree_val@U?$_Tree_simple_types@U?$pair@$$CBIPAVCNpc@@@std@@@std@@@2@$00@2@$00@std@@QBEABV?$_Compressed_pair@V?$allocator@U?$_Tree_node@U?$pair@$$CBIPAVCNpc@@@std@@PAX@std@@@std@@V?$_Tree_val@U?$_Tree_simple_types@U?$pair@$$CBIPAVCNpc@@@std@@@std@@@2@$00@2@XZ 005bc7c0 f i GameSocket.obj
 0002:0005c800       ?_Get_second@?$_Compressed_pair@V?$allocator@D@std@@V?$_String_val@U?$_Simple_types@D@std@@@2@$00@std@@QAEAAV?$_String_val@U?$_Simple_types@D@std@@@2@XZ 005bc800 f i GameSocket.obj
 0002:0005c840       ?_Get_second@?$_Compressed_pair@V?$allocator@D@std@@V?$_String_val@U?$_Simple_types@D@std@@@2@$00@std@@QBEABV?$_String_val@U?$_Simple_types@D@std@@@2@XZ 005bc840 f i GameSocket.obj
 0002:0005c880       ?_Get_second@?$_Compressed_pair@V?$allocator@U?$_Tree_node@U?$pair@$$CBIPAU_PARTY_GROUP@@@std@@PAX@std@@@std@@V?$_Tree_val@U?$_Tree_simple_types@U?$pair@$$CBIPAU_PARTY_GROUP@@@std@@@std@@@2@$00@std@@QAEAAV?$_Tree_val@U?$_Tree_simple_types@U?$pair@$$CBIPAU_PARTY_GROUP@@@std@@@std@@@2@XZ 005bc880 f i GameSocket.obj
 0002:0005c8c0       ?_Get_second@?$_Compressed_pair@V?$allocator@U?$_Tree_node@U?$pair@$$CBIPAU_PARTY_GROUP@@@std@@PAX@std@@@std@@V?$_Tree_val@U?$_Tree_simple_types@U?$pair@$$CBIPAU_PARTY_GROUP@@@std@@@std@@@2@$00@std@@QBEABV?$_Tree_val@U?$_Tree_simple_types@U?$pair@$$CBIPAU_PARTY_GROUP@@@std@@@std@@@2@XZ 005bc8c0 f i GameSocket.obj
 0002:0005c900       ?_Get_second@?$_Compressed_pair@V?$allocator@U?$_Tree_node@U?$pair@$$CBIPAVCNpc@@@std@@PAX@std@@@std@@V?$_Tree_val@U?$_Tree_simple_types@U?$pair@$$CBIPAVCNpc@@@std@@@std@@@2@$00@std@@QAEAAV?$_Tree_val@U?$_Tree_simple_types@U?$pair@$$CBIPAVCNpc@@@std@@@std@@@2@XZ 005bc900 f i GameSocket.obj
 0002:0005c940       ?_Get_second@?$_Compressed_pair@V?$allocator@U?$_Tree_node@U?$pair@$$CBIPAVCNpc@@@std@@PAX@std@@@std@@V?$_Tree_val@U?$_Tree_simple_types@U?$pair@$$CBIPAVCNpc@@@std@@@std@@@2@$00@std@@QBEABV?$_Tree_val@U?$_Tree_simple_types@U?$pair@$$CBIPAVCNpc@@@std@@@std@@@2@XZ 005bc940 f i GameSocket.obj
 0002:0005c980       ?_Getal@?$_String_alloc@U?$_String_base_types@DV?$allocator@D@std@@@std@@@std@@QAEAAV?$allocator@D@2@XZ 005bc980 f i GameSocket.obj
 0002:0005c9d0       ?_Getal@?$_String_alloc@U?$_String_base_types@DV?$allocator@D@std@@@std@@@std@@QBEABV?$allocator@D@2@XZ 005bc9d0 f i GameSocket.obj
 0002:0005ca20       ?_Getal@?$_Tree_comp_alloc@V?$_Tmap_traits@EFU?$less@E@std@@V?$allocator@U?$pair@$$CBEF@std@@@2@$0A@@std@@@std@@QBEABV?$allocator@U?$_Tree_node@U?$pair@$$CBEF@std@@PAX@std@@@2@XZ 005bca20 f i GameSocket.obj
 0002:0005ca80       ?_Getal@?$_Tree_comp_alloc@V?$_Tmap_traits@EV?$map@EFU?$less@E@std@@V?$allocator@U?$pair@$$CBEF@std@@@2@@std@@U?$less@E@2@V?$allocator@U?$pair@$$CBEV?$map@EFU?$less@E@std@@V?$allocator@U?$pair@$$CBEF@std@@@2@@std@@@std@@@2@$0A@@std@@@std@@QBEABV?$allocator@U?$_Tree_node@U?$pair@$$CBEV?$map@EFU?$less@E@std@@V?$allocator@U?$pair@$$CBEF@std@@@2@@std@@@std@@PAX@std@@@2@XZ 005bca80 f i GameSocket.obj
 0002:0005cae0       ?_Getal@?$_Tree_comp_alloc@V?$_Tmap_traits@IPAU_PARTY_GROUP@@U?$less@I@std@@V?$allocator@U?$pair@$$CBIPAU_PARTY_GROUP@@@std@@@3@$0A@@std@@@std@@QAEAAV?$allocator@U?$_Tree_node@U?$pair@$$CBIPAU_PARTY_GROUP@@@std@@PAX@std@@@2@XZ 005bcae0 f i GameSocket.obj
 0002:0005cb40       ?_Getal@?$_Tree_comp_alloc@V?$_Tmap_traits@IPAU_PARTY_GROUP@@U?$less@I@std@@V?$allocator@U?$pair@$$CBIPAU_PARTY_GROUP@@@std@@@3@$0A@@std@@@std@@QBEABV?$allocator@U?$_Tree_node@U?$pair@$$CBIPAU_PARTY_GROUP@@@std@@PAX@std@@@2@XZ 005bcb40 f i GameSocket.obj
 0002:0005cba0       ?_Getcomp@?$_Tree_comp_alloc@V?$_Tmap_traits@EFU?$less@E@std@@V?$allocator@U?$pair@$$CBEF@std@@@2@$0A@@std@@@std@@QAEAAU?$less@E@2@XZ 005bcba0 f i GameSocket.obj
 0002:0005cbf0       ?_Getcomp@?$_Tree_comp_alloc@V?$_Tmap_traits@EFU?$less@E@std@@V?$allocator@U?$pair@$$CBEF@std@@@2@$0A@@std@@@std@@QBEABU?$less@E@2@XZ 005bcbf0 f i GameSocket.obj
 0002:0005cc40       ?_Getcomp@?$_Tree_comp_alloc@V?$_Tmap_traits@EV?$map@EFU?$less@E@std@@V?$allocator@U?$pair@$$CBEF@std@@@2@@std@@U?$less@E@2@V?$allocator@U?$pair@$$CBEV?$map@EFU?$less@E@std@@V?$allocator@U?$pair@$$CBEF@std@@@2@@std@@@std@@@2@$0A@@std@@@std@@QAEAAU?$less@E@2@XZ 005bcc40 f i GameSocket.obj
 0002:0005cc90       ?_Getcomp@?$_Tree_comp_alloc@V?$_Tmap_traits@EV?$map@EFU?$less@E@std@@V?$allocator@U?$pair@$$CBEF@std@@@2@@std@@U?$less@E@2@V?$allocator@U?$pair@$$CBEV?$map@EFU?$less@E@std@@V?$allocator@U?$pair@$$CBEF@std@@@2@@std@@@std@@@2@$0A@@std@@@std@@QBEABU?$less@E@2@XZ 005bcc90 f i GameSocket.obj
 0002:0005cce0       ?_Getcomp@?$_Tree_comp_alloc@V?$_Tmap_traits@IPAU_PARTY_GROUP@@U?$less@I@std@@V?$allocator@U?$pair@$$CBIPAU_PARTY_GROUP@@@std@@@3@$0A@@std@@@std@@QAEAAU?$less@I@2@XZ 005bcce0 f i GameSocket.obj
 0002:0005cd30       ?_Key@?$_Tree@V?$_Tmap_traits@EFU?$less@E@std@@V?$allocator@U?$pair@$$CBEF@std@@@2@$0A@@std@@@std@@IBEABEPAU?$_Tree_node@U?$pair@$$CBEF@std@@PAX@2@@Z 005bcd30 f i GameSocket.obj
 0002:0005cd90       ?_Key@?$_Tree@V?$_Tmap_traits@EV?$map@EFU?$less@E@std@@V?$allocator@U?$pair@$$CBEF@std@@@2@@std@@U?$less@E@2@V?$allocator@U?$pair@$$CBEV?$map@EFU?$less@E@std@@V?$allocator@U?$pair@$$CBEF@std@@@2@@std@@@std@@@2@$0A@@std@@@std@@IBEABEPAU?$_Tree_node@U?$pair@$$CBEV?$map@EFU?$less@E@std@@V?$allocator@U?$pair@$$CBEF@std@@@2@@std@@@std@@PAX@2@@Z 005bcd90 f i GameSocket.obj
 0002:0005cdf0       ?_Key@?$_Tree@V?$_Tmap_traits@IPAU_PARTY_GROUP@@U?$less@I@std@@V?$allocator@U?$pair@$$CBIPAU_PARTY_GROUP@@@std@@@3@$0A@@std@@@std@@IBEABIPAU?$_Tree_node@U?$pair@$$CBIPAU_PARTY_GROUP@@@std@@PAX@2@@Z 005bcdf0 f i GameSocket.obj
 0002:0005ce50       ?_Kfn@?$_Tree@V?$_Tmap_traits@EFU?$less@E@std@@V?$allocator@U?$pair@$$CBEF@std@@@2@$0A@@std@@@std@@IBEABEABU?$pair@$$CBEF@2@@Z 005bce50 f i GameSocket.obj
 0002:0005ceb0       ?_Kfn@?$_Tree@V?$_Tmap_traits@EV?$map@EFU?$less@E@std@@V?$allocator@U?$pair@$$CBEF@std@@@2@@std@@U?$less@E@2@V?$allocator@U?$pair@$$CBEV?$map@EFU?$less@E@std@@V?$allocator@U?$pair@$$CBEF@std@@@2@@std@@@std@@@2@$0A@@std@@@std@@IBEABEABU?$pair@$$CBEV?$map@EFU?$less@E@std@@V?$allocator@U?$pair@$$CBEF@std@@@2@@std@@@2@@Z 005bceb0 f i GameSocket.obj
 0002:0005cf10       ?_Kfn@?$_Tree@V?$_Tmap_traits@IPAU_PARTY_GROUP@@U?$less@I@std@@V?$allocator@U?$pair@$$CBIPAU_PARTY_GROUP@@@std@@@3@$0A@@std@@@std@@IBEABIABU?$pair@$$CBIPAU_PARTY_GROUP@@@2@@Z 005bcf10 f i GameSocket.obj
 0002:0005cf70       ?_Large_string_engaged@?$_String_val@U?$_Simple_types@D@std@@@std@@QBE_NXZ 005bcf70 f i GameSocket.obj
 0002:0005cfe0       ?_Lmost@?$_Tree@V?$_Tmap_traits@IPAU_PARTY_GROUP@@U?$less@I@std@@V?$allocator@U?$pair@$$CBIPAU_PARTY_GROUP@@@std@@@3@$0A@@std@@@std@@IBEAAPAU?$_Tree_node@U?$pair@$$CBIPAU_PARTY_GROUP@@@std@@PAX@2@XZ 005bcfe0 f i GameSocket.obj
 0002:0005d040       ?_Lmost@?$_Tree@V?$_Tmap_traits@IPAVCNpc@@U?$less@I@std@@V?$allocator@U?$pair@$$CBIPAVCNpc@@@std@@@3@$0A@@std@@@std@@IBEAAPAU?$_Tree_node@U?$pair@$$CBIPAVCNpc@@@std@@PAX@2@XZ 005bd040 f i GameSocket.obj
 0002:0005d0a0       ?_Lrotate@?$_Tree@V?$_Tmap_traits@IPAU_PARTY_GROUP@@U?$less@I@std@@V?$allocator@U?$pair@$$CBIPAU_PARTY_GROUP@@@std@@@3@$0A@@std@@@std@@IAEXPAU?$_Tree_node@U?$pair@$$CBIPAU_PARTY_GROUP@@@std@@PAX@2@@Z 005bd0a0 f i GameSocket.obj
 0002:0005d1a0       ?_Max@?$_Tree_val@U?$_Tree_simple_types@U?$pair@$$CBIPAU_PARTY_GROUP@@@std@@@std@@@std@@SAPAU?$_Tree_node@U?$pair@$$CBIPAU_PARTY_GROUP@@@std@@PAX@2@PAU32@@Z 005bd1a0 f i GameSocket.obj
 0002:0005d200       ?_Min@?$_Tree_val@U?$_Tree_simple_types@U?$pair@$$CBIPAVCNpc@@@std@@@std@@@std@@SAPAU?$_Tree_node@U?$pair@$$CBIPAVCNpc@@@std@@PAX@2@PAU32@@Z 005bd200 f i GameSocket.obj
 0002:0005d250       ?_Myhead@?$_Tree_comp_alloc@V?$_Tmap_traits@IPAU_PARTY_GROUP@@U?$less@I@std@@V?$allocator@U?$pair@$$CBIPAU_PARTY_GROUP@@@std@@@3@$0A@@std@@@std@@QAEAAPAU?$_Tree_node@U?$pair@$$CBIPAU_PARTY_GROUP@@@std@@PAX@2@XZ 005bd250 f i GameSocket.obj
 0002:0005d2b0       ?_Myhead@?$_Tree_comp_alloc@V?$_Tmap_traits@IPAU_PARTY_GROUP@@U?$less@I@std@@V?$allocator@U?$pair@$$CBIPAU_PARTY_GROUP@@@std@@@3@$0A@@std@@@std@@QBEABQAU?$_Tree_node@U?$pair@$$CBIPAU_PARTY_GROUP@@@std@@PAX@2@XZ 005bd2b0 f i GameSocket.obj
 0002:0005d310       ?_Myhead@?$_Tree_comp_alloc@V?$_Tmap_traits@IPAVCNpc@@U?$less@I@std@@V?$allocator@U?$pair@$$CBIPAVCNpc@@@std@@@3@$0A@@std@@@std@@QAEAAPAU?$_Tree_node@U?$pair@$$CBIPAVCNpc@@@std@@PAX@2@XZ 005bd310 f i GameSocket.obj
 0002:0005d370       ?_Myhead@?$_Tree_comp_alloc@V?$_Tmap_traits@IPAVCNpc@@U?$less@I@std@@V?$allocator@U?$pair@$$CBIPAVCNpc@@@std@@@3@$0A@@std@@@std@@QBEABQAU?$_Tree_node@U?$pair@$$CBIPAVCNpc@@@std@@PAX@2@XZ 005bd370 f i GameSocket.obj
 0002:0005d3d0       ?_Mynode@?$_Tree_unchecked_const_iterator@V?$_Tree_val@U?$_Tree_simple_types@U?$pair@$$CBIPAU_PARTY_GROUP@@@std@@@std@@@std@@U_Iterator_base12@2@@std@@QBEPAU?$_Tree_node@U?$pair@$$CBIPAU_PARTY_GROUP@@@std@@PAX@2@XZ 005bd3d0 f i GameSocket.obj
 0002:0005d410       ?_Myproxy@?$_String_alloc@U?$_String_base_types@DV?$allocator@D@std@@@std@@@std@@QAEAAPAU_Container_proxy@2@XZ 005bd410 f i GameSocket.obj
 0002:0005d460       ?_Myptr@?$_String_val@U?$_Simple_types@D@std@@@std@@QAEPADXZ 005bd460 f i GameSocket.obj
 0002:0005d4e0       ?_Myptr@?$_String_val@U?$_Simple_types@D@std@@@std@@QBEPBDXZ 005bd4e0 f i GameSocket.obj
 0002:0005d560       ?_Mysize@?$_Tree_comp_alloc@V?$_Tmap_traits@IPAU_PARTY_GROUP@@U?$less@I@std@@V?$allocator@U?$pair@$$CBIPAU_PARTY_GROUP@@@std@@@3@$0A@@std@@@std@@QAEAAIXZ 005bd560 f i GameSocket.obj
 0002:0005d5c0       ?_Orphan_all@?$_String_alloc@U?$_String_base_types@DV?$allocator@D@std@@@std@@@std@@QAEXXZ 005bd5c0 f i GameSocket.obj
 0002:0005d620       ?_Rmost@?$_Tree@V?$_Tmap_traits@IPAU_PARTY_GROUP@@U?$less@I@std@@V?$allocator@U?$pair@$$CBIPAU_PARTY_GROUP@@@std@@@3@$0A@@std@@@std@@IBEAAPAU?$_Tree_node@U?$pair@$$CBIPAU_PARTY_GROUP@@@std@@PAX@2@XZ 005bd620 f i GameSocket.obj
 0002:0005d680       ?_Root@?$_Tree@V?$_Tmap_traits@IPAU_PARTY_GROUP@@U?$less@I@std@@V?$allocator@U?$pair@$$CBIPAU_PARTY_GROUP@@@std@@@3@$0A@@std@@@std@@IBEAAPAU?$_Tree_node@U?$pair@$$CBIPAU_PARTY_GROUP@@@std@@PAX@2@XZ 005bd680 f i GameSocket.obj
 0002:0005d6e0       ?_Rrotate@?$_Tree@V?$_Tmap_traits@IPAU_PARTY_GROUP@@U?$less@I@std@@V?$allocator@U?$pair@$$CBIPAU_PARTY_GROUP@@@std@@@3@$0A@@std@@@std@@IAEXPAU?$_Tree_node@U?$pair@$$CBIPAU_PARTY_GROUP@@@std@@PAX@2@@Z 005bd6e0 f i GameSocket.obj
 0002:0005d7e0       ?_Tidy_deallocate@?$basic_string@DU?$char_traits@D@std@@V?$allocator@D@2@@std@@QAEXXZ 005bd7e0 f i GameSocket.obj
 0002:0005d8f0       ?_Tidy_init@?$basic_string@DU?$char_traits@D@std@@V?$allocator@D@2@@std@@QAEXXZ 005bd8f0 f i GameSocket.obj
 0002:0005d990       ?_Xlen@?$basic_string@DU?$char_traits@D@std@@V?$allocator@D@2@@std@@SAXXZ 005bd990 f i GameSocket.obj
 0002:0005d9e0       ?allocate@?$allocator@D@std@@QAEPADI@Z 005bd9e0 f i GameSocket.obj
 0002:0005da40       ?allocate@?$allocator@U?$_Tree_node@U?$pair@$$CBEF@std@@PAX@std@@@std@@QAEPAU?$_Tree_node@U?$pair@$$CBEF@std@@PAX@2@I@Z 005bda40 f i GameSocket.obj
 0002:0005daa0       ?allocate@?$allocator@U?$_Tree_node@U?$pair@$$CBIPAU_PARTY_GROUP@@@std@@PAX@std@@@std@@QAEPAU?$_Tree_node@U?$pair@$$CBIPAU_PARTY_GROUP@@@std@@PAX@2@I@Z 005bdaa0 f i GameSocket.obj
 0002:0005db00       ?assign@?$char_traits@D@std@@SAXAADABD@Z 005bdb00 f i GameSocket.obj
 0002:0005db40       ?begin@?$_Tree@V?$_Tmap_traits@IPAU_PARTY_GROUP@@U?$less@I@std@@V?$allocator@U?$pair@$$CBIPAU_PARTY_GROUP@@@std@@@3@$0A@@std@@@std@@QAE?AV?$_Tree_iterator@V?$_Tree_val@U?$_Tree_simple_types@U?$pair@$$CBIPAU_PARTY_GROUP@@@std@@@std@@@std@@@2@XZ 005bdb40 f i GameSocket.obj
 0002:0005dbf0       ?begin@?$_Tree@V?$_Tmap_traits@IPAVCNpc@@U?$less@I@std@@V?$allocator@U?$pair@$$CBIPAVCNpc@@@std@@@3@$0A@@std@@@std@@QAE?AV?$_Tree_iterator@V?$_Tree_val@U?$_Tree_simple_types@U?$pair@$$CBIPAVCNpc@@@std@@@std@@@std@@@2@XZ 005bdbf0 f i GameSocket.obj
 0002:0005dca0       ?c_str@?$basic_string@DU?$char_traits@D@std@@V?$allocator@D@2@@std@@QBEPBDXZ 005bdca0 f i GameSocket.obj
 0002:0005dd30       ?clear@?$basic_string@DU?$char_traits@D@std@@V?$allocator@D@2@@std@@QAEXXZ 005bdd30 f i GameSocket.obj
 0002:0005ddc0       ?copy@?$char_traits@D@std@@SAPADQADQBDI@Z 005bddc0 f i GameSocket.obj
 0002:0005de20       ?deallocate@?$allocator@D@std@@QAEXQADI@Z 005bde20 f i GameSocket.obj
 0002:0005de80       ?deallocate@?$allocator@U?$_Tree_node@U?$pair@$$CBIPAU_PARTY_GROUP@@@std@@PAX@std@@@std@@QAEXQAU?$_Tree_node@U?$pair@$$CBIPAU_PARTY_GROUP@@@std@@PAX@2@I@Z 005bde80 f i GameSocket.obj
 0002:0005dee0       ?empty@?$basic_string@DU?$char_traits@D@std@@V?$allocator@D@2@@std@@QBE_NXZ 005bdee0 f i GameSocket.obj
 0002:0005df60       ?end@?$_Tree@V?$_Tmap_traits@IPAVCNpc@@U?$less@I@std@@V?$allocator@U?$pair@$$CBIPAVCNpc@@@std@@@3@$0A@@std@@@std@@QAE?AV?$_Tree_iterator@V?$_Tree_val@U?$_Tree_simple_types@U?$pair@$$CBIPAVCNpc@@@std@@@std@@@std@@@2@XZ 005bdf60 f i GameSocket.obj
 0002:0005e010       ?isGate@CNpc@@QAE_NXZ      005be010 f i GameSocket.obj
 0002:0005e110       ?length@?$basic_string@DU?$char_traits@D@std@@V?$allocator@D@2@@std@@QBEIXZ 005be110 f i GameSocket.obj
 0002:0005e170       ?lower_bound@?$_Tree@V?$_Tmap_traits@EV?$map@EFU?$less@E@std@@V?$allocator@U?$pair@$$CBEF@std@@@2@@std@@U?$less@E@2@V?$allocator@U?$pair@$$CBEV?$map@EFU?$less@E@std@@V?$allocator@U?$pair@$$CBEF@std@@@2@@std@@@std@@@2@$0A@@std@@@std@@QAE?AV?$_Tree_iterator@V?$_Tree_val@U?$_Tree_simple_types@U?$pair@$$CBEV?$map@EFU?$less@E@std@@V?$allocator@U?$pair@$$CBEF@std@@@2@@std@@@std@@@std@@@std@@@2@ABE@Z 005be170 f i GameSocket.obj
 0002:0005e210       ?max_size@?$_Default_allocator_traits@V?$allocator@D@std@@@std@@SAIABV?$allocator@D@2@@Z 005be210 f i GameSocket.obj
 0002:0005e250       ?max_size@?$_Default_allocator_traits@V?$allocator@U?$_Tree_node@U?$pair@$$CBEF@std@@PAX@std@@@std@@@std@@SAIABV?$allocator@U?$_Tree_node@U?$pair@$$CBEF@std@@PAX@std@@@2@@Z 005be250 f i GameSocket.obj
 0002:0005e290       ?max_size@?$_Default_allocator_traits@V?$allocator@U?$_Tree_node@U?$pair@$$CBEV?$map@EFU?$less@E@std@@V?$allocator@U?$pair@$$CBEF@std@@@2@@std@@@std@@PAX@std@@@std@@@std@@SAIABV?$allocator@U?$_Tree_node@U?$pair@$$CBEV?$map@EFU?$less@E@std@@V?$allocator@U?$pair@$$CBEF@std@@@2@@std@@@std@@PAX@std@@@2@@Z 005be290 f i GameSocket.obj
 0002:0005e2d0       ?max_size@?$_Default_allocator_traits@V?$allocator@U?$_Tree_node@U?$pair@$$CBIPAU_PARTY_GROUP@@@std@@PAX@std@@@std@@@std@@SAIABV?$allocator@U?$_Tree_node@U?$pair@$$CBIPAU_PARTY_GROUP@@@std@@PAX@std@@@2@@Z 005be2d0 f i GameSocket.obj
 0002:0005e310       ?max_size@?$_Tree@V?$_Tmap_traits@EFU?$less@E@std@@V?$allocator@U?$pair@$$CBEF@std@@@2@$0A@@std@@@std@@QBEIXZ 005be310 f i GameSocket.obj
 0002:0005e370       ?max_size@?$_Tree@V?$_Tmap_traits@EV?$map@EFU?$less@E@std@@V?$allocator@U?$pair@$$CBEF@std@@@2@@std@@U?$less@E@2@V?$allocator@U?$pair@$$CBEV?$map@EFU?$less@E@std@@V?$allocator@U?$pair@$$CBEF@std@@@2@@std@@@std@@@2@$0A@@std@@@std@@QBEIXZ 005be370 f i GameSocket.obj
 0002:0005e3d0       ?max_size@?$_Tree@V?$_Tmap_traits@IPAU_PARTY_GROUP@@U?$less@I@std@@V?$allocator@U?$pair@$$CBIPAU_PARTY_GROUP@@@std@@@3@$0A@@std@@@std@@QBEIXZ 005be3d0 f i GameSocket.obj
 0002:0005e430       ?max_size@?$basic_string@DU?$char_traits@D@std@@V?$allocator@D@2@@std@@QBEIXZ 005be430 f i GameSocket.obj
 0002:0005e540       ?pointer_to@?$pointer_traits@PAU?$pair@$$CBIPAVCNpc@@@std@@@std@@SAPAU?$pair@$$CBIPAVCNpc@@@2@AAU32@@Z 005be540 f i GameSocket.obj
 0002:0005e590       ?push_back@?$basic_string@DU?$char_traits@D@std@@V?$allocator@D@2@@std@@QAEXD@Z 005be590 f i GameSocket.obj
 0002:0005e690       ?select_on_container_copy_construction@?$_Default_allocator_traits@V?$allocator@D@std@@@std@@SA?AV?$allocator@D@2@ABV32@@Z 005be690 f i GameSocket.obj
 0002:0005e6d0       ?size@?$basic_string@DU?$char_traits@D@std@@V?$allocator@D@2@@std@@QBEIXZ 005be6d0 f i GameSocket.obj
 0002:0005e730       ??_GCServerDlg@@QAEPAXI@Z  005be730 f i main.obj
 0002:0005e7b0       ?_ConsoleHandler@@YGHK@Z   005be7b0 f   main.obj
 0002:0005e840       _main                      005be840 f   main.obj
 0002:0005ea40       ??$?0$$V@?$_Compressed_pair@V?$allocator@U?$_Tree_node@U?$pair@$$CBIPAH@std@@PAX@std@@@std@@V?$_Tree_val@U?$_Tree_simple_types@U?$pair@$$CBIPAH@std@@@std@@@2@$00@std@@QAE@U_Zero_then_variadic_args_t@1@@Z 005bea40 f i MAP.obj
 0002:0005eaa0       ??$?0$$V@?$_Compressed_pair@V?$allocator@U?$_Tree_node@U?$pair@$$CBIPAVCRoomEvent@@@std@@PAX@std@@@std@@V?$_Tree_val@U?$_Tree_simple_types@U?$pair@$$CBIPAVCRoomEvent@@@std@@@std@@@2@$00@std@@QAE@U_Zero_then_variadic_args_t@1@@Z 005beaa0 f i MAP.obj
 0002:0005eb00       ??$?0AAIAAPAHX$0A@@?$pair@IPAH@std@@QAE@AAIAAPAH@Z 005beb00 f i MAP.obj
 0002:0005eb80       ??$?0AAIAAPAVCRoomEvent@@X$0A@@?$pair@IPAVCRoomEvent@@@std@@QAE@AAIAAPAVCRoomEvent@@@Z 005beb80 f i MAP.obj
 0002:0005ec00       ??$?0AAV?$_Tree_iterator@V?$_Tree_val@U?$_Tree_simple_types@U?$pair@$$CBIPAH@std@@@std@@@std@@@std@@_NX$0A@@?$pair@V?$_Tree_iterator@V?$_Tree_val@U?$_Tree_simple_types@U?$pair@$$CBIPAH@std@@@std@@@std@@@std@@_N@std@@QAE@AAV?$_Tree_iterator@V?$_Tree_val@U?$_Tree_simple_types@U?$pair@$$CBIPAH@std@@@std@@@std@@@1@$$QA_N@Z 005bec00 f i MAP.obj
 0002:0005ec80       ??$?0AAV?$_Tree_iterator@V?$_Tree_val@U?$_Tree_simple_types@U?$pair@$$CBIPAVCRoomEvent@@@std@@@std@@@std@@@std@@_NX$0A@@?$pair@V?$_Tree_iterator@V?$_Tree_val@U?$_Tree_simple_types@U?$pair@$$CBIPAVCRoomEvent@@@std@@@std@@@std@@@std@@_N@std@@QAE@AAV?$_Tree_iterator@V?$_Tree_val@U?$_Tree_simple_types@U?$pair@$$CBIPAVCRoomEvent@@@std@@@std@@@std@@@1@$$QA_N@Z 005bec80 f i MAP.obj
 0002:0005ed00       ??$?0ABU?$less@I@std@@U_Zero_then_variadic_args_t@1@@?$_Compressed_pair@U?$less@I@std@@V?$_Compressed_pair@V?$allocator@U?$_Tree_node@U?$pair@$$CBIPAH@std@@PAX@std@@@std@@V?$_Tree_val@U?$_Tree_simple_types@U?$pair@$$CBIPAH@std@@@std@@@2@$00@2@$00@std@@QAE@U_One_then_variadic_args_t@1@ABU?$less@I@1@$$QAU_Zero_then_variadic_args_t@1@@Z 005bed00 f i MAP.obj
 0002:0005ed80       ??$?0ABU?$less@I@std@@U_Zero_then_variadic_args_t@1@@?$_Compressed_pair@U?$less@I@std@@V?$_Compressed_pair@V?$allocator@U?$_Tree_node@U?$pair@$$CBIPAVCRoomEvent@@@std@@PAX@std@@@std@@V?$_Tree_val@U?$_Tree_simple_types@U?$pair@$$CBIPAVCRoomEvent@@@std@@@std@@@2@$00@2@$00@std@@QAE@U_One_then_variadic_args_t@1@ABU?$less@I@1@$$QAU_Zero_then_variadic_args_t@1@@Z 005bed80 f i MAP.obj
 0002:0005ee00       ??$?0IPAHX$0A@@?$pair@$$CBIPAH@std@@QAE@$$QAU?$pair@IPAH@1@@Z 005bee00 f i MAP.obj
 0002:0005ee80       ??$?0IPAVCRoomEvent@@X$0A@@?$pair@$$CBIPAVCRoomEvent@@@std@@QAE@$$QAU?$pair@IPAVCRoomEvent@@@1@@Z 005bee80 f i MAP.obj
 0002:0005ef00       ??$?0U?$_Tree_node@U?$pair@$$CBIPAH@std@@PAX@std@@@?$allocator@U_Container_proxy@std@@@std@@QAE@ABV?$allocator@U?$_Tree_node@U?$pair@$$CBIPAH@std@@PAX@std@@@1@@Z 005bef00 f i MAP.obj
 0002:0005ef40       ??$?0U?$_Tree_node@U?$pair@$$CBIPAVCRoomEvent@@@std@@PAX@std@@@?$allocator@U_Container_proxy@std@@@std@@QAE@ABV?$allocator@U?$_Tree_node@U?$pair@$$CBIPAVCRoomEvent@@@std@@PAX@std@@@1@@Z 005bef40 f i MAP.obj
 0002:0005ef80       ??$?0V?$_Tree_iterator@V?$_Tree_val@U?$_Tree_simple_types@U?$pair@$$CBIPAH@std@@@std@@@std@@@std@@_NX$0A@@?$pair@V?$_Tree_iterator@V?$_Tree_val@U?$_Tree_simple_types@U?$pair@$$CBIPAH@std@@@std@@@std@@@std@@_N@std@@QAE@$$QAV?$_Tree_iterator@V?$_Tree_val@U?$_Tree_simple_types@U?$pair@$$CBIPAH@std@@@std@@@std@@@1@$$QA_N@Z 005bef80 f i MAP.obj
 0002:0005f000       ??$?0V?$_Tree_iterator@V?$_Tree_val@U?$_Tree_simple_types@U?$pair@$$CBIPAVCRoomEvent@@@std@@@std@@@std@@@std@@_NX$0A@@?$pair@V?$_Tree_iterator@V?$_Tree_val@U?$_Tree_simple_types@U?$pair@$$CBIPAVCRoomEvent@@@std@@@std@@@std@@@std@@_N@std@@QAE@$$QAV?$_Tree_iterator@V?$_Tree_val@U?$_Tree_simple_types@U?$pair@$$CBIPAVCRoomEvent@@@std@@@std@@@std@@@1@$$QA_N@Z 005bf000 f i MAP.obj
 0002:0005f080       ??$_Buynode@U?$pair@IPAH@std@@@?$_Tree_comp_alloc@V?$_Tmap_traits@IPAHU?$less@I@std@@V?$allocator@U?$pair@$$CBIPAH@std@@@2@$0A@@std@@@std@@QAEPAU?$_Tree_node@U?$pair@$$CBIPAH@std@@PAX@1@$$QAU?$pair@IPAH@1@@Z 005bf080 f i MAP.obj
 0002:0005f1a0       ??$_Buynode@U?$pair@IPAVCRoomEvent@@@std@@@?$_Tree_comp_alloc@V?$_Tmap_traits@IPAVCRoomEvent@@U?$less@I@std@@V?$allocator@U?$pair@$$CBIPAVCRoomEvent@@@std@@@3@$0A@@std@@@std@@QAEPAU?$_Tree_node@U?$pair@$$CBIPAVCRoomEvent@@@std@@PAX@1@$$QAU?$pair@IPAVCRoomEvent@@@1@@Z 005bf1a0 f i MAP.obj
 0002:0005f2c0       ??$_Buynode_if_nil@AAU?$pair@$$CBIPAH@std@@@?$_Tree@V?$_Tmap_traits@IPAHU?$less@I@std@@V?$allocator@U?$pair@$$CBIPAH@std@@@2@$0A@@std@@@std@@IAEPAU?$_Tree_node@U?$pair@$$CBIPAH@std@@PAX@1@PAU21@AAU?$pair@$$CBIPAH@1@@Z 005bf2c0 f i MAP.obj
 0002:0005f300       ??$_Buynode_if_nil@AAU?$pair@$$CBIPAVCRoomEvent@@@std@@@?$_Tree@V?$_Tmap_traits@IPAVCRoomEvent@@U?$less@I@std@@V?$allocator@U?$pair@$$CBIPAVCRoomEvent@@@std@@@3@$0A@@std@@@std@@IAEPAU?$_Tree_node@U?$pair@$$CBIPAVCRoomEvent@@@std@@PAX@1@PAU21@AAU?$pair@$$CBIPAVCRoomEvent@@@1@@Z 005bf300 f i MAP.obj
 0002:0005f340       ??$_Convert_size@I@std@@YAII@Z 005bf340 f i MAP.obj
 0002:0005f380       ??$_Debug_range2@PBD@std@@YAXPBD0PB_WIUrandom_access_iterator_tag@0@@Z 005bf380 f i MAP.obj
 0002:0005f410       ??$_Debug_range@PBD@std@@YAXPBD0PB_WI@Z 005bf410 f i MAP.obj
 0002:0005f480       ??$_Fgetc@D@std@@YA_NAADPAU_iobuf@@@Z 005bf480 f i MAP.obj
 0002:0005f4f0       ??$_Fputc@D@std@@YA_NDPAU_iobuf@@@Z 005bf4f0 f i MAP.obj
 0002:0005f570       ??$_Immortalize@V_Iostream_error_category@std@@@std@@YAAAV_Iostream_error_category@0@XZ 005bf570 f i MAP.obj
 0002:0005f640       ??$_Immortalize_impl@V_Iostream_error_category@std@@@std@@YGHPAX0PAPAX@Z 005bf640 f i MAP.obj
 0002:0005f6b0       ??$_Insert_at@AAU?$pair@$$CBIPAH@std@@PAU?$_Tree_node@U?$pair@$$CBIPAH@std@@PAX@2@@?$_Tree@V?$_Tmap_traits@IPAHU?$less@I@std@@V?$allocator@U?$pair@$$CBIPAH@std@@@2@$0A@@std@@@std@@IAE?AV?$_Tree_iterator@V?$_Tree_val@U?$_Tree_simple_types@U?$pair@$$CBIPAH@std@@@std@@@std@@@1@_NPAU?$_Tree_node@U?$pair@$$CBIPAH@std@@PAX@1@AAU?$pair@$$CBIPAH@1@1@Z 005bf6b0 f i MAP.obj
 0002:0005fa50       ??$_Insert_at@AAU?$pair@$$CBIPAVCRoomEvent@@@std@@PAU?$_Tree_node@U?$pair@$$CBIPAVCRoomEvent@@@std@@PAX@2@@?$_Tree@V?$_Tmap_traits@IPAVCRoomEvent@@U?$less@I@std@@V?$allocator@U?$pair@$$CBIPAVCRoomEvent@@@std@@@3@$0A@@std@@@std@@IAE?AV?$_Tree_iterator@V?$_Tree_val@U?$_Tree_simple_types@U?$pair@$$CBIPAVCRoomEvent@@@std@@@std@@@std@@@1@_NPAU?$_Tree_node@U?$pair@$$CBIPAVCRoomEvent@@@std@@PAX@1@AAU?$pair@$$CBIPAVCRoomEvent@@@1@1@Z 005bfa50 f i MAP.obj
 0002:0005fdf0       ??$_Insert_nohint@AAU?$pair@$$CBIPAH@std@@PAU?$_Tree_node@U?$pair@$$CBIPAH@std@@PAX@2@@?$_Tree@V?$_Tmap_traits@IPAHU?$less@I@std@@V?$allocator@U?$pair@$$CBIPAH@std@@@2@$0A@@std@@@std@@IAE?AU?$pair@V?$_Tree_iterator@V?$_Tree_val@U?$_Tree_simple_types@U?$pair@$$CBIPAH@std@@@std@@@std@@@std@@_N@1@_NAAU?$pair@$$CBIPAH@1@PAU?$_Tree_node@U?$pair@$$CBIPAH@std@@PAX@1@@Z 005bfdf0 f i MAP.obj
 0002:00060420       ??$_Insert_nohint@AAU?$pair@$$CBIPAVCRoomEvent@@@std@@PAU?$_Tree_node@U?$pair@$$CBIPAVCRoomEvent@@@std@@PAX@2@@?$_Tree@V?$_Tmap_traits@IPAVCRoomEvent@@U?$less@I@std@@V?$allocator@U?$pair@$$CBIPAVCRoomEvent@@@std@@@3@$0A@@std@@@std@@IAE?AU?$pair@V?$_Tree_iterator@V?$_Tree_val@U?$_Tree_simple_types@U?$pair@$$CBIPAVCRoomEvent@@@std@@@std@@@std@@@std@@_N@1@_NAAU?$pair@$$CBIPAVCRoomEvent@@@1@PAU?$_Tree_node@U?$pair@$$CBIPAVCRoomEvent@@@std@@PAX@1@@Z 005c0420 f i MAP.obj
 0002:00060a50       ??$_Kfn@$$CBIPAH@?$_Tmap_traits@IPAHU?$less@I@std@@V?$allocator@U?$pair@$$CBIPAH@std@@@2@$0A@@std@@SAABIABU?$pair@$$CBIPAH@1@@Z 005c0a50 f i MAP.obj
 0002:00060a90       ??$_Kfn@$$CBIPAVCRoomEvent@@@?$_Tmap_traits@IPAVCRoomEvent@@U?$less@I@std@@V?$allocator@U?$pair@$$CBIPAVCRoomEvent@@@std@@@3@$0A@@std@@SAABIABU?$pair@$$CBIPAVCRoomEvent@@@1@@Z 005c0a90 f i MAP.obj
 0002:00060ad0       ??$_Lbound@I@?$_Tree@V?$_Tmap_traits@IPAHU?$less@I@std@@V?$allocator@U?$pair@$$CBIPAH@std@@@2@$0A@@std@@@std@@IBEPAU?$_Tree_node@U?$pair@$$CBIPAH@std@@PAX@1@ABI@Z 005c0ad0 f i MAP.obj
 0002:00060ba0       ??$_Lbound@I@?$_Tree@V?$_Tmap_traits@IPAVCRoomEvent@@U?$less@I@std@@V?$allocator@U?$pair@$$CBIPAVCRoomEvent@@@std@@@3@$0A@@std@@@std@@IBEPAU?$_Tree_node@U?$pair@$$CBIPAVCRoomEvent@@@std@@PAX@1@ABI@Z 005c0ba0 f i MAP.obj
 0002:00061370       ??$_Refancy@PAD$0A@@std@@YAPADPAD@Z 005c1370 f i MAP.obj
 0002:000613b0       ??$_Unfancy@$$CBD@std@@YAPBDPBD@Z 005c13b0 f i MAP.obj
 0002:000613f0       ??$_Ungetc@D@std@@YA_NABDPAU_iobuf@@@Z 005c13f0 f i MAP.obj
 0002:00061470       ??$addressof@PAU?$_Tree_node@U?$pair@$$CBIPAH@std@@PAX@std@@@std@@YAPAPAU?$_Tree_node@U?$pair@$$CBIPAH@std@@PAX@0@AAPAU10@@Z 005c1470 f i MAP.obj
 0002:000614b0       ??$addressof@PAU?$_Tree_node@U?$pair@$$CBIPAVCRoomEvent@@@std@@PAX@std@@@std@@YAPAPAU?$_Tree_node@U?$pair@$$CBIPAVCRoomEvent@@@std@@PAX@0@AAPAU10@@Z 005c14b0 f i MAP.obj
 0002:000614f0       ??$addressof@U?$pair@$$CBIPAH@std@@@std@@YAPAU?$pair@$$CBIPAH@0@AAU10@@Z 005c14f0 f i MAP.obj
 0002:00061530       ??$addressof@U?$pair@$$CBIPAU_OBJECT_EVENT@@@std@@@std@@YAPAU?$pair@$$CBIPAU_OBJECT_EVENT@@@0@AAU10@@Z 005c1530 f i MAP.obj
 0002:00061570       ??$addressof@U?$pair@$$CBIPAVCRoomEvent@@@std@@@std@@YAPAU?$pair@$$CBIPAVCRoomEvent@@@0@AAU10@@Z 005c1570 f i MAP.obj
 0002:000615b0       ??$addressof@V?$_Tree_val@U?$_Tree_simple_types@U?$pair@$$CBIPAH@std@@@std@@@std@@@std@@YAPAV?$_Tree_val@U?$_Tree_simple_types@U?$pair@$$CBIPAH@std@@@std@@@0@AAV10@@Z 005c15b0 f i MAP.obj
 0002:000615f0       ??$addressof@V?$_Tree_val@U?$_Tree_simple_types@U?$pair@$$CBIPAU_OBJECT_EVENT@@@std@@@std@@@std@@@std@@YAPAV?$_Tree_val@U?$_Tree_simple_types@U?$pair@$$CBIPAU_OBJECT_EVENT@@@std@@@std@@@0@AAV10@@Z 005c15f0 f i MAP.obj
 0002:00061630       ??$addressof@V?$_Tree_val@U?$_Tree_simple_types@U?$pair@$$CBIPAVCRoomEvent@@@std@@@std@@@std@@@std@@YAPAV?$_Tree_val@U?$_Tree_simple_types@U?$pair@$$CBIPAVCRoomEvent@@@std@@@std@@@0@AAV10@@Z 005c1630 f i MAP.obj
 0002:00061670       ??$construct@PAU?$_Tree_node@U?$pair@$$CBIPAH@std@@PAX@std@@AAPAU12@@?$_Default_allocator_traits@V?$allocator@U?$_Tree_node@U?$pair@$$CBIPAH@std@@PAX@std@@@std@@@std@@SAXAAV?$allocator@U?$_Tree_node@U?$pair@$$CBIPAH@std@@PAX@std@@@1@QAPAU?$_Tree_node@U?$pair@$$CBIPAH@std@@PAX@1@AAPAU31@@Z 005c1670 f i MAP.obj
 0002:000616f0       ??$construct@PAU?$_Tree_node@U?$pair@$$CBIPAVCRoomEvent@@@std@@PAX@std@@AAPAU12@@?$_Default_allocator_traits@V?$allocator@U?$_Tree_node@U?$pair@$$CBIPAVCRoomEvent@@@std@@PAX@std@@@std@@@std@@SAXAAV?$allocator@U?$_Tree_node@U?$pair@$$CBIPAVCRoomEvent@@@std@@PAX@std@@@1@QAPAU?$_Tree_node@U?$pair@$$CBIPAVCRoomEvent@@@std@@PAX@1@AAPAU31@@Z 005c16f0 f i MAP.obj
 0002:00061770       ??$construct@U?$pair@$$CBIPAH@std@@U?$pair@IPAH@2@@?$_Default_allocator_traits@V?$allocator@U?$_Tree_node@U?$pair@$$CBIPAH@std@@PAX@std@@@std@@@std@@SAXAAV?$allocator@U?$_Tree_node@U?$pair@$$CBIPAH@std@@PAX@std@@@1@QAU?$pair@$$CBIPAH@1@$$QAU?$pair@IPAH@1@@Z 005c1770 f i MAP.obj
 0002:000617f0       ??$construct@U?$pair@$$CBIPAVCRoomEvent@@@std@@U?$pair@IPAVCRoomEvent@@@2@@?$_Default_allocator_traits@V?$allocator@U?$_Tree_node@U?$pair@$$CBIPAVCRoomEvent@@@std@@PAX@std@@@std@@@std@@SAXAAV?$allocator@U?$_Tree_node@U?$pair@$$CBIPAVCRoomEvent@@@std@@PAX@std@@@1@QAU?$pair@$$CBIPAVCRoomEvent@@@1@$$QAU?$pair@IPAVCRoomEvent@@@1@@Z 005c17f0 f i MAP.obj
 0002:00061870       ??$destroy@PAU?$_Tree_node@U?$pair@$$CBIPAH@std@@PAX@std@@@?$_Default_allocator_traits@V?$allocator@U?$_Tree_node@U?$pair@$$CBIPAH@std@@PAX@std@@@std@@@std@@SAXAAV?$allocator@U?$_Tree_node@U?$pair@$$CBIPAH@std@@PAX@std@@@1@QAPAU?$_Tree_node@U?$pair@$$CBIPAH@std@@PAX@1@@Z 005c1870 f i MAP.obj
 0002:000618a0       ??$destroy@PAU?$_Tree_node@U?$pair@$$CBIPAVCRoomEvent@@@std@@PAX@std@@@?$_Default_allocator_traits@V?$allocator@U?$_Tree_node@U?$pair@$$CBIPAVCRoomEvent@@@std@@PAX@std@@@std@@@std@@SAXAAV?$allocator@U?$_Tree_node@U?$pair@$$CBIPAVCRoomEvent@@@std@@PAX@std@@@1@QAPAU?$_Tree_node@U?$pair@$$CBIPAVCRoomEvent@@@std@@PAX@1@@Z 005c18a0 f i MAP.obj
 0002:000618d0       ??$destroy@U?$pair@$$CBIPAH@std@@@?$_Default_allocator_traits@V?$allocator@U?$_Tree_node@U?$pair@$$CBIPAH@std@@PAX@std@@@std@@@std@@SAXAAV?$allocator@U?$_Tree_node@U?$pair@$$CBIPAH@std@@PAX@std@@@1@QAU?$pair@$$CBIPAH@1@@Z 005c18d0 f i MAP.obj
 0002:00061900       ??$destroy@U?$pair@$$CBIPAVCRoomEvent@@@std@@@?$_Default_allocator_traits@V?$allocator@U?$_Tree_node@U?$pair@$$CBIPAVCRoomEvent@@@std@@PAX@std@@@std@@@std@@SAXAAV?$allocator@U?$_Tree_node@U?$pair@$$CBIPAVCRoomEvent@@@std@@PAX@std@@@1@QAU?$pair@$$CBIPAVCRoomEvent@@@1@@Z 005c1900 f i MAP.obj
 0002:00061930       ??$emplace@U?$pair@IPAH@std@@@?$_Tree@V?$_Tmap_traits@IPAHU?$less@I@std@@V?$allocator@U?$pair@$$CBIPAH@std@@@2@$0A@@std@@@std@@QAE?AU?$pair@V?$_Tree_iterator@V?$_Tree_val@U?$_Tree_simple_types@U?$pair@$$CBIPAH@std@@@std@@@std@@@std@@_N@1@$$QAU?$pair@IPAH@1@@Z 005c1930 f i MAP.obj
 0002:000619e0       ??$emplace@U?$pair@IPAVCRoomEvent@@@std@@@?$_Tree@V?$_Tmap_traits@IPAVCRoomEvent@@U?$less@I@std@@V?$allocator@U?$pair@$$CBIPAVCRoomEvent@@@std@@@3@$0A@@std@@@std@@QAE?AU?$pair@V?$_Tree_iterator@V?$_Tree_val@U?$_Tree_simple_types@U?$pair@$$CBIPAVCRoomEvent@@@std@@@std@@@std@@@std@@_N@1@$$QAU?$pair@IPAVCRoomEvent@@@1@@Z 005c19e0 f i MAP.obj
 0002:00061a90       ??$erase@V?$_Tree_iterator@V?$_Tree_val@U?$_Tree_simple_types@U?$pair@$$CBIPAH@std@@@std@@@std@@@std@@X@?$_Tree@V?$_Tmap_traits@IPAHU?$less@I@std@@V?$allocator@U?$pair@$$CBIPAH@std@@@2@$0A@@std@@@std@@QAE?AV?$_Tree_iterator@V?$_Tree_val@U?$_Tree_simple_types@U?$pair@$$CBIPAH@std@@@std@@@std@@@1@V21@@Z 005c1a90 f i MAP.obj
 0002:00061b80       ??$forward@AAPAH@std@@YAAAPAHAAPAH@Z 005c1b80 f i MAP.obj
 0002:00061bc0       ??$forward@AAPAU?$_Tree_node@U?$pair@$$CBIPAH@std@@PAX@std@@@std@@YAAAPAU?$_Tree_node@U?$pair@$$CBIPAH@std@@PAX@0@AAPAU10@@Z 005c1bc0 f i MAP.obj
 0002:00061c00       ??$forward@AAPAU?$_Tree_node@U?$pair@$$CBIPAVCRoomEvent@@@std@@PAX@std@@@std@@YAAAPAU?$_Tree_node@U?$pair@$$CBIPAVCRoomEvent@@@std@@PAX@0@AAPAU10@@Z 005c1c00 f i MAP.obj
 0002:00061c40       ??$forward@AAPAVCRoomEvent@@@std@@YAAAPAVCRoomEvent@@AAPAV1@@Z 005c1c40 f i MAP.obj
 0002:00061c80       ??$forward@AAU?$pair@$$CBIPAH@std@@@std@@YAAAU?$pair@$$CBIPAH@0@AAU10@@Z 005c1c80 f i MAP.obj
 0002:00061cc0       ??$forward@AAU?$pair@$$CBIPAVCRoomEvent@@@std@@@std@@YAAAU?$pair@$$CBIPAVCRoomEvent@@@0@AAU10@@Z 005c1cc0 f i MAP.obj
 0002:00061d00       ??$forward@AAV?$_Tree_iterator@V?$_Tree_val@U?$_Tree_simple_types@U?$pair@$$CBIPAH@std@@@std@@@std@@@std@@@std@@YAAAV?$_Tree_iterator@V?$_Tree_val@U?$_Tree_simple_types@U?$pair@$$CBIPAH@std@@@std@@@std@@@0@AAV10@@Z 005c1d00 f i MAP.obj
 0002:00061d40       ??$forward@AAV?$_Tree_iterator@V?$_Tree_val@U?$_Tree_simple_types@U?$pair@$$CBIPAVCRoomEvent@@@std@@@std@@@std@@@std@@@std@@YAAAV?$_Tree_iterator@V?$_Tree_val@U?$_Tree_simple_types@U?$pair@$$CBIPAVCRoomEvent@@@std@@@std@@@std@@@0@AAV10@@Z 005c1d40 f i MAP.obj
 0002:00061d80       ??$forward@ABU?$less@I@std@@@std@@YAABU?$less@I@0@ABU10@@Z 005c1d80 f i MAP.obj
 0002:00061dc0       ??$forward@PAH@std@@YA$$QAPAHAAPAH@Z 005c1dc0 f i MAP.obj
 0002:00061e00       ??$forward@PAVCRoomEvent@@@std@@YA$$QAPAVCRoomEvent@@AAPAV1@@Z 005c1e00 f i MAP.obj
 0002:00061e40       ??$forward@U?$pair@IPAH@std@@@std@@YA$$QAU?$pair@IPAH@0@AAU10@@Z 005c1e40 f i MAP.obj
 0002:00061e80       ??$forward@U?$pair@IPAVCRoomEvent@@@std@@@std@@YA$$QAU?$pair@IPAVCRoomEvent@@@0@AAU10@@Z 005c1e80 f i MAP.obj
 0002:00061ec0       ??$forward@V?$_Tree_iterator@V?$_Tree_val@U?$_Tree_simple_types@U?$pair@$$CBIPAH@std@@@std@@@std@@@std@@@std@@YA$$QAV?$_Tree_iterator@V?$_Tree_val@U?$_Tree_simple_types@U?$pair@$$CBIPAH@std@@@std@@@std@@@0@AAV10@@Z 005c1ec0 f i MAP.obj
 0002:00061f00       ??$forward@V?$_Tree_iterator@V?$_Tree_val@U?$_Tree_simple_types@U?$pair@$$CBIPAVCRoomEvent@@@std@@@std@@@std@@@std@@@std@@YA$$QAV?$_Tree_iterator@V?$_Tree_val@U?$_Tree_simple_types@U?$pair@$$CBIPAVCRoomEvent@@@std@@@std@@@std@@@0@AAV10@@Z 005c1f00 f i MAP.obj
 0002:00061f40       ??$insert@U?$pair@IPAH@std@@X@?$map@IPAHU?$less@I@std@@V?$allocator@U?$pair@$$CBIPAH@std@@@2@@std@@QAE?AU?$pair@V?$_Tree_iterator@V?$_Tree_val@U?$_Tree_simple_types@U?$pair@$$CBIPAH@std@@@std@@@std@@@std@@_N@1@$$QAU?$pair@IPAH@1@@Z 005c1f40 f i MAP.obj
 0002:00061fd0       ??$insert@U?$pair@IPAVCRoomEvent@@@std@@X@?$map@IPAVCRoomEvent@@U?$less@I@std@@V?$allocator@U?$pair@$$CBIPAVCRoomEvent@@@std@@@3@@std@@QAE?AU?$pair@V?$_Tree_iterator@V?$_Tree_val@U?$_Tree_simple_types@U?$pair@$$CBIPAVCRoomEvent@@@std@@@std@@@std@@@std@@_N@1@$$QAU?$pair@IPAVCRoomEvent@@@1@@Z 005c1fd0 f i MAP.obj
 0002:00062060       ??$make_pair@AAIAAPAH@std@@YA?AU?$pair@IPAH@0@AAIAAPAH@Z 005c2060 f i MAP.obj
 0002:000620d0       ??$make_pair@AAIAAPAVCRoomEvent@@@std@@YA?AU?$pair@IPAVCRoomEvent@@@0@AAIAAPAVCRoomEvent@@@Z 005c20d0 f i MAP.obj
 0002:00062140       ??$move@AAV?$allocator@D@std@@@std@@YA$$QAV?$allocator@D@0@AAV10@@Z 005c2140 f i MAP.obj
 0002:00062180       ??$move@AAV?$basic_string@DU?$char_traits@D@std@@V?$allocator@D@2@@std@@@std@@YA$$QAV?$basic_string@DU?$char_traits@D@std@@V?$allocator@D@2@@0@AAV10@@Z 005c2180 f i MAP.obj
 0002:000621c0       ??$use_facet@V?$codecvt@DDU_Mbstatet@@@std@@@std@@YAABV?$codecvt@DDU_Mbstatet@@@0@ABVlocale@0@@Z 005c21c0 f i MAP.obj
 0002:00062390       ??$use_facet@V?$ctype@D@std@@@std@@YAABV?$ctype@D@0@ABVlocale@0@@Z 005c2390 f i MAP.obj
 0002:00062560       ??0?$CSTLMap@H@@QAE@XZ     005c2560 f i MAP.obj
 0002:00062610       ??0?$CSTLMapOnlyLoad@VCRoomEvent@@@@QAE@XZ 005c2610 f i MAP.obj
 0002:000626c0       ??0?$_String_const_iterator@V?$_String_val@U?$_Simple_types@D@std@@@std@@@std@@QAE@PBDPBU_Container_base12@1@@Z 005c26c0 f i MAP.obj
 0002:00062730       ??0?$_String_iterator@V?$_String_val@U?$_Simple_types@D@std@@@std@@@std@@QAE@PADPBU_Container_base12@1@@Z 005c2730 f i MAP.obj
 0002:00062790       ??0?$_Tree@V?$_Tmap_traits@IPAHU?$less@I@std@@V?$allocator@U?$pair@$$CBIPAH@std@@@2@$0A@@std@@@std@@QAE@ABU?$less@I@1@@Z 005c2790 f i MAP.obj
 0002:000627f0       ??0?$_Tree@V?$_Tmap_traits@IPAVCRoomEvent@@U?$less@I@std@@V?$allocator@U?$pair@$$CBIPAVCRoomEvent@@@std@@@3@$0A@@std@@@std@@QAE@ABU?$less@I@1@@Z 005c27f0 f i MAP.obj
 0002:00062850       ??0?$_Tree_comp_alloc@V?$_Tmap_traits@IPAHU?$less@I@std@@V?$allocator@U?$pair@$$CBIPAH@std@@@2@$0A@@std@@@std@@QAE@ABU?$less@I@1@@Z 005c2850 f i MAP.obj
 0002:00062910       ??0?$_Tree_comp_alloc@V?$_Tmap_traits@IPAVCRoomEvent@@U?$less@I@std@@V?$allocator@U?$pair@$$CBIPAVCRoomEvent@@@std@@@3@$0A@@std@@@std@@QAE@ABU?$less@I@1@@Z 005c2910 f i MAP.obj
 0002:000629d0       ??0?$_Tree_const_iterator@V?$_Tree_val@U?$_Tree_simple_types@U?$pair@$$CBIPAH@std@@@std@@@std@@@std@@QAE@$$QAV01@@Z 005c29d0 f i MAP.obj
 0002:00062a30       ??0?$_Tree_const_iterator@V?$_Tree_val@U?$_Tree_simple_types@U?$pair@$$CBIPAH@std@@@std@@@std@@@std@@QAE@ABV01@@Z 005c2a30 f i MAP.obj
 0002:00062a90       ??0?$_Tree_const_iterator@V?$_Tree_val@U?$_Tree_simple_types@U?$pair@$$CBIPAH@std@@@std@@@std@@@std@@QAE@PAU?$_Tree_node@U?$pair@$$CBIPAH@std@@PAX@1@PBV?$_Tree_val@U?$_Tree_simple_types@U?$pair@$$CBIPAH@std@@@std@@@1@@Z 005c2a90 f i MAP.obj
 0002:00062af0       ??0?$_Tree_const_iterator@V?$_Tree_val@U?$_Tree_simple_types@U?$pair@$$CBIPAU_OBJECT_EVENT@@@std@@@std@@@std@@@std@@QAE@$$QAV01@@Z 005c2af0 f i MAP.obj
 0002:00062b50       ??0?$_Tree_const_iterator@V?$_Tree_val@U?$_Tree_simple_types@U?$pair@$$CBIPAU_OBJECT_EVENT@@@std@@@std@@@std@@@std@@QAE@ABV01@@Z 005c2b50 f i MAP.obj
 0002:00062bb0       ??0?$_Tree_const_iterator@V?$_Tree_val@U?$_Tree_simple_types@U?$pair@$$CBIPAU_OBJECT_EVENT@@@std@@@std@@@std@@@std@@QAE@PAU?$_Tree_node@U?$pair@$$CBIPAU_OBJECT_EVENT@@@std@@PAX@1@PBV?$_Tree_val@U?$_Tree_simple_types@U?$pair@$$CBIPAU_OBJECT_EVENT@@@std@@@std@@@1@@Z 005c2bb0 f i MAP.obj
 0002:00062c10       ??0?$_Tree_const_iterator@V?$_Tree_val@U?$_Tree_simple_types@U?$pair@$$CBIPAVCRoomEvent@@@std@@@std@@@std@@@std@@QAE@$$QAV01@@Z 005c2c10 f i MAP.obj
 0002:00062c70       ??0?$_Tree_const_iterator@V?$_Tree_val@U?$_Tree_simple_types@U?$pair@$$CBIPAVCRoomEvent@@@std@@@std@@@std@@@std@@QAE@ABV01@@Z 005c2c70 f i MAP.obj
 0002:00062cd0       ??0?$_Tree_const_iterator@V?$_Tree_val@U?$_Tree_simple_types@U?$pair@$$CBIPAVCRoomEvent@@@std@@@std@@@std@@@std@@QAE@PAU?$_Tree_node@U?$pair@$$CBIPAVCRoomEvent@@@std@@PAX@1@PBV?$_Tree_val@U?$_Tree_simple_types@U?$pair@$$CBIPAVCRoomEvent@@@std@@@std@@@1@@Z 005c2cd0 f i MAP.obj
 0002:00062d30       ??0?$_Tree_iterator@V?$_Tree_val@U?$_Tree_simple_types@U?$pair@$$CBIPAH@std@@@std@@@std@@@std@@QAE@$$QAV01@@Z 005c2d30 f i MAP.obj
 0002:00062d90       ??0?$_Tree_iterator@V?$_Tree_val@U?$_Tree_simple_types@U?$pair@$$CBIPAH@std@@@std@@@std@@@std@@QAE@ABV01@@Z 005c2d90 f i MAP.obj
 0002:00062df0       ??0?$_Tree_iterator@V?$_Tree_val@U?$_Tree_simple_types@U?$pair@$$CBIPAH@std@@@std@@@std@@@std@@QAE@PAU?$_Tree_node@U?$pair@$$CBIPAH@std@@PAX@1@PBV?$_Tree_val@U?$_Tree_simple_types@U?$pair@$$CBIPAH@std@@@std@@@1@@Z 005c2df0 f i MAP.obj
 0002:00062e50       ??0?$_Tree_iterator@V?$_Tree_val@U?$_Tree_simple_types@U?$pair@$$CBIPAU_OBJECT_EVENT@@@std@@@std@@@std@@@std@@QAE@$$QAV01@@Z 005c2e50 f i MAP.obj
 0002:00062eb0       ??0?$_Tree_iterator@V?$_Tree_val@U?$_Tree_simple_types@U?$pair@$$CBIPAU_OBJECT_EVENT@@@std@@@std@@@std@@@std@@QAE@ABV01@@Z 005c2eb0 f i MAP.obj
 0002:00062f10       ??0?$_Tree_iterator@V?$_Tree_val@U?$_Tree_simple_types@U?$pair@$$CBIPAU_OBJECT_EVENT@@@std@@@std@@@std@@@std@@QAE@PAU?$_Tree_node@U?$pair@$$CBIPAU_OBJECT_EVENT@@@std@@PAX@1@PBV?$_Tree_val@U?$_Tree_simple_types@U?$pair@$$CBIPAU_OBJECT_EVENT@@@std@@@std@@@1@@Z 005c2f10 f i MAP.obj
 0002:00062f70       ??0?$_Tree_iterator@V?$_Tree_val@U?$_Tree_simple_types@U?$pair@$$CBIPAVCRoomEvent@@@std@@@std@@@std@@@std@@QAE@$$QAV01@@Z 005c2f70 f i MAP.obj
 0002:00062fd0       ??0?$_Tree_iterator@V?$_Tree_val@U?$_Tree_simple_types@U?$pair@$$CBIPAVCRoomEvent@@@std@@@std@@@std@@@std@@QAE@ABV01@@Z 005c2fd0 f i MAP.obj
 0002:00063030       ??0?$_Tree_iterator@V?$_Tree_val@U?$_Tree_simple_types@U?$pair@$$CBIPAVCRoomEvent@@@std@@@std@@@std@@@std@@QAE@PAU?$_Tree_node@U?$pair@$$CBIPAVCRoomEvent@@@std@@PAX@1@PBV?$_Tree_val@U?$_Tree_simple_types@U?$pair@$$CBIPAVCRoomEvent@@@std@@@std@@@1@@Z 005c3030 f i MAP.obj
 0002:00063090       ??0?$_Tree_unchecked_const_iterator@V?$_Tree_val@U?$_Tree_simple_types@U?$pair@$$CBIPAH@std@@@std@@@std@@U_Iterator_base12@2@@std@@QAE@$$QAV01@@Z 005c3090 f i MAP.obj
 0002:00063100       ??0?$_Tree_unchecked_const_iterator@V?$_Tree_val@U?$_Tree_simple_types@U?$pair@$$CBIPAH@std@@@std@@@std@@U_Iterator_base12@2@@std@@QAE@ABV01@@Z 005c3100 f i MAP.obj
 0002:00063170       ??0?$_Tree_unchecked_const_iterator@V?$_Tree_val@U?$_Tree_simple_types@U?$pair@$$CBIPAH@std@@@std@@@std@@U_Iterator_base12@2@@std@@QAE@PAU?$_Tree_node@U?$pair@$$CBIPAH@std@@PAX@1@PBV?$_Tree_val@U?$_Tree_simple_types@U?$pair@$$CBIPAH@std@@@std@@@1@@Z 005c3170 f i MAP.obj
 0002:000631e0       ??0?$_Tree_unchecked_const_iterator@V?$_Tree_val@U?$_Tree_simple_types@U?$pair@$$CBIPAU_OBJECT_EVENT@@@std@@@std@@@std@@U_Iterator_base12@2@@std@@QAE@$$QAV01@@Z 005c31e0 f i MAP.obj
 0002:00063250       ??0?$_Tree_unchecked_const_iterator@V?$_Tree_val@U?$_Tree_simple_types@U?$pair@$$CBIPAU_OBJECT_EVENT@@@std@@@std@@@std@@U_Iterator_base12@2@@std@@QAE@ABV01@@Z 005c3250 f i MAP.obj
 0002:000632c0       ??0?$_Tree_unchecked_const_iterator@V?$_Tree_val@U?$_Tree_simple_types@U?$pair@$$CBIPAU_OBJECT_EVENT@@@std@@@std@@@std@@U_Iterator_base12@2@@std@@QAE@PAU?$_Tree_node@U?$pair@$$CBIPAU_OBJECT_EVENT@@@std@@PAX@1@PBV?$_Tree_val@U?$_Tree_simple_types@U?$pair@$$CBIPAU_OBJECT_EVENT@@@std@@@std@@@1@@Z 005c32c0 f i MAP.obj
 0002:00063330       ??0?$_Tree_unchecked_const_iterator@V?$_Tree_val@U?$_Tree_simple_types@U?$pair@$$CBIPAVCRoomEvent@@@std@@@std@@@std@@U_Iterator_base12@2@@std@@QAE@$$QAV01@@Z 005c3330 f i MAP.obj
 0002:000633a0       ??0?$_Tree_unchecked_const_iterator@V?$_Tree_val@U?$_Tree_simple_types@U?$pair@$$CBIPAVCRoomEvent@@@std@@@std@@@std@@U_Iterator_base12@2@@std@@QAE@ABV01@@Z 005c33a0 f i MAP.obj
 0002:00063410       ??0?$_Tree_unchecked_const_iterator@V?$_Tree_val@U?$_Tree_simple_types@U?$pair@$$CBIPAVCRoomEvent@@@std@@@std@@@std@@U_Iterator_base12@2@@std@@QAE@PAU?$_Tree_node@U?$pair@$$CBIPAVCRoomEvent@@@std@@PAX@1@PBV?$_Tree_val@U?$_Tree_simple_types@U?$pair@$$CBIPAVCRoomEvent@@@std@@@std@@@1@@Z 005c3410 f i MAP.obj
 0002:00063480       ??0?$_Tree_val@U?$_Tree_simple_types@U?$pair@$$CBIPAH@std@@@std@@@std@@QAE@XZ 005c3480 f i MAP.obj
 0002:000634f0       ??0?$_Tree_val@U?$_Tree_simple_types@U?$pair@$$CBIPAVCRoomEvent@@@std@@@std@@@std@@QAE@XZ 005c34f0 f i MAP.obj
 0002:00063560       ??0?$_Yarn@D@std@@QAE@XZ   005c3560 f i MAP.obj
 0002:000635b0       ??0?$_Yarn@_W@std@@QAE@XZ  005c35b0 f i MAP.obj
 0002:00063600       ??0?$allocator@U?$_Tree_node@U?$pair@$$CBIPAH@std@@PAX@std@@@std@@QAE@XZ 005c3600 f i MAP.obj
 0002:00063640       ??0?$allocator@U?$_Tree_node@U?$pair@$$CBIPAVCRoomEvent@@@std@@PAX@std@@@std@@QAE@XZ 005c3640 f i MAP.obj
 0002:00063680       ??0?$basic_filebuf@DU?$char_traits@D@std@@@std@@QAE@PAU_iobuf@@@Z 005c3680 f i MAP.obj
 0002:00063740       ??0?$basic_ifstream@DU?$char_traits@D@std@@@std@@QAE@ABV?$basic_string@DU?$char_traits@D@std@@V?$allocator@D@2@@1@HH@Z 005c3740 f i MAP.obj
 0002:000637f0       ??0?$basic_ifstream@DU?$char_traits@D@std@@@std@@QAE@PBDHH@Z 005c37f0 f i MAP.obj
 0002:00063970       ??0?$basic_ios@DU?$char_traits@D@std@@@std@@IAE@XZ 005c3970 f i MAP.obj
 0002:000639d0       ??0?$basic_istream@DU?$char_traits@D@std@@@std@@QAE@PAV?$basic_streambuf@DU?$char_traits@D@std@@@1@_N@Z 005c39d0 f i MAP.obj
 0002:00063b10       ??0?$basic_streambuf@DU?$char_traits@D@std@@@std@@IAE@XZ 005c3b10 f i MAP.obj
 0002:00063bc0       ??0?$basic_string@DU?$char_traits@D@std@@V?$allocator@D@2@@std@@QAE@$$QAV01@@Z 005c3bc0 f i MAP.obj
 0002:00063c90       ??0?$basic_string@DU?$char_traits@D@std@@V?$allocator@D@2@@std@@QAE@ID@Z 005c3c90 f i MAP.obj
 0002:00063d50       ??0?$basic_string@DU?$char_traits@D@std@@V?$allocator@D@2@@std@@QAE@QBD@Z 005c3d50 f i MAP.obj
 0002:00063e10       ??0?$codecvt@DDU_Mbstatet@@@std@@QAE@ABV_Locinfo@1@I@Z 005c3e10 f i MAP.obj
 0002:00063ed0       ??0?$ctype@D@std@@QAE@ABV_Locinfo@1@I@Z 005c3ed0 f i MAP.obj
 0002:00063f90       ??0?$fpos@U_Mbstatet@@@std@@QAE@U_Mbstatet@@_J@Z 005c3f90 f i MAP.obj
 0002:00064010       ??0?$fpos@U_Mbstatet@@@std@@QAE@_J@Z 005c4010 f i MAP.obj
 0002:00064090       ??0?$map@IPAHU?$less@I@std@@V?$allocator@U?$pair@$$CBIPAH@std@@@2@@std@@QAE@XZ 005c4090 f i MAP.obj
 0002:000640f0       ??0?$map@IPAVCRoomEvent@@U?$less@I@std@@V?$allocator@U?$pair@$$CBIPAVCRoomEvent@@@std@@@3@@std@@QAE@XZ 005c40f0 f i MAP.obj
 0002:00064150       ??0CPoint@@QAE@HH@Z        005c4150 f i MAP.obj
 0002:000641a0       ??0CRect@@QAE@HHHH@Z       005c41a0 f i MAP.obj
 0002:00064220       ??0CRegion@@QAE@XZ         005c4220 f i MAP.obj
 0002:000642d0       ??0MAP@@QAE@XZ             005c42d0 f   MAP.obj
 0002:00064400       ??0_Facet_base@std@@QAE@XZ 005c4400 f i MAP.obj
 0002:00064450       ??0_Generic_error_category@std@@QAE@XZ 005c4450 f i MAP.obj
 0002:000644c0       ??0_Iostream_error_category@std@@QAE@XZ 005c44c0 f i MAP.obj
 0002:00064530       ??0_Locinfo@std@@QAE@PBD@Z 005c4530 f i MAP.obj
 0002:00064690       ??0_Sentry_base@?$basic_istream@DU?$char_traits@D@std@@@std@@QAE@AAV12@@Z 005c4690 f i MAP.obj
 0002:00064770       ??0_Sentry_base@?$basic_ostream@DU?$char_traits@D@std@@@std@@QAE@AAV12@@Z 005c4770 f i MAP.obj
 0002:00064850       ??0_System_error@std@@IAE@Verror_code@1@ABV?$basic_string@DU?$char_traits@D@std@@V?$allocator@D@2@@1@@Z 005c4850 f i MAP.obj
 0002:00064980       ??0_System_error@std@@QAE@ABV01@@Z 005c4980 f i MAP.obj
 0002:00064a00       ??0bad_cast@std@@QAE@ABV01@@Z 005c4a00 f i MAP.obj
 0002:00064a70       ??0bad_cast@std@@QAE@XZ    005c4a70 f i MAP.obj
 0002:00064ae0       ??0codecvt_base@std@@QAE@I@Z 005c4ae0 f i MAP.obj
 0002:00064b50       ??0ctype_base@std@@QAE@I@Z 005c4b50 f i MAP.obj
 0002:00064bc0       ??0error_category@std@@QAE@XZ 005c4bc0 f i MAP.obj
 0002:00064c10       ??0error_code@std@@QAE@HABVerror_category@1@@Z 005c4c10 f i MAP.obj
 0002:00064c60       ??0error_condition@std@@QAE@HABVerror_category@1@@Z 005c4c60 f i MAP.obj
 0002:00064cb0       ??0exception@std@@QAE@ABV01@@Z 005c4cb0 f i MAP.obj
 0002:00064d40       ??0exception@std@@QAE@QBD@Z 005c4d40 f i MAP.obj
 0002:00064e10       ??0exception@std@@QAE@QBDH@Z 005c4e10 f i MAP.obj
 0002:00064e80       ??0facet@locale@std@@IAE@I@Z 005c4e80 f i MAP.obj
 0002:00064ef0       ??0failure@ios_base@std@@QAE@ABV012@@Z 005c4ef0 f i MAP.obj
 0002:00064f60       ??0failure@ios_base@std@@QAE@PBDABVerror_code@2@@Z 005c4f60 f i MAP.obj
 0002:00064fe0       ??0id@locale@std@@QAE@I@Z  005c4fe0 f i MAP.obj
 0002:00065030       ??0ios_base@std@@IAE@XZ    005c5030 f i MAP.obj
 0002:00065080       ??0locale@std@@QAE@ABV01@@Z 005c5080 f i MAP.obj
 0002:00065140       ??0locale@std@@QAE@XZ      005c5140 f i MAP.obj
 0002:000651e0       ??0once_flag@std@@QAE@XZ   005c51e0 f i MAP.obj
 0002:00065230       ??0runtime_error@std@@QAE@ABV01@@Z 005c5230 f i MAP.obj
 0002:000652a0       ??0runtime_error@std@@QAE@ABV?$basic_string@DU?$char_traits@D@std@@V?$allocator@D@2@@1@@Z 005c52a0 f i MAP.obj
 0002:00065310       ??0runtime_error@std@@QAE@PBD@Z 005c5310 f i MAP.obj
 0002:00065380       ??0sentry@?$basic_istream@DU?$char_traits@D@std@@@std@@QAE@AAV12@_N@Z 005c5380 f i MAP.obj
 0002:00065440       ??0sentry@?$basic_ostream@DU?$char_traits@D@std@@@std@@QAE@AAV12@@Z 005c5440 f i MAP.obj
 0002:00065580       ??0system_error@std@@QAE@ABV01@@Z 005c5580 f i MAP.obj
 0002:000655f0       ??0system_error@std@@QAE@Verror_code@1@PBD@Z 005c55f0 f i MAP.obj
 0002:000656e0       ??1?$CSTLMap@H@@QAE@XZ     005c56e0 f i MAP.obj
 0002:00065780       ??1?$CSTLMapOnlyLoad@VCRoomEvent@@@@QAE@XZ 005c5780 f i MAP.obj
 0002:00065820       ??1?$_Compressed_pair@U?$less@I@std@@V?$_Compressed_pair@V?$allocator@U?$_Tree_node@U?$pair@$$CBIPAH@std@@PAX@std@@@std@@V?$_Tree_val@U?$_Tree_simple_types@U?$pair@$$CBIPAH@std@@@std@@@2@$00@2@$00@std@@QAE@XZ 005c5820 f i MAP.obj
 0002:00065870       ??1?$_Compressed_pair@U?$less@I@std@@V?$_Compressed_pair@V?$allocator@U?$_Tree_node@U?$pair@$$CBIPAVCRoomEvent@@@std@@PAX@std@@@std@@V?$_Tree_val@U?$_Tree_simple_types@U?$pair@$$CBIPAVCRoomEvent@@@std@@@std@@@2@$00@2@$00@std@@QAE@XZ 005c5870 f i MAP.obj
 0002:000658c0       ??1?$_Compressed_pair@V?$allocator@U?$_Tree_node@U?$pair@$$CBIPAH@std@@PAX@std@@@std@@V?$_Tree_val@U?$_Tree_simple_types@U?$pair@$$CBIPAH@std@@@std@@@2@$00@std@@QAE@XZ 005c58c0 f i MAP.obj
 0002:00065910       ??1?$_Compressed_pair@V?$allocator@U?$_Tree_node@U?$pair@$$CBIPAVCRoomEvent@@@std@@PAX@std@@@std@@V?$_Tree_val@U?$_Tree_simple_types@U?$pair@$$CBIPAVCRoomEvent@@@std@@@std@@@2@$00@std@@QAE@XZ 005c5910 f i MAP.obj
 0002:00065960       ??1?$_String_const_iterator@V?$_String_val@U?$_Simple_types@D@std@@@std@@@std@@QAE@XZ 005c5960 f i MAP.obj
 0002:000659b0       ??1?$_String_iterator@V?$_String_val@U?$_Simple_types@D@std@@@std@@@std@@QAE@XZ 005c59b0 f i MAP.obj
 0002:00065a00       ??1?$_Tree@V?$_Tmap_traits@IPAHU?$less@I@std@@V?$allocator@U?$pair@$$CBIPAH@std@@@2@$0A@@std@@@std@@QAE@XZ 005c5a00 f i MAP.obj
 0002:00065a90       ??1?$_Tree@V?$_Tmap_traits@IPAVCRoomEvent@@U?$less@I@std@@V?$allocator@U?$pair@$$CBIPAVCRoomEvent@@@std@@@3@$0A@@std@@@std@@QAE@XZ 005c5a90 f i MAP.obj
 0002:00065b20       ??1?$_Tree_comp_alloc@V?$_Tmap_traits@IPAHU?$less@I@std@@V?$allocator@U?$pair@$$CBIPAH@std@@@2@$0A@@std@@@std@@QAE@XZ 005c5b20 f i MAP.obj
 0002:00065bd0       ??1?$_Tree_comp_alloc@V?$_Tmap_traits@IPAVCRoomEvent@@U?$less@I@std@@V?$allocator@U?$pair@$$CBIPAVCRoomEvent@@@std@@@3@$0A@@std@@@std@@QAE@XZ 005c5bd0 f i MAP.obj
 0002:00065c80       ??1?$_Tree_const_iterator@V?$_Tree_val@U?$_Tree_simple_types@U?$pair@$$CBIPAH@std@@@std@@@std@@@std@@QAE@XZ 005c5c80 f i MAP.obj
 0002:00065cd0       ??1?$_Tree_const_iterator@V?$_Tree_val@U?$_Tree_simple_types@U?$pair@$$CBIPAU_OBJECT_EVENT@@@std@@@std@@@std@@@std@@QAE@XZ 005c5cd0 f i MAP.obj
 0002:00065d20       ??1?$_Tree_const_iterator@V?$_Tree_val@U?$_Tree_simple_types@U?$pair@$$CBIPAVCRoomEvent@@@std@@@std@@@std@@@std@@QAE@XZ 005c5d20 f i MAP.obj
 0002:00065d70       ??1?$_Tree_iterator@V?$_Tree_val@U?$_Tree_simple_types@U?$pair@$$CBIPAH@std@@@std@@@std@@@std@@QAE@XZ 005c5d70 f i MAP.obj
 0002:00065dc0       ??1?$_Tree_iterator@V?$_Tree_val@U?$_Tree_simple_types@U?$pair@$$CBIPAU_OBJECT_EVENT@@@std@@@std@@@std@@@std@@QAE@XZ 005c5dc0 f i MAP.obj
 0002:00065e10       ??1?$_Tree_iterator@V?$_Tree_val@U?$_Tree_simple_types@U?$pair@$$CBIPAVCRoomEvent@@@std@@@std@@@std@@@std@@QAE@XZ 005c5e10 f i MAP.obj
 0002:00065e60       ??1?$_Tree_unchecked_const_iterator@V?$_Tree_val@U?$_Tree_simple_types@U?$pair@$$CBIPAH@std@@@std@@@std@@U_Iterator_base12@2@@std@@QAE@XZ 005c5e60 f i MAP.obj
 0002:00065eb0       ??1?$_Tree_unchecked_const_iterator@V?$_Tree_val@U?$_Tree_simple_types@U?$pair@$$CBIPAU_OBJECT_EVENT@@@std@@@std@@@std@@U_Iterator_base12@2@@std@@QAE@XZ 005c5eb0 f i MAP.obj
 0002:00065f00       ??1?$_Tree_unchecked_const_iterator@V?$_Tree_val@U?$_Tree_simple_types@U?$pair@$$CBIPAVCRoomEvent@@@std@@@std@@@std@@U_Iterator_base12@2@@std@@QAE@XZ 005c5f00 f i MAP.obj
 0002:00065f50       ??1?$_Tree_val@U?$_Tree_simple_types@U?$pair@$$CBIPAH@std@@@std@@@std@@QAE@XZ 005c5f50 f i MAP.obj
 0002:00065fa0       ??1?$_Tree_val@U?$_Tree_simple_types@U?$pair@$$CBIPAVCRoomEvent@@@std@@@std@@@std@@QAE@XZ 005c5fa0 f i MAP.obj
 0002:00065ff0       ??1?$_Yarn@D@std@@QAE@XZ   005c5ff0 f i MAP.obj
 0002:00066080       ??1?$_Yarn@_W@std@@QAE@XZ  005c6080 f i MAP.obj
 0002:00066110       ??1?$basic_filebuf@DU?$char_traits@D@std@@@std@@UAE@XZ 005c6110 f i MAP.obj
 0002:000661d0       ??1?$basic_ifstream@DU?$char_traits@D@std@@@std@@UAE@XZ 005c61d0 f i MAP.obj
 0002:00066270       ??1?$basic_ios@DU?$char_traits@D@std@@@std@@UAE@XZ 005c6270 f i MAP.obj
 0002:000662d0       ??1?$basic_istream@DU?$char_traits@D@std@@@std@@UAE@XZ 005c62d0 f i MAP.obj
 0002:00066340       ??1?$basic_streambuf@DU?$char_traits@D@std@@@std@@UAE@XZ 005c6340 f i MAP.obj
 0002:000663e0       ??1?$codecvt@DDU_Mbstatet@@@std@@MAE@XZ 005c63e0 f i MAP.obj
 0002:00066440       ??1?$ctype@D@std@@MAE@XZ   005c6440 f i MAP.obj
 0002:000664e0       ??1?$map@IPAHU?$less@I@std@@V?$allocator@U?$pair@$$CBIPAH@std@@@2@@std@@QAE@XZ 005c64e0 f i MAP.obj
 0002:00066530       ??1?$map@IPAVCRoomEvent@@U?$less@I@std@@V?$allocator@U?$pair@$$CBIPAVCRoomEvent@@@std@@@3@@std@@QAE@XZ 005c6530 f i MAP.obj
 0002:00066580       ??1?$pair@V?$_Tree_iterator@V?$_Tree_val@U?$_Tree_simple_types@U?$pair@$$CBIPAH@std@@@std@@@std@@@std@@_N@std@@QAE@XZ 005c6580 f i MAP.obj
 0002:000665d0       ??1?$pair@V?$_Tree_iterator@V?$_Tree_val@U?$_Tree_simple_types@U?$pair@$$CBIPAVCRoomEvent@@@std@@@std@@@std@@@std@@_N@std@@QAE@XZ 005c65d0 f i MAP.obj
 0002:00066620       ??1CRegion@@QAE@XZ         005c6620 f i MAP.obj
 0002:00066680       ??1MAP@@UAE@XZ             005c6680 f   MAP.obj
 0002:00066750       ??1_Facet_base@std@@UAE@XZ 005c6750 f i MAP.obj
 0002:00066790       ??1_Generic_error_category@std@@UAE@XZ 005c6790 f i MAP.obj
 0002:000667e0       ??1_Iostream_error_category@std@@UAE@XZ 005c67e0 f i MAP.obj
 0002:00066830       ??1_Locinfo@std@@QAE@XZ    005c6830 f i MAP.obj
 0002:00066920       ??1_Sentry_base@?$basic_istream@DU?$char_traits@D@std@@@std@@QAE@XZ 005c6920 f i MAP.obj
 0002:00066a20       ??1_Sentry_base@?$basic_ostream@DU?$char_traits@D@std@@@std@@QAE@XZ 005c6a20 f i MAP.obj
 0002:00066b20       ??1_System_error@std@@UAE@XZ 005c6b20 f i MAP.obj
 0002:00066b70       ??1bad_cast@std@@UAE@XZ    005c6b70 f i MAP.obj
 0002:00066bc0       ??1codecvt_base@std@@UAE@XZ 005c6bc0 f i MAP.obj
 0002:00066c20       ??1ctype_base@std@@UAE@XZ  005c6c20 f i MAP.obj
 0002:00066c80       ??1error_category@std@@UAE@XZ 005c6c80 f i MAP.obj
 0002:00066cc0       ??1exception@std@@UAE@XZ   005c6cc0 f i MAP.obj
 0002:00066d30       ??1facet@locale@std@@MAE@XZ 005c6d30 f i MAP.obj
 0002:00066d90       ??1failure@ios_base@std@@UAE@XZ 005c6d90 f i MAP.obj
 0002:00066de0       ??1ios_base@std@@UAE@XZ    005c6de0 f i MAP.obj
 0002:00066e80       ??1locale@std@@QAE@XZ      005c6e80 f i MAP.obj
 0002:00066f90       ??1runtime_error@std@@UAE@XZ 005c6f90 f i MAP.obj
 0002:00066fe0       ??1sentry@?$basic_istream@DU?$char_traits@D@std@@@std@@QAE@XZ 005c6fe0 f i MAP.obj
 0002:00067030       ??1sentry@?$basic_ostream@DU?$char_traits@D@std@@@std@@QAE@XZ 005c7030 f i MAP.obj
 0002:000670d0       ??1system_error@std@@UAE@XZ 005c70d0 f i MAP.obj
 0002:00067120       ??2_Crt_new_delete@std@@SAPAXI@Z 005c7120 f i MAP.obj
 0002:00067190       ??2_Crt_new_delete@std@@SAPAXIABUnothrow_t@1@@Z 005c7190 f i MAP.obj
 0002:00067210       ??3_Crt_new_delete@std@@SAXPAX@Z 005c7210 f i MAP.obj
 0002:00067260       ??7ios_base@std@@QBE_NXZ   005c7260 f i MAP.obj
 0002:000672b0       ??8?$_Tree_const_iterator@V?$_Tree_val@U?$_Tree_simple_types@U?$pair@$$CBIPAH@std@@@std@@@std@@@std@@QBE_NABV01@@Z 005c72b0 f i MAP.obj
 0002:00067390       ??8?$_Tree_const_iterator@V?$_Tree_val@U?$_Tree_simple_types@U?$pair@$$CBIPAU_OBJECT_EVENT@@@std@@@std@@@std@@@std@@QBE_NABV01@@Z 005c7390 f i MAP.obj
 0002:00067470       ??8?$_Tree_const_iterator@V?$_Tree_val@U?$_Tree_simple_types@U?$pair@$$CBIPAVCRoomEvent@@@std@@@std@@@std@@@std@@QBE_NABV01@@Z 005c7470 f i MAP.obj
 0002:00067550       ??8error_category@std@@QBE_NABV01@@Z 005c7550 f i MAP.obj
 0002:000675c0       ??8std@@YA_NABVerror_condition@0@0@Z 005c75c0 f i MAP.obj
 0002:00067670       ??9?$_Tree_const_iterator@V?$_Tree_val@U?$_Tree_simple_types@U?$pair@$$CBIPAH@std@@@std@@@std@@@std@@QBE_NABV01@@Z 005c7670 f i MAP.obj
 0002:00067700       ??9?$_Tree_const_iterator@V?$_Tree_val@U?$_Tree_simple_types@U?$pair@$$CBIPAU_OBJECT_EVENT@@@std@@@std@@@std@@@std@@QBE_NABV01@@Z 005c7700 f i MAP.obj
 0002:00067790       ??9?$_Tree_const_iterator@V?$_Tree_val@U?$_Tree_simple_types@U?$pair@$$CBIPAVCRoomEvent@@@std@@@std@@@std@@@std@@QBE_NABV01@@Z 005c7790 f i MAP.obj
 0002:00067820       ??B?$fpos@U_Mbstatet@@@std@@QBE_JXZ 005c7820 f i MAP.obj
 0002:00067870       ??Bid@locale@std@@QAEIXZ   005c7870 f i MAP.obj
 0002:00067940       ??Bsentry@?$basic_istream@DU?$char_traits@D@std@@@std@@QBE_NXZ 005c7940 f i MAP.obj
 0002:00067980       ??Bsentry@?$basic_ostream@DU?$char_traits@D@std@@@std@@QBE_NXZ 005c7980 f i MAP.obj
 0002:000679c0       ??C?$_Tree_iterator@V?$_Tree_val@U?$_Tree_simple_types@U?$pair@$$CBIPAH@std@@@std@@@std@@@std@@QBEPAU?$pair@$$CBIPAH@1@XZ 005c79c0 f i MAP.obj
 0002:00067a20       ??C?$_Tree_iterator@V?$_Tree_val@U?$_Tree_simple_types@U?$pair@$$CBIPAU_OBJECT_EVENT@@@std@@@std@@@std@@@std@@QBEPAU?$pair@$$CBIPAU_OBJECT_EVENT@@@1@XZ 005c7a20 f i MAP.obj
 0002:00067a80       ??C?$_Tree_iterator@V?$_Tree_val@U?$_Tree_simple_types@U?$pair@$$CBIPAVCRoomEvent@@@std@@@std@@@std@@@std@@QBEPAU?$pair@$$CBIPAVCRoomEvent@@@1@XZ 005c7a80 f i MAP.obj
 0002:00067ae0       ??D?$_String_const_iterator@V?$_String_val@U?$_Simple_types@D@std@@@std@@@std@@QBEABDXZ 005c7ae0 f i MAP.obj
 0002:00067c60       ??D?$_String_iterator@V?$_String_val@U?$_Simple_types@D@std@@@std@@@std@@QBEAADXZ 005c7c60 f i MAP.obj
 0002:00067cb0       ??D?$_Tree_const_iterator@V?$_Tree_val@U?$_Tree_simple_types@U?$pair@$$CBIPAH@std@@@std@@@std@@@std@@QBEABU?$pair@$$CBIPAH@1@XZ 005c7cb0 f i MAP.obj
 0002:00067d80       ??D?$_Tree_const_iterator@V?$_Tree_val@U?$_Tree_simple_types@U?$pair@$$CBIPAU_OBJECT_EVENT@@@std@@@std@@@std@@@std@@QBEABU?$pair@$$CBIPAU_OBJECT_EVENT@@@1@XZ 005c7d80 f i MAP.obj
 0002:00067e50       ??D?$_Tree_const_iterator@V?$_Tree_val@U?$_Tree_simple_types@U?$pair@$$CBIPAVCRoomEvent@@@std@@@std@@@std@@@std@@QBEABU?$pair@$$CBIPAVCRoomEvent@@@1@XZ 005c7e50 f i MAP.obj
 0002:00067f20       ??D?$_Tree_iterator@V?$_Tree_val@U?$_Tree_simple_types@U?$pair@$$CBIPAH@std@@@std@@@std@@@std@@QBEAAU?$pair@$$CBIPAH@1@XZ 005c7f20 f i MAP.obj
 0002:00067f70       ??D?$_Tree_iterator@V?$_Tree_val@U?$_Tree_simple_types@U?$pair@$$CBIPAU_OBJECT_EVENT@@@std@@@std@@@std@@@std@@QBEAAU?$pair@$$CBIPAU_OBJECT_EVENT@@@1@XZ 005c7f70 f i MAP.obj
 0002:00067fc0       ??D?$_Tree_iterator@V?$_Tree_val@U?$_Tree_simple_types@U?$pair@$$CBIPAVCRoomEvent@@@std@@@std@@@std@@@std@@QBEAAU?$pair@$$CBIPAVCRoomEvent@@@1@XZ 005c7fc0 f i MAP.obj
 0002:00068010       ??E?$_Tree_const_iterator@V?$_Tree_val@U?$_Tree_simple_types@U?$pair@$$CBIPAH@std@@@std@@@std@@@std@@QAE?AV01@H@Z 005c8010 f i MAP.obj
 0002:00068130       ??E?$_Tree_const_iterator@V?$_Tree_val@U?$_Tree_simple_types@U?$pair@$$CBIPAH@std@@@std@@@std@@@std@@QAEAAV01@XZ 005c8130 f i MAP.obj
 0002:000681f0       ??E?$_Tree_const_iterator@V?$_Tree_val@U?$_Tree_simple_types@U?$pair@$$CBIPAU_OBJECT_EVENT@@@std@@@std@@@std@@@std@@QAEAAV01@XZ 005c81f0 f i MAP.obj
 0002:000682b0       ??E?$_Tree_const_iterator@V?$_Tree_val@U?$_Tree_simple_types@U?$pair@$$CBIPAVCRoomEvent@@@std@@@std@@@std@@@std@@QAE?AV01@H@Z 005c82b0 f i MAP.obj
 0002:000683d0       ??E?$_Tree_const_iterator@V?$_Tree_val@U?$_Tree_simple_types@U?$pair@$$CBIPAVCRoomEvent@@@std@@@std@@@std@@@std@@QAEAAV01@XZ 005c83d0 f i MAP.obj
 0002:00068490       ??E?$_Tree_iterator@V?$_Tree_val@U?$_Tree_simple_types@U?$pair@$$CBIPAH@std@@@std@@@std@@@std@@QAE?AV01@H@Z 005c8490 f i MAP.obj
 0002:000685b0       ??E?$_Tree_iterator@V?$_Tree_val@U?$_Tree_simple_types@U?$pair@$$CBIPAH@std@@@std@@@std@@@std@@QAEAAV01@XZ 005c85b0 f i MAP.obj
 0002:00068610       ??E?$_Tree_iterator@V?$_Tree_val@U?$_Tree_simple_types@U?$pair@$$CBIPAU_OBJECT_EVENT@@@std@@@std@@@std@@@std@@QAE?AV01@H@Z 005c8610 f i MAP.obj
 0002:00068730       ??E?$_Tree_iterator@V?$_Tree_val@U?$_Tree_simple_types@U?$pair@$$CBIPAU_OBJECT_EVENT@@@std@@@std@@@std@@@std@@QAEAAV01@XZ 005c8730 f i MAP.obj
 0002:00068790       ??E?$_Tree_iterator@V?$_Tree_val@U?$_Tree_simple_types@U?$pair@$$CBIPAVCRoomEvent@@@std@@@std@@@std@@@std@@QAE?AV01@H@Z 005c8790 f i MAP.obj
 0002:000688b0       ??E?$_Tree_iterator@V?$_Tree_val@U?$_Tree_simple_types@U?$pair@$$CBIPAVCRoomEvent@@@std@@@std@@@std@@@std@@QAEAAV01@XZ 005c88b0 f i MAP.obj
 0002:00068910       ??E?$_Tree_unchecked_const_iterator@V?$_Tree_val@U?$_Tree_simple_types@U?$pair@$$CBIPAH@std@@@std@@@std@@U_Iterator_base12@2@@std@@QAEAAV01@XZ 005c8910 f i MAP.obj
 0002:000689f0       ??E?$_Tree_unchecked_const_iterator@V?$_Tree_val@U?$_Tree_simple_types@U?$pair@$$CBIPAU_OBJECT_EVENT@@@std@@@std@@@std@@U_Iterator_base12@2@@std@@QAEAAV01@XZ 005c89f0 f i MAP.obj
 0002:00068ad0       ??E?$_Tree_unchecked_const_iterator@V?$_Tree_val@U?$_Tree_simple_types@U?$pair@$$CBIPAVCRoomEvent@@@std@@@std@@@std@@U_Iterator_base12@2@@std@@QAEAAV01@XZ 005c8ad0 f i MAP.obj
 0002:00068bb0       ??F?$_Tree_const_iterator@V?$_Tree_val@U?$_Tree_simple_types@U?$pair@$$CBIPAH@std@@@std@@@std@@@std@@QAEAAV01@XZ 005c8bb0 f i MAP.obj
 0002:00068cc0       ??F?$_Tree_const_iterator@V?$_Tree_val@U?$_Tree_simple_types@U?$pair@$$CBIPAVCRoomEvent@@@std@@@std@@@std@@@std@@QAEAAV01@XZ 005c8cc0 f i MAP.obj
 0002:00068dd0       ??F?$_Tree_iterator@V?$_Tree_val@U?$_Tree_simple_types@U?$pair@$$CBIPAH@std@@@std@@@std@@@std@@QAEAAV01@XZ 005c8dd0 f i MAP.obj
 0002:00068e30       ??F?$_Tree_iterator@V?$_Tree_val@U?$_Tree_simple_types@U?$pair@$$CBIPAVCRoomEvent@@@std@@@std@@@std@@@std@@QAEAAV01@XZ 005c8e30 f i MAP.obj
 0002:00068e90       ??F?$_Tree_unchecked_const_iterator@V?$_Tree_val@U?$_Tree_simple_types@U?$pair@$$CBIPAH@std@@@std@@@std@@U_Iterator_base12@2@@std@@QAEAAV01@XZ 005c8e90 f i MAP.obj
 0002:00068f90       ??F?$_Tree_unchecked_const_iterator@V?$_Tree_val@U?$_Tree_simple_types@U?$pair@$$CBIPAVCRoomEvent@@@std@@@std@@@std@@U_Iterator_base12@2@@std@@QAEAAV01@XZ 005c8f90 f i MAP.obj
 0002:00069310       ??_D?$basic_ifstream@DU?$char_traits@D@std@@@std@@QAEXXZ 005c9310 f i MAP.obj
 0002:00069370       ??_D?$basic_istream@DU?$char_traits@D@std@@@std@@QAEXXZ 005c9370 f i MAP.obj
 0002:000693d0       ??_E?$basic_ifstream@DU?$char_traits@D@std@@@std@@$4PPPPPPPM@A@AEPAXI@Z 005c93d0 f i MAP.obj
 0002:000693da       ??_E?$basic_istream@DU?$char_traits@D@std@@@std@@$4PPPPPPPM@A@AEPAXI@Z 005c93da f i MAP.obj
 0002:000693f0       ??_ECRegion@@QAEPAXI@Z     005c93f0 f i MAP.obj
 0002:000694f0       ??_E?$basic_filebuf@DU?$char_traits@D@std@@@std@@UAEPAXI@Z 005c94f0 f i MAP.obj
 0002:000694f0       ??_G?$basic_filebuf@DU?$char_traits@D@std@@@std@@UAEPAXI@Z 005c94f0 f i MAP.obj
 0002:00069560       ??_G?$basic_ifstream@DU?$char_traits@D@std@@@std@@UAEPAXI@Z 005c9560 f i MAP.obj
 0002:00069560       ??_E?$basic_ifstream@DU?$char_traits@D@std@@@std@@UAEPAXI@Z 005c9560 f i MAP.obj
 0002:000695e0       ??_G?$basic_ios@DU?$char_traits@D@std@@@std@@UAEPAXI@Z 005c95e0 f i MAP.obj
 0002:000695e0       ??_E?$basic_ios@DU?$char_traits@D@std@@@std@@UAEPAXI@Z 005c95e0 f i MAP.obj
 0002:00069650       ??_G?$basic_istream@DU?$char_traits@D@std@@@std@@UAEPAXI@Z 005c9650 f i MAP.obj
 0002:00069650       ??_E?$basic_istream@DU?$char_traits@D@std@@@std@@UAEPAXI@Z 005c9650 f i MAP.obj
 0002:000696d0       ??_G?$basic_streambuf@DU?$char_traits@D@std@@@std@@UAEPAXI@Z 005c96d0 f i MAP.obj
 0002:000696d0       ??_E?$basic_streambuf@DU?$char_traits@D@std@@@std@@UAEPAXI@Z 005c96d0 f i MAP.obj
 0002:00069740       ??_G?$codecvt@DDU_Mbstatet@@@std@@MAEPAXI@Z 005c9740 f i MAP.obj
 0002:00069740       ??_E?$codecvt@DDU_Mbstatet@@@std@@MAEPAXI@Z 005c9740 f i MAP.obj
 0002:000697d0       ??_G?$ctype@D@std@@MAEPAXI@Z 005c97d0 f i MAP.obj
 0002:000697d0       ??_E?$ctype@D@std@@MAEPAXI@Z 005c97d0 f i MAP.obj
 0002:00069860       ??_EMAP@@UAEPAXI@Z         005c9860 f i MAP.obj
 0002:00069860       ??_GMAP@@UAEPAXI@Z         005c9860 f i MAP.obj
 0002:000698e0       ??_E_Facet_base@std@@UAEPAXI@Z 005c98e0 f i MAP.obj
 0002:000698e0       ??_G_Facet_base@std@@UAEPAXI@Z 005c98e0 f i MAP.obj
 0002:00069950       ??_G_Generic_error_category@std@@UAEPAXI@Z 005c9950 f i MAP.obj
 0002:00069950       ??_E_Generic_error_category@std@@UAEPAXI@Z 005c9950 f i MAP.obj
 0002:000699c0       ??_G_Iostream_error_category@std@@UAEPAXI@Z 005c99c0 f i MAP.obj
 0002:000699c0       ??_E_Iostream_error_category@std@@UAEPAXI@Z 005c99c0 f i MAP.obj
 0002:00069a30       ??_G_System_error@std@@UAEPAXI@Z 005c9a30 f i MAP.obj
 0002:00069a30       ??_E_System_error@std@@UAEPAXI@Z 005c9a30 f i MAP.obj
 0002:00069aa0       ??_Ebad_cast@std@@UAEPAXI@Z 005c9aa0 f i MAP.obj
 0002:00069aa0       ??_Gbad_cast@std@@UAEPAXI@Z 005c9aa0 f i MAP.obj
 0002:00069b10       ??_Ecodecvt_base@std@@UAEPAXI@Z 005c9b10 f i MAP.obj
 0002:00069b10       ??_Gcodecvt_base@std@@UAEPAXI@Z 005c9b10 f i MAP.obj
 0002:00069ba0       ??_Gctype_base@std@@UAEPAXI@Z 005c9ba0 f i MAP.obj
 0002:00069ba0       ??_Ectype_base@std@@UAEPAXI@Z 005c9ba0 f i MAP.obj
 0002:00069c30       ??_Gerror_category@std@@UAEPAXI@Z 005c9c30 f i MAP.obj
 0002:00069c30       ??_Eerror_category@std@@UAEPAXI@Z 005c9c30 f i MAP.obj
 0002:00069ca0       ??_Gexception@std@@UAEPAXI@Z 005c9ca0 f i MAP.obj
 0002:00069ca0       ??_Eexception@std@@UAEPAXI@Z 005c9ca0 f i MAP.obj
 0002:00069d10       ??_Efacet@locale@std@@MAEPAXI@Z 005c9d10 f i MAP.obj
 0002:00069d10       ??_Gfacet@locale@std@@MAEPAXI@Z 005c9d10 f i MAP.obj
 0002:00069da0       ??_Efailure@ios_base@std@@UAEPAXI@Z 005c9da0 f i MAP.obj
 0002:00069da0       ??_Gfailure@ios_base@std@@UAEPAXI@Z 005c9da0 f i MAP.obj
 0002:00069e10       ??_Gios_base@std@@UAEPAXI@Z 005c9e10 f i MAP.obj
 0002:00069e10       ??_Eios_base@std@@UAEPAXI@Z 005c9e10 f i MAP.obj
 0002:00069e80       ??_Glocale@std@@QAEPAXI@Z  005c9e80 f i MAP.obj
 0002:00069f10       ??_Eruntime_error@std@@UAEPAXI@Z 005c9f10 f i MAP.obj
 0002:00069f10       ??_Gruntime_error@std@@UAEPAXI@Z 005c9f10 f i MAP.obj
 0002:00069f80       ??_Gsystem_error@std@@UAEPAXI@Z 005c9f80 f i MAP.obj
 0002:00069f80       ??_Esystem_error@std@@UAEPAXI@Z 005c9f80 f i MAP.obj
 0002:00069ff0       ?DeleteAllData@?$CSTLMap@H@@QAEXXZ 005c9ff0 f i MAP.obj
 0002:0006a200       ?DeleteAllData@?$CSTLMapOnlyLoad@VCRoomEvent@@@@QAEXXZ 005ca200 f i MAP.obj
 0002:0006a450       ?DeleteData@?$CSTLMap@H@@QAEXI@Z 005ca450 f i MAP.obj
 0002:0006a640       ?GetData@?$CSTLMapOnlyLoad@VCRoomEvent@@@@QAEPAVCRoomEvent@@I@Z 005ca640 f i MAP.obj
 0002:0006a800       ?GetEventIDs@MAP@@QAEPAFXZ 005ca800 f   MAP.obj
 0002:0006a860       ?GetEventIDs@SMDFile@@QAEPAFXZ 005ca860 f i MAP.obj
 0002:0006a8a0       ?GetMapSize@MAP@@QAEHXZ    005ca8a0 f   MAP.obj
 0002:0006a900       ?GetMapSize@SMDFile@@QAEHXZ 005ca900 f i MAP.obj
 0002:0006a950       ?GetRegion@MAP@@QAEPAVCRegion@@GG@Z 005ca950 f   MAP.obj
 0002:0006aa50       ?GetSize@?$CSTLMapOnlyLoad@VCRoomEvent@@@@QAEHXZ 005caa50 f i MAP.obj
 0002:0006ab00       ?GetStatus@CRoomEvent@@QAE?AW4RoomStatus@@XZ 005cab00 f i MAP.obj
 0002:0006ab40       ?GetUnitDistance@MAP@@QAEMXZ 005cab40 f   MAP.obj
 0002:0006aba0       ?GetUnitDistance@SMDFile@@QAEMXZ 005caba0 f i MAP.obj
 0002:0006abe0       ?GetXRegionMax@MAP@@QAEHXZ 005cabe0 f   MAP.obj
 0002:0006ac40       ?GetXRegionMax@SMDFile@@QAEHXZ 005cac40 f i MAP.obj
 0002:0006ac90       ?GetZRegionMax@MAP@@QAEHXZ 005cac90 f   MAP.obj
 0002:0006acf0       ?GetZRegionMax@SMDFile@@QAEHXZ 005cacf0 f i MAP.obj
 0002:0006ad40       ?Initialize@MAP@@QAE_NPAU_ZONE_INFO@@@Z 005cad40 f   MAP.obj
 0002:0006b200       ?InitializeRoom@MAP@@QAEXXZ 005cb200 f   MAP.obj
 0002:0006b3e0       ?IsEmpty@?$CSTLMap@H@@QAE_NXZ 005cb3e0 f i MAP.obj
 0002:0006b490       ?IsExist@?$CSTLMapOnlyLoad@VCRoomEvent@@@@QAE_NI@Z 005cb490 f i MAP.obj
 0002:0006b620       ?IsMovable@MAP@@QAE_NHH@Z  005cb620 f   MAP.obj
 0002:0006b6b0       ?IsRoomCheck@MAP@@QAEHMM@Z 005cb6b0 f   MAP.obj
 0002:0006baa0       ?IsRoomStatusCheck@MAP@@QAE_NXZ 005cbaa0 f   MAP.obj
 0002:0006bdd0       ?LoadRoomEvent@MAP@@QAE_NXZ 005cbdd0 f   MAP.obj
 0002:0006cb50       ?ParseSpace@@YAHPAD0@Z     005ccb50 f i MAP.obj
 0002:0006cca0       ?PtInRect@CRect@@QAE_NHH@Z 005ccca0 f i MAP.obj
 0002:0006cd30       ?PutData@?$CSTLMap@H@@QAE_NIPAH@Z 005ccd30 f i MAP.obj
 0002:0006ce80       ?PutData@?$CSTLMapOnlyLoad@VCRoomEvent@@@@QAE_NIPAVCRoomEvent@@@Z 005cce80 f i MAP.obj
 0002:0006cfd0       ?RegionNpcAdd@MAP@@QAEXHHH@Z 005ccfd0 f   MAP.obj
 0002:0006d170       ?RegionNpcRemove@MAP@@QAE_NHHH@Z 005cd170 f   MAP.obj
 0002:0006d2c0       ?RegionUserAdd@MAP@@QAEXHHH@Z 005cd2c0 f   MAP.obj
 0002:0006d4b0       ?RegionUserRemove@MAP@@QAE_NHHH@Z 005cd4b0 f   MAP.obj
 0002:0006d660       ?RemoveMapData@MAP@@QAEXXZ 005cd660 f   MAP.obj
 0002:0006d7c0       ?SetRoomEvent@MAP@@QAEPAVCRoomEvent@@H@Z 005cd7c0 f   MAP.obj
 0002:0006d9a0       ?_Alloc_proxy@?$_Tree_comp_alloc@V?$_Tmap_traits@IPAHU?$less@I@std@@V?$allocator@U?$pair@$$CBIPAH@std@@@2@$0A@@std@@@std@@QAEXXZ 005cd9a0 f i MAP.obj
 0002:0006dac0       ?_Alloc_proxy@?$_Tree_comp_alloc@V?$_Tmap_traits@IPAVCRoomEvent@@U?$less@I@std@@V?$allocator@U?$pair@$$CBIPAVCRoomEvent@@@std@@@3@$0A@@std@@@std@@QAEXXZ 005cdac0 f i MAP.obj
 0002:0006dbe0       ?_Assign_rv_contents_with_alloc_always_equal@?$basic_string@DU?$char_traits@D@std@@V?$allocator@D@2@@std@@QAEX$$QAV12@U?$integral_constant@_N$00@2@@Z 005cdbe0 f i MAP.obj
 0002:0006dcc0       ?_Buyheadnode@?$_Tree_comp_alloc@V?$_Tmap_traits@IPAHU?$less@I@std@@V?$allocator@U?$pair@$$CBIPAH@std@@@2@$0A@@std@@@std@@QAEPAU?$_Tree_node@U?$pair@$$CBIPAH@std@@PAX@2@XZ 005cdcc0 f i MAP.obj
 0002:0006de70       ?_Buyheadnode@?$_Tree_comp_alloc@V?$_Tmap_traits@IPAVCRoomEvent@@U?$less@I@std@@V?$allocator@U?$pair@$$CBIPAVCRoomEvent@@@std@@@3@$0A@@std@@@std@@QAEPAU?$_Tree_node@U?$pair@$$CBIPAVCRoomEvent@@@std@@PAX@2@XZ 005cde70 f i MAP.obj
 0002:0006e020       ?_Buynode0@?$_Tree_comp_alloc@V?$_Tmap_traits@IPAHU?$less@I@std@@V?$allocator@U?$pair@$$CBIPAH@std@@@2@$0A@@std@@@std@@QAEPAU?$_Tree_node@U?$pair@$$CBIPAH@std@@PAX@2@XZ 005ce020 f i MAP.obj
 0002:0006e190       ?_Buynode0@?$_Tree_comp_alloc@V?$_Tmap_traits@IPAVCRoomEvent@@U?$less@I@std@@V?$allocator@U?$pair@$$CBIPAVCRoomEvent@@@std@@@3@$0A@@std@@@std@@QAEPAU?$_Tree_node@U?$pair@$$CBIPAVCRoomEvent@@@std@@PAX@2@XZ 005ce190 f i MAP.obj
 0002:0006e300       ?_Check_offset@?$_String_val@U?$_Simple_types@D@std@@@std@@QBEXI@Z 005ce300 f i MAP.obj
 0002:0006e360       ?_Clamp_suffix_size@?$_String_val@U?$_Simple_types@D@std@@@std@@QBEIII@Z 005ce360 f i MAP.obj
 0002:0006e3e0       ?_Compare@?$_Tree@V?$_Tmap_traits@IPAHU?$less@I@std@@V?$allocator@U?$pair@$$CBIPAH@std@@@2@$0A@@std@@@std@@IBE_NABI0@Z 005ce3e0 f i MAP.obj
 0002:0006e460       ?_Compare@?$_Tree@V?$_Tmap_traits@IPAVCRoomEvent@@U?$less@I@std@@V?$allocator@U?$pair@$$CBIPAVCRoomEvent@@@std@@@3@$0A@@std@@@std@@IBE_NABI0@Z 005ce460 f i MAP.obj
 0002:0006e4e0       ?_Construct@?$_Tree_comp_alloc@V?$_Tmap_traits@IPAHU?$less@I@std@@V?$allocator@U?$pair@$$CBIPAH@std@@@2@$0A@@std@@@std@@QAEXXZ 005ce4e0 f i MAP.obj
 0002:0006e5d0       ?_Construct@?$_Tree_comp_alloc@V?$_Tmap_traits@IPAVCRoomEvent@@U?$less@I@std@@V?$allocator@U?$pair@$$CBIPAVCRoomEvent@@@std@@@3@$0A@@std@@@std@@QAEXXZ 005ce5d0 f i MAP.obj
 0002:0006e6c0       ?_Decref@facet@locale@std@@UAEPAV_Facet_base@3@XZ 005ce6c0 f i MAP.obj
 0002:0006e720       ?_Destroy_if_not_nil@?$_Tree@V?$_Tmap_traits@IPAHU?$less@I@std@@V?$allocator@U?$pair@$$CBIPAH@std@@@2@$0A@@std@@@std@@IAEXPAU?$_Tree_node@U?$pair@$$CBIPAH@std@@PAX@2@@Z 005ce720 f i MAP.obj
 0002:0006e7b0       ?_Destroy_if_not_nil@?$_Tree@V?$_Tmap_traits@IPAVCRoomEvent@@U?$less@I@std@@V?$allocator@U?$pair@$$CBIPAVCRoomEvent@@@std@@@3@$0A@@std@@@std@@IAEXPAU?$_Tree_node@U?$pair@$$CBIPAVCRoomEvent@@@std@@PAX@2@@Z 005ce7b0 f i MAP.obj
 0002:0006e840       ?_Endwrite@?$basic_filebuf@DU?$char_traits@D@std@@@std@@IAE_NXZ 005ce840 f i MAP.obj
 0002:0006ed00       ?_Erase@?$_Tree@V?$_Tmap_traits@IPAHU?$less@I@std@@V?$allocator@U?$pair@$$CBIPAH@std@@@2@$0A@@std@@@std@@IAEXPAU?$_Tree_node@U?$pair@$$CBIPAH@std@@PAX@2@@Z 005ced00 f i MAP.obj
 0002:0006edd0       ?_Erase@?$_Tree@V?$_Tmap_traits@IPAVCRoomEvent@@U?$less@I@std@@V?$allocator@U?$pair@$$CBIPAVCRoomEvent@@@std@@@3@$0A@@std@@@std@@IAEXPAU?$_Tree_node@U?$pair@$$CBIPAVCRoomEvent@@@std@@PAX@2@@Z 005cedd0 f i MAP.obj
 0002:0006eea0       ?_Free_proxy@?$_Tree_comp_alloc@V?$_Tmap_traits@IPAHU?$less@I@std@@V?$allocator@U?$pair@$$CBIPAH@std@@@2@$0A@@std@@@std@@QAEXXZ 005ceea0 f i MAP.obj
 0002:0006efa0       ?_Free_proxy@?$_Tree_comp_alloc@V?$_Tmap_traits@IPAVCRoomEvent@@U?$less@I@std@@V?$allocator@U?$pair@$$CBIPAVCRoomEvent@@@std@@@3@$0A@@std@@@std@@QAEXXZ 005cefa0 f i MAP.obj
 0002:0006f0a0       ?_Freeheadnode@?$_Tree_comp_alloc@V?$_Tmap_traits@IPAHU?$less@I@std@@V?$allocator@U?$pair@$$CBIPAH@std@@@2@$0A@@std@@@std@@QAEXPAU?$_Tree_node@U?$pair@$$CBIPAH@std@@PAX@2@@Z 005cf0a0 f i MAP.obj
 0002:0006f170       ?_Freeheadnode@?$_Tree_comp_alloc@V?$_Tmap_traits@IPAVCRoomEvent@@U?$less@I@std@@V?$allocator@U?$pair@$$CBIPAVCRoomEvent@@@std@@@3@$0A@@std@@@std@@QAEXPAU?$_Tree_node@U?$pair@$$CBIPAVCRoomEvent@@@std@@PAX@2@@Z 005cf170 f i MAP.obj
 0002:0006f240       ?_Freenode0@?$_Tree_comp_alloc@V?$_Tmap_traits@IPAHU?$less@I@std@@V?$allocator@U?$pair@$$CBIPAH@std@@@2@$0A@@std@@@std@@QAEXPAU?$_Tree_node@U?$pair@$$CBIPAH@std@@PAX@2@@Z 005cf240 f i MAP.obj
 0002:0006f310       ?_Freenode0@?$_Tree_comp_alloc@V?$_Tmap_traits@IPAVCRoomEvent@@U?$less@I@std@@V?$allocator@U?$pair@$$CBIPAVCRoomEvent@@@std@@@3@$0A@@std@@@std@@QAEXPAU?$_Tree_node@U?$pair@$$CBIPAVCRoomEvent@@@std@@PAX@2@@Z 005cf310 f i MAP.obj
 0002:0006f3e0       ?_Get_data@?$_Tree_comp_alloc@V?$_Tmap_traits@IPAHU?$less@I@std@@V?$allocator@U?$pair@$$CBIPAH@std@@@2@$0A@@std@@@std@@QAEAAV?$_Tree_val@U?$_Tree_simple_types@U?$pair@$$CBIPAH@std@@@std@@@2@XZ 005cf3e0 f i MAP.obj
 0002:0006f440       ?_Get_data@?$_Tree_comp_alloc@V?$_Tmap_traits@IPAHU?$less@I@std@@V?$allocator@U?$pair@$$CBIPAH@std@@@2@$0A@@std@@@std@@QBEABV?$_Tree_val@U?$_Tree_simple_types@U?$pair@$$CBIPAH@std@@@std@@@2@XZ 005cf440 f i MAP.obj
 0002:0006f4a0       ?_Get_data@?$_Tree_comp_alloc@V?$_Tmap_traits@IPAU_OBJECT_EVENT@@U?$less@I@std@@V?$allocator@U?$pair@$$CBIPAU_OBJECT_EVENT@@@std@@@3@$0A@@std@@@std@@QAEAAV?$_Tree_val@U?$_Tree_simple_types@U?$pair@$$CBIPAU_OBJECT_EVENT@@@std@@@std@@@2@XZ 005cf4a0 f i MAP.obj
 0002:0006f500       ?_Get_data@?$_Tree_comp_alloc@V?$_Tmap_traits@IPAU_OBJECT_EVENT@@U?$less@I@std@@V?$allocator@U?$pair@$$CBIPAU_OBJECT_EVENT@@@std@@@3@$0A@@std@@@std@@QBEABV?$_Tree_val@U?$_Tree_simple_types@U?$pair@$$CBIPAU_OBJECT_EVENT@@@std@@@std@@@2@XZ 005cf500 f i MAP.obj
 0002:0006f560       ?_Get_data@?$_Tree_comp_alloc@V?$_Tmap_traits@IPAVCRoomEvent@@U?$less@I@std@@V?$allocator@U?$pair@$$CBIPAVCRoomEvent@@@std@@@3@$0A@@std@@@std@@QAEAAV?$_Tree_val@U?$_Tree_simple_types@U?$pair@$$CBIPAVCRoomEvent@@@std@@@std@@@2@XZ 005cf560 f i MAP.obj
 0002:0006f5c0       ?_Get_data@?$_Tree_comp_alloc@V?$_Tmap_traits@IPAVCRoomEvent@@U?$less@I@std@@V?$allocator@U?$pair@$$CBIPAVCRoomEvent@@@std@@@3@$0A@@std@@@std@@QBEABV?$_Tree_val@U?$_Tree_simple_types@U?$pair@$$CBIPAVCRoomEvent@@@std@@@std@@@2@XZ 005cf5c0 f i MAP.obj
 0002:0006f620       ?_Get_first@?$_Compressed_pair@U?$less@I@std@@V?$_Compressed_pair@V?$allocator@U?$_Tree_node@U?$pair@$$CBIPAH@std@@PAX@std@@@std@@V?$_Tree_val@U?$_Tree_simple_types@U?$pair@$$CBIPAH@std@@@std@@@2@$00@2@$00@std@@QAEAAU?$less@I@2@XZ 005cf620 f i MAP.obj
 0002:0006f660       ?_Get_first@?$_Compressed_pair@U?$less@I@std@@V?$_Compressed_pair@V?$allocator@U?$_Tree_node@U?$pair@$$CBIPAH@std@@PAX@std@@@std@@V?$_Tree_val@U?$_Tree_simple_types@U?$pair@$$CBIPAH@std@@@std@@@2@$00@2@$00@std@@QBEABU?$less@I@2@XZ 005cf660 f i MAP.obj
 0002:0006f6a0       ?_Get_first@?$_Compressed_pair@U?$less@I@std@@V?$_Compressed_pair@V?$allocator@U?$_Tree_node@U?$pair@$$CBIPAVCRoomEvent@@@std@@PAX@std@@@std@@V?$_Tree_val@U?$_Tree_simple_types@U?$pair@$$CBIPAVCRoomEvent@@@std@@@std@@@2@$00@2@$00@std@@QAEAAU?$less@I@2@XZ 005cf6a0 f i MAP.obj
 0002:0006f6e0       ?_Get_first@?$_Compressed_pair@U?$less@I@std@@V?$_Compressed_pair@V?$allocator@U?$_Tree_node@U?$pair@$$CBIPAVCRoomEvent@@@std@@PAX@std@@@std@@V?$_Tree_val@U?$_Tree_simple_types@U?$pair@$$CBIPAVCRoomEvent@@@std@@@std@@@2@$00@2@$00@std@@QBEABU?$less@I@2@XZ 005cf6e0 f i MAP.obj
 0002:0006f720       ?_Get_first@?$_Compressed_pair@V?$allocator@U?$_Tree_node@U?$pair@$$CBIPAH@std@@PAX@std@@@std@@V?$_Tree_val@U?$_Tree_simple_types@U?$pair@$$CBIPAH@std@@@std@@@2@$00@std@@QAEAAV?$allocator@U?$_Tree_node@U?$pair@$$CBIPAH@std@@PAX@std@@@2@XZ 005cf720 f i MAP.obj
 0002:0006f760       ?_Get_first@?$_Compressed_pair@V?$allocator@U?$_Tree_node@U?$pair@$$CBIPAH@std@@PAX@std@@@std@@V?$_Tree_val@U?$_Tree_simple_types@U?$pair@$$CBIPAH@std@@@std@@@2@$00@std@@QBEABV?$allocator@U?$_Tree_node@U?$pair@$$CBIPAH@std@@PAX@std@@@2@XZ 005cf760 f i MAP.obj
 0002:0006f7a0       ?_Get_first@?$_Compressed_pair@V?$allocator@U?$_Tree_node@U?$pair@$$CBIPAVCRoomEvent@@@std@@PAX@std@@@std@@V?$_Tree_val@U?$_Tree_simple_types@U?$pair@$$CBIPAVCRoomEvent@@@std@@@std@@@2@$00@std@@QAEAAV?$allocator@U?$_Tree_node@U?$pair@$$CBIPAVCRoomEvent@@@std@@PAX@std@@@2@XZ 005cf7a0 f i MAP.obj
 0002:0006f7e0       ?_Get_first@?$_Compressed_pair@V?$allocator@U?$_Tree_node@U?$pair@$$CBIPAVCRoomEvent@@@std@@PAX@std@@@std@@V?$_Tree_val@U?$_Tree_simple_types@U?$pair@$$CBIPAVCRoomEvent@@@std@@@std@@@2@$00@std@@QBEABV?$allocator@U?$_Tree_node@U?$pair@$$CBIPAVCRoomEvent@@@std@@PAX@std@@@2@XZ 005cf7e0 f i MAP.obj
 0002:0006f820       ?_Get_second@?$_Compressed_pair@U?$less@I@std@@V?$_Compressed_pair@V?$allocator@U?$_Tree_node@U?$pair@$$CBIPAH@std@@PAX@std@@@std@@V?$_Tree_val@U?$_Tree_simple_types@U?$pair@$$CBIPAH@std@@@std@@@2@$00@2@$00@std@@QAEAAV?$_Compressed_pair@V?$allocator@U?$_Tree_node@U?$pair@$$CBIPAH@std@@PAX@std@@@std@@V?$_Tree_val@U?$_Tree_simple_types@U?$pair@$$CBIPAH@std@@@std@@@2@$00@2@XZ 005cf820 f i MAP.obj
 0002:0006f860       ?_Get_second@?$_Compressed_pair@U?$less@I@std@@V?$_Compressed_pair@V?$allocator@U?$_Tree_node@U?$pair@$$CBIPAH@std@@PAX@std@@@std@@V?$_Tree_val@U?$_Tree_simple_types@U?$pair@$$CBIPAH@std@@@std@@@2@$00@2@$00@std@@QBEABV?$_Compressed_pair@V?$allocator@U?$_Tree_node@U?$pair@$$CBIPAH@std@@PAX@std@@@std@@V?$_Tree_val@U?$_Tree_simple_types@U?$pair@$$CBIPAH@std@@@std@@@2@$00@2@XZ 005cf860 f i MAP.obj
 0002:0006f8a0       ?_Get_second@?$_Compressed_pair@U?$less@I@std@@V?$_Compressed_pair@V?$allocator@U?$_Tree_node@U?$pair@$$CBIPAU_OBJECT_EVENT@@@std@@PAX@std@@@std@@V?$_Tree_val@U?$_Tree_simple_types@U?$pair@$$CBIPAU_OBJECT_EVENT@@@std@@@std@@@2@$00@2@$00@std@@QAEAAV?$_Compressed_pair@V?$allocator@U?$_Tree_node@U?$pair@$$CBIPAU_OBJECT_EVENT@@@std@@PAX@std@@@std@@V?$_Tree_val@U?$_Tree_simple_types@U?$pair@$$CBIPAU_OBJECT_EVENT@@@std@@@std@@@2@$00@2@XZ 005cf8a0 f i MAP.obj
 0002:0006f8e0       ?_Get_second@?$_Compressed_pair@U?$less@I@std@@V?$_Compressed_pair@V?$allocator@U?$_Tree_node@U?$pair@$$CBIPAU_OBJECT_EVENT@@@std@@PAX@std@@@std@@V?$_Tree_val@U?$_Tree_simple_types@U?$pair@$$CBIPAU_OBJECT_EVENT@@@std@@@std@@@2@$00@2@$00@std@@QBEABV?$_Compressed_pair@V?$allocator@U?$_Tree_node@U?$pair@$$CBIPAU_OBJECT_EVENT@@@std@@PAX@std@@@std@@V?$_Tree_val@U?$_Tree_simple_types@U?$pair@$$CBIPAU_OBJECT_EVENT@@@std@@@std@@@2@$00@2@XZ 005cf8e0 f i MAP.obj
 0002:0006f920       ?_Get_second@?$_Compressed_pair@U?$less@I@std@@V?$_Compressed_pair@V?$allocator@U?$_Tree_node@U?$pair@$$CBIPAVCRoomEvent@@@std@@PAX@std@@@std@@V?$_Tree_val@U?$_Tree_simple_types@U?$pair@$$CBIPAVCRoomEvent@@@std@@@std@@@2@$00@2@$00@std@@QAEAAV?$_Compressed_pair@V?$allocator@U?$_Tree_node@U?$pair@$$CBIPAVCRoomEvent@@@std@@PAX@std@@@std@@V?$_Tree_val@U?$_Tree_simple_types@U?$pair@$$CBIPAVCRoomEvent@@@std@@@std@@@2@$00@2@XZ 005cf920 f i MAP.obj
 0002:0006f960       ?_Get_second@?$_Compressed_pair@U?$less@I@std@@V?$_Compressed_pair@V?$allocator@U?$_Tree_node@U?$pair@$$CBIPAVCRoomEvent@@@std@@PAX@std@@@std@@V?$_Tree_val@U?$_Tree_simple_types@U?$pair@$$CBIPAVCRoomEvent@@@std@@@std@@@2@$00@2@$00@std@@QBEABV?$_Compressed_pair@V?$allocator@U?$_Tree_node@U?$pair@$$CBIPAVCRoomEvent@@@std@@PAX@std@@@std@@V?$_Tree_val@U?$_Tree_simple_types@U?$pair@$$CBIPAVCRoomEvent@@@std@@@std@@@2@$00@2@XZ 005cf960 f i MAP.obj
 0002:0006f9a0       ?_Get_second@?$_Compressed_pair@V?$allocator@U?$_Tree_node@U?$pair@$$CBIPAH@std@@PAX@std@@@std@@V?$_Tree_val@U?$_Tree_simple_types@U?$pair@$$CBIPAH@std@@@std@@@2@$00@std@@QAEAAV?$_Tree_val@U?$_Tree_simple_types@U?$pair@$$CBIPAH@std@@@std@@@2@XZ 005cf9a0 f i MAP.obj
 0002:0006f9e0       ?_Get_second@?$_Compressed_pair@V?$allocator@U?$_Tree_node@U?$pair@$$CBIPAH@std@@PAX@std@@@std@@V?$_Tree_val@U?$_Tree_simple_types@U?$pair@$$CBIPAH@std@@@std@@@2@$00@std@@QBEABV?$_Tree_val@U?$_Tree_simple_types@U?$pair@$$CBIPAH@std@@@std@@@2@XZ 005cf9e0 f i MAP.obj
 0002:0006fa20       ?_Get_second@?$_Compressed_pair@V?$allocator@U?$_Tree_node@U?$pair@$$CBIPAU_OBJECT_EVENT@@@std@@PAX@std@@@std@@V?$_Tree_val@U?$_Tree_simple_types@U?$pair@$$CBIPAU_OBJECT_EVENT@@@std@@@std@@@2@$00@std@@QAEAAV?$_Tree_val@U?$_Tree_simple_types@U?$pair@$$CBIPAU_OBJECT_EVENT@@@std@@@std@@@2@XZ 005cfa20 f i MAP.obj
 0002:0006fa60       ?_Get_second@?$_Compressed_pair@V?$allocator@U?$_Tree_node@U?$pair@$$CBIPAU_OBJECT_EVENT@@@std@@PAX@std@@@std@@V?$_Tree_val@U?$_Tree_simple_types@U?$pair@$$CBIPAU_OBJECT_EVENT@@@std@@@std@@@2@$00@std@@QBEABV?$_Tree_val@U?$_Tree_simple_types@U?$pair@$$CBIPAU_OBJECT_EVENT@@@std@@@std@@@2@XZ 005cfa60 f i MAP.obj
 0002:0006faa0       ?_Get_second@?$_Compressed_pair@V?$allocator@U?$_Tree_node@U?$pair@$$CBIPAVCRoomEvent@@@std@@PAX@std@@@std@@V?$_Tree_val@U?$_Tree_simple_types@U?$pair@$$CBIPAVCRoomEvent@@@std@@@std@@@2@$00@std@@QAEAAV?$_Tree_val@U?$_Tree_simple_types@U?$pair@$$CBIPAVCRoomEvent@@@std@@@std@@@2@XZ 005cfaa0 f i MAP.obj
 0002:0006fae0       ?_Get_second@?$_Compressed_pair@V?$allocator@U?$_Tree_node@U?$pair@$$CBIPAVCRoomEvent@@@std@@PAX@std@@@std@@V?$_Tree_val@U?$_Tree_simple_types@U?$pair@$$CBIPAVCRoomEvent@@@std@@@std@@@2@$00@std@@QBEABV?$_Tree_val@U?$_Tree_simple_types@U?$pair@$$CBIPAVCRoomEvent@@@std@@@std@@@2@XZ 005cfae0 f i MAP.obj
 0002:0006fb20       ?_Getal@?$_Tree_comp_alloc@V?$_Tmap_traits@IPAHU?$less@I@std@@V?$allocator@U?$pair@$$CBIPAH@std@@@2@$0A@@std@@@std@@QAEAAV?$allocator@U?$_Tree_node@U?$pair@$$CBIPAH@std@@PAX@std@@@2@XZ 005cfb20 f i MAP.obj
 0002:0006fb80       ?_Getal@?$_Tree_comp_alloc@V?$_Tmap_traits@IPAHU?$less@I@std@@V?$allocator@U?$pair@$$CBIPAH@std@@@2@$0A@@std@@@std@@QBEABV?$allocator@U?$_Tree_node@U?$pair@$$CBIPAH@std@@PAX@std@@@2@XZ 005cfb80 f i MAP.obj
 0002:0006fbe0       ?_Getal@?$_Tree_comp_alloc@V?$_Tmap_traits@IPAVCRoomEvent@@U?$less@I@std@@V?$allocator@U?$pair@$$CBIPAVCRoomEvent@@@std@@@3@$0A@@std@@@std@@QAEAAV?$allocator@U?$_Tree_node@U?$pair@$$CBIPAVCRoomEvent@@@std@@PAX@std@@@2@XZ 005cfbe0 f i MAP.obj
 0002:0006fc40       ?_Getal@?$_Tree_comp_alloc@V?$_Tmap_traits@IPAVCRoomEvent@@U?$less@I@std@@V?$allocator@U?$pair@$$CBIPAVCRoomEvent@@@std@@@3@$0A@@std@@@std@@QBEABV?$allocator@U?$_Tree_node@U?$pair@$$CBIPAVCRoomEvent@@@std@@PAX@std@@@2@XZ 005cfc40 f i MAP.obj
 0002:0006fca0       ?_Getcat@?$codecvt@DDU_Mbstatet@@@std@@SAIPAPBVfacet@locale@2@PBV42@@Z 005cfca0 f i MAP.obj
 0002:0006fe40       ?_Getcat@?$ctype@D@std@@SAIPAPBVfacet@locale@2@PBV42@@Z 005cfe40 f i MAP.obj
 0002:0006ffe0       ?_Getcomp@?$_Tree_comp_alloc@V?$_Tmap_traits@IPAHU?$less@I@std@@V?$allocator@U?$pair@$$CBIPAH@std@@@2@$0A@@std@@@std@@QAEAAU?$less@I@2@XZ 005cffe0 f i MAP.obj
 0002:00070030       ?_Getcomp@?$_Tree_comp_alloc@V?$_Tmap_traits@IPAHU?$less@I@std@@V?$allocator@U?$pair@$$CBIPAH@std@@@2@$0A@@std@@@std@@QBEABU?$less@I@2@XZ 005d0030 f i MAP.obj
 0002:00070080       ?_Getcomp@?$_Tree_comp_alloc@V?$_Tmap_traits@IPAVCRoomEvent@@U?$less@I@std@@V?$allocator@U?$pair@$$CBIPAVCRoomEvent@@@std@@@3@$0A@@std@@@std@@QAEAAU?$less@I@2@XZ 005d0080 f i MAP.obj
 0002:000700d0       ?_Getcomp@?$_Tree_comp_alloc@V?$_Tmap_traits@IPAVCRoomEvent@@U?$less@I@std@@V?$allocator@U?$pair@$$CBIPAVCRoomEvent@@@std@@@3@$0A@@std@@@std@@QBEABU?$less@I@2@XZ 005d00d0 f i MAP.obj
 0002:00070120       ?_Getctype@_Locinfo@std@@QBE?AU_Ctypevec@@XZ 005d0120 f i MAP.obj
 0002:000701e0       ?_Getfacet@locale@std@@QBEPBVfacet@12@I@Z 005d01e0 f i MAP.obj
 0002:000702e0       ?_Getpfirst@?$_Tree_comp_alloc@V?$_Tmap_traits@IPAHU?$less@I@std@@V?$allocator@U?$pair@$$CBIPAH@std@@@2@$0A@@std@@@std@@QBEPAPAU_Iterator_base12@2@XZ 005d02e0 f i MAP.obj
 0002:00070340       ?_Getpfirst@?$_Tree_comp_alloc@V?$_Tmap_traits@IPAVCRoomEvent@@U?$less@I@std@@V?$allocator@U?$pair@$$CBIPAVCRoomEvent@@@std@@@3@$0A@@std@@@std@@QBEPAPAU_Iterator_base12@2@XZ 005d0340 f i MAP.obj
 0002:000703a0       ?_Gnavail@?$basic_streambuf@DU?$char_traits@D@std@@@std@@IBE_JXZ 005d03a0 f i MAP.obj
 0002:00070410       ?_Gndec@?$basic_streambuf@DU?$char_traits@D@std@@@std@@IAEPADXZ 005d0410 f i MAP.obj
 0002:00070490       ?_Gninc@?$basic_streambuf@DU?$char_traits@D@std@@@std@@IAEPADXZ 005d0490 f i MAP.obj
 0002:00070510       ?_Gnpreinc@?$basic_streambuf@DU?$char_traits@D@std@@@std@@IAEPADXZ 005d0510 f i MAP.obj
 0002:00070590       ?_Incref@facet@locale@std@@UAEXXZ 005d0590 f i MAP.obj
 0002:000705d0       ?_Init@?$basic_filebuf@DU?$char_traits@D@std@@@std@@IAEXPAU_iobuf@@W4_Initfl@12@@Z 005d05d0 f i MAP.obj
 0002:00070770       ?_Init@?$basic_streambuf@DU?$char_traits@D@std@@@std@@IAEXPAPAD0PAH001@Z 005d0770 f i MAP.obj
 0002:000707f0       ?_Init@?$basic_streambuf@DU?$char_traits@D@std@@@std@@IAEXXZ 005d07f0 f i MAP.obj
 0002:000708b0       ?_Init@?$codecvt@DDU_Mbstatet@@@std@@IAEXABV_Locinfo@2@@Z 005d08b0 f i MAP.obj
 0002:000708f0       ?_Init@?$ctype@D@std@@IAEXABV_Locinfo@2@@Z 005d08f0 f i MAP.obj
 0002:00070970       ?_Init@ios_base@std@@IAEXXZ 005d0970 f i MAP.obj
 0002:00070a90       ?_Initcvt@?$basic_filebuf@DU?$char_traits@D@std@@@std@@IAEXPBV?$codecvt@DDU_Mbstatet@@@2@@Z 005d0a90 f i MAP.obj
 0002:00070b10       ?_Ipfx@?$basic_istream@DU?$char_traits@D@std@@@std@@QAE_N_N@Z 005d0b10 f i MAP.obj
 0002:00070e50       ?_Key@?$_Tree@V?$_Tmap_traits@IPAHU?$less@I@std@@V?$allocator@U?$pair@$$CBIPAH@std@@@2@$0A@@std@@@std@@IBEABIPAU?$_Tree_node@U?$pair@$$CBIPAH@std@@PAX@2@@Z 005d0e50 f i MAP.obj
 0002:00070eb0       ?_Key@?$_Tree@V?$_Tmap_traits@IPAVCRoomEvent@@U?$less@I@std@@V?$allocator@U?$pair@$$CBIPAVCRoomEvent@@@std@@@3@$0A@@std@@@std@@IBEABIPAU?$_Tree_node@U?$pair@$$CBIPAVCRoomEvent@@@std@@PAX@2@@Z 005d0eb0 f i MAP.obj
 0002:00070f10       ?_Kfn@?$_Tree@V?$_Tmap_traits@IPAHU?$less@I@std@@V?$allocator@U?$pair@$$CBIPAH@std@@@2@$0A@@std@@@std@@IBEABIABU?$pair@$$CBIPAH@2@@Z 005d0f10 f i MAP.obj
 0002:00070f70       ?_Kfn@?$_Tree@V?$_Tmap_traits@IPAVCRoomEvent@@U?$less@I@std@@V?$allocator@U?$pair@$$CBIPAVCRoomEvent@@@std@@@3@$0A@@std@@@std@@IBEABIABU?$pair@$$CBIPAVCRoomEvent@@@2@@Z 005d0f70 f i MAP.obj
 0002:00070fd0       ?_Lmost@?$_Tree@V?$_Tmap_traits@IPAHU?$less@I@std@@V?$allocator@U?$pair@$$CBIPAH@std@@@2@$0A@@std@@@std@@IBEAAPAU?$_Tree_node@U?$pair@$$CBIPAH@std@@PAX@2@XZ 005d0fd0 f i MAP.obj
 0002:00071030       ?_Lmost@?$_Tree@V?$_Tmap_traits@IPAU_OBJECT_EVENT@@U?$less@I@std@@V?$allocator@U?$pair@$$CBIPAU_OBJECT_EVENT@@@std@@@3@$0A@@std@@@std@@IBEAAPAU?$_Tree_node@U?$pair@$$CBIPAU_OBJECT_EVENT@@@std@@PAX@2@XZ 005d1030 f i MAP.obj
 0002:00071090       ?_Lmost@?$_Tree@V?$_Tmap_traits@IPAVCRoomEvent@@U?$less@I@std@@V?$allocator@U?$pair@$$CBIPAVCRoomEvent@@@std@@@3@$0A@@std@@@std@@IBEAAPAU?$_Tree_node@U?$pair@$$CBIPAVCRoomEvent@@@std@@PAX@2@XZ 005d1090 f i MAP.obj
 0002:000710f0       ?_Lock@?$basic_filebuf@DU?$char_traits@D@std@@@std@@UAEXXZ 005d10f0 f i MAP.obj
 0002:00071160       ?_Lock@?$basic_streambuf@DU?$char_traits@D@std@@@std@@UAEXXZ 005d1160 f i MAP.obj
 0002:000711a0       ?_Lrotate@?$_Tree@V?$_Tmap_traits@IPAHU?$less@I@std@@V?$allocator@U?$pair@$$CBIPAH@std@@@2@$0A@@std@@@std@@IAEXPAU?$_Tree_node@U?$pair@$$CBIPAH@std@@PAX@2@@Z 005d11a0 f i MAP.obj
 0002:000712a0       ?_Lrotate@?$_Tree@V?$_Tmap_traits@IPAVCRoomEvent@@U?$less@I@std@@V?$allocator@U?$pair@$$CBIPAVCRoomEvent@@@std@@@3@$0A@@std@@@std@@IAEXPAU?$_Tree_node@U?$pair@$$CBIPAVCRoomEvent@@@std@@PAX@2@@Z 005d12a0 f i MAP.obj
 0002:000713a0       ?_Makestr@_System_error@std@@CA?AV?$basic_string@DU?$char_traits@D@std@@V?$allocator@D@2@@2@Verror_code@2@V32@@Z 005d13a0 f i MAP.obj
 0002:000714f0       ?_Max@?$_Tree_comp_alloc@V?$_Tmap_traits@IPAHU?$less@I@std@@V?$allocator@U?$pair@$$CBIPAH@std@@@2@$0A@@std@@@std@@SAPAU?$_Tree_node@U?$pair@$$CBIPAH@std@@PAX@2@PAU32@@Z 005d14f0 f i MAP.obj
 0002:00071540       ?_Max@?$_Tree_comp_alloc@V?$_Tmap_traits@IPAVCRoomEvent@@U?$less@I@std@@V?$allocator@U?$pair@$$CBIPAVCRoomEvent@@@std@@@3@$0A@@std@@@std@@SAPAU?$_Tree_node@U?$pair@$$CBIPAVCRoomEvent@@@std@@PAX@2@PAU32@@Z 005d1540 f i MAP.obj
 0002:00071590       ?_Max@?$_Tree_val@U?$_Tree_simple_types@U?$pair@$$CBIPAH@std@@@std@@@std@@SAPAU?$_Tree_node@U?$pair@$$CBIPAH@std@@PAX@2@PAU32@@Z 005d1590 f i MAP.obj
 0002:000715f0       ?_Max@?$_Tree_val@U?$_Tree_simple_types@U?$pair@$$CBIPAVCRoomEvent@@@std@@@std@@@std@@SAPAU?$_Tree_node@U?$pair@$$CBIPAVCRoomEvent@@@std@@PAX@2@PAU32@@Z 005d15f0 f i MAP.obj
 0002:00071650       ?_Min@?$_Tree_comp_alloc@V?$_Tmap_traits@IPAHU?$less@I@std@@V?$allocator@U?$pair@$$CBIPAH@std@@@2@$0A@@std@@@std@@SAPAU?$_Tree_node@U?$pair@$$CBIPAH@std@@PAX@2@PAU32@@Z 005d1650 f i MAP.obj
 0002:000716a0       ?_Min@?$_Tree_comp_alloc@V?$_Tmap_traits@IPAVCRoomEvent@@U?$less@I@std@@V?$allocator@U?$pair@$$CBIPAVCRoomEvent@@@std@@@3@$0A@@std@@@std@@SAPAU?$_Tree_node@U?$pair@$$CBIPAVCRoomEvent@@@std@@PAX@2@PAU32@@Z 005d16a0 f i MAP.obj
 0002:000716f0       ?_Min@?$_Tree_val@U?$_Tree_simple_types@U?$pair@$$CBIPAH@std@@@std@@@std@@SAPAU?$_Tree_node@U?$pair@$$CBIPAH@std@@PAX@2@PAU32@@Z 005d16f0 f i MAP.obj
 0002:00071740       ?_Min@?$_Tree_val@U?$_Tree_simple_types@U?$pair@$$CBIPAU_OBJECT_EVENT@@@std@@@std@@@std@@SAPAU?$_Tree_node@U?$pair@$$CBIPAU_OBJECT_EVENT@@@std@@PAX@2@PAU32@@Z 005d1740 f i MAP.obj
 0002:00071790       ?_Min@?$_Tree_val@U?$_Tree_simple_types@U?$pair@$$CBIPAVCRoomEvent@@@std@@@std@@@std@@SAPAU?$_Tree_node@U?$pair@$$CBIPAVCRoomEvent@@@std@@PAX@2@PAU32@@Z 005d1790 f i MAP.obj
 0002:000717e0       ?_Myhead@?$_Tree_comp_alloc@V?$_Tmap_traits@IPAHU?$less@I@std@@V?$allocator@U?$pair@$$CBIPAH@std@@@2@$0A@@std@@@std@@QAEAAPAU?$_Tree_node@U?$pair@$$CBIPAH@std@@PAX@2@XZ 005d17e0 f i MAP.obj
 0002:00071840       ?_Myhead@?$_Tree_comp_alloc@V?$_Tmap_traits@IPAHU?$less@I@std@@V?$allocator@U?$pair@$$CBIPAH@std@@@2@$0A@@std@@@std@@QBEABQAU?$_Tree_node@U?$pair@$$CBIPAH@std@@PAX@2@XZ 005d1840 f i MAP.obj
 0002:000718a0       ?_Myhead@?$_Tree_comp_alloc@V?$_Tmap_traits@IPAU_OBJECT_EVENT@@U?$less@I@std@@V?$allocator@U?$pair@$$CBIPAU_OBJECT_EVENT@@@std@@@3@$0A@@std@@@std@@QAEAAPAU?$_Tree_node@U?$pair@$$CBIPAU_OBJECT_EVENT@@@std@@PAX@2@XZ 005d18a0 f i MAP.obj
 0002:00071900       ?_Myhead@?$_Tree_comp_alloc@V?$_Tmap_traits@IPAU_OBJECT_EVENT@@U?$less@I@std@@V?$allocator@U?$pair@$$CBIPAU_OBJECT_EVENT@@@std@@@3@$0A@@std@@@std@@QBEABQAU?$_Tree_node@U?$pair@$$CBIPAU_OBJECT_EVENT@@@std@@PAX@2@XZ 005d1900 f i MAP.obj
 0002:00071960       ?_Myhead@?$_Tree_comp_alloc@V?$_Tmap_traits@IPAVCRoomEvent@@U?$less@I@std@@V?$allocator@U?$pair@$$CBIPAVCRoomEvent@@@std@@@3@$0A@@std@@@std@@QAEAAPAU?$_Tree_node@U?$pair@$$CBIPAVCRoomEvent@@@std@@PAX@2@XZ 005d1960 f i MAP.obj
 0002:000719c0       ?_Myhead@?$_Tree_comp_alloc@V?$_Tmap_traits@IPAVCRoomEvent@@U?$less@I@std@@V?$allocator@U?$pair@$$CBIPAVCRoomEvent@@@std@@@3@$0A@@std@@@std@@QBEABQAU?$_Tree_node@U?$pair@$$CBIPAVCRoomEvent@@@std@@PAX@2@XZ 005d19c0 f i MAP.obj
 0002:00071a20       ?_Mynode@?$_Tree_unchecked_const_iterator@V?$_Tree_val@U?$_Tree_simple_types@U?$pair@$$CBIPAH@std@@@std@@@std@@U_Iterator_base12@2@@std@@QBEPAU?$_Tree_node@U?$pair@$$CBIPAH@std@@PAX@2@XZ 005d1a20 f i MAP.obj
 0002:00071a60       ?_Mynode@?$_Tree_unchecked_const_iterator@V?$_Tree_val@U?$_Tree_simple_types@U?$pair@$$CBIPAVCRoomEvent@@@std@@@std@@@std@@U_Iterator_base12@2@@std@@QBEPAU?$_Tree_node@U?$pair@$$CBIPAVCRoomEvent@@@std@@PAX@2@XZ 005d1a60 f i MAP.obj
 0002:00071aa0       ?_Myproxy@?$_Tree_comp_alloc@V?$_Tmap_traits@IPAHU?$less@I@std@@V?$allocator@U?$pair@$$CBIPAH@std@@@2@$0A@@std@@@std@@QAEAAPAU_Container_proxy@2@XZ 005d1aa0 f i MAP.obj
 0002:00071af0       ?_Myproxy@?$_Tree_comp_alloc@V?$_Tmap_traits@IPAVCRoomEvent@@U?$less@I@std@@V?$allocator@U?$pair@$$CBIPAVCRoomEvent@@@std@@@3@$0A@@std@@@std@@QAEAAPAU_Container_proxy@2@XZ 005d1af0 f i MAP.obj
 0002:00071b40       ?_Mysize@?$_Tree_comp_alloc@V?$_Tmap_traits@IPAHU?$less@I@std@@V?$allocator@U?$pair@$$CBIPAH@std@@@2@$0A@@std@@@std@@QAEAAIXZ 005d1b40 f i MAP.obj
 0002:00071ba0       ?_Mysize@?$_Tree_comp_alloc@V?$_Tmap_traits@IPAHU?$less@I@std@@V?$allocator@U?$pair@$$CBIPAH@std@@@2@$0A@@std@@@std@@QBEABIXZ 005d1ba0 f i MAP.obj
 0002:00071c00       ?_Mysize@?$_Tree_comp_alloc@V?$_Tmap_traits@IPAVCRoomEvent@@U?$less@I@std@@V?$allocator@U?$pair@$$CBIPAVCRoomEvent@@@std@@@3@$0A@@std@@@std@@QAEAAIXZ 005d1c00 f i MAP.obj
 0002:00071c60       ?_Mysize@?$_Tree_comp_alloc@V?$_Tmap_traits@IPAVCRoomEvent@@U?$less@I@std@@V?$allocator@U?$pair@$$CBIPAVCRoomEvent@@@std@@@3@$0A@@std@@@std@@QBEABIXZ 005d1c60 f i MAP.obj
 0002:00071cc0       ?_Orphan_all@?$_Tree_comp_alloc@V?$_Tmap_traits@IPAHU?$less@I@std@@V?$allocator@U?$pair@$$CBIPAH@std@@@2@$0A@@std@@@std@@QAEXXZ 005d1cc0 f i MAP.obj
 0002:00071d20       ?_Orphan_all@?$_Tree_comp_alloc@V?$_Tmap_traits@IPAVCRoomEvent@@U?$less@I@std@@V?$allocator@U?$pair@$$CBIPAVCRoomEvent@@@std@@@3@$0A@@std@@@std@@QAEXXZ 005d1d20 f i MAP.obj
 0002:00071d80       ?_Orphan_ptr@?$_Tree@V?$_Tmap_traits@IPAHU?$less@I@std@@V?$allocator@U?$pair@$$CBIPAH@std@@@2@$0A@@std@@@std@@IAEXPAU?$_Tree_node@U?$pair@$$CBIPAH@std@@PAX@2@@Z 005d1d80 f i MAP.obj
 0002:00071ee0       ?_Orphan_ptr@?$_Tree@V?$_Tmap_traits@IPAVCRoomEvent@@U?$less@I@std@@V?$allocator@U?$pair@$$CBIPAVCRoomEvent@@@std@@@3@$0A@@std@@@std@@IAEXPAU?$_Tree_node@U?$pair@$$CBIPAVCRoomEvent@@@std@@PAX@2@@Z 005d1ee0 f i MAP.obj
 0002:00072040       ?_Osfx@?$basic_ostream@DU?$char_traits@D@std@@@std@@QAEXXZ 005d2040 f i MAP.obj
 0002:000721a0       ?_Pnavail@?$basic_streambuf@DU?$char_traits@D@std@@@std@@IBE_JXZ 005d21a0 f i MAP.obj
 0002:00072210       ?_Pninc@?$basic_streambuf@DU?$char_traits@D@std@@@std@@IAEPADXZ 005d2210 f i MAP.obj
 0002:00072290       ?_Reset_back@?$basic_filebuf@DU?$char_traits@D@std@@@std@@AAEXXZ 005d2290 f i MAP.obj
 0002:00072310       ?_Rmost@?$_Tree@V?$_Tmap_traits@IPAHU?$less@I@std@@V?$allocator@U?$pair@$$CBIPAH@std@@@2@$0A@@std@@@std@@IBEAAPAU?$_Tree_node@U?$pair@$$CBIPAH@std@@PAX@2@XZ 005d2310 f i MAP.obj
 0002:00072370       ?_Rmost@?$_Tree@V?$_Tmap_traits@IPAVCRoomEvent@@U?$less@I@std@@V?$allocator@U?$pair@$$CBIPAVCRoomEvent@@@std@@@3@$0A@@std@@@std@@IBEAAPAU?$_Tree_node@U?$pair@$$CBIPAVCRoomEvent@@@std@@PAX@2@XZ 005d2370 f i MAP.obj
 0002:000723d0       ?_Root@?$_Tree@V?$_Tmap_traits@IPAHU?$less@I@std@@V?$allocator@U?$pair@$$CBIPAH@std@@@2@$0A@@std@@@std@@IBEAAPAU?$_Tree_node@U?$pair@$$CBIPAH@std@@PAX@2@XZ 005d23d0 f i MAP.obj
 0002:00072430       ?_Root@?$_Tree@V?$_Tmap_traits@IPAVCRoomEvent@@U?$less@I@std@@V?$allocator@U?$pair@$$CBIPAVCRoomEvent@@@std@@@3@$0A@@std@@@std@@IBEAAPAU?$_Tree_node@U?$pair@$$CBIPAVCRoomEvent@@@std@@PAX@2@XZ 005d2430 f i MAP.obj
 0002:00072490       ?_Rrotate@?$_Tree@V?$_Tmap_traits@IPAHU?$less@I@std@@V?$allocator@U?$pair@$$CBIPAH@std@@@2@$0A@@std@@@std@@IAEXPAU?$_Tree_node@U?$pair@$$CBIPAH@std@@PAX@2@@Z 005d2490 f i MAP.obj
 0002:00072590       ?_Rrotate@?$_Tree@V?$_Tmap_traits@IPAVCRoomEvent@@U?$less@I@std@@V?$allocator@U?$pair@$$CBIPAVCRoomEvent@@@std@@@3@$0A@@std@@@std@@IAEXPAU?$_Tree_node@U?$pair@$$CBIPAVCRoomEvent@@@std@@PAX@2@@Z 005d2590 f i MAP.obj
 0002:00072690       ?_Set_back@?$basic_filebuf@DU?$char_traits@D@std@@@std@@AAEXXZ 005d2690 f i MAP.obj
 0002:00072740       ?_Swap_all@?$_String_alloc@U?$_String_base_types@DV?$allocator@D@std@@@std@@@std@@QAEXAAV12@@Z 005d2740 f i MAP.obj
 0002:000727b0       ?_Swap_all@_Container_base12@std@@QAEXAAU12@@Z 005d27b0 f i MAP.obj
 0002:000728d0       ?_Tidy@?$_Tree@V?$_Tmap_traits@IPAHU?$less@I@std@@V?$allocator@U?$pair@$$CBIPAH@std@@@2@$0A@@std@@@std@@IAEXXZ 005d28d0 f i MAP.obj
 0002:00072a40       ?_Tidy@?$_Tree@V?$_Tmap_traits@IPAVCRoomEvent@@U?$less@I@std@@V?$allocator@U?$pair@$$CBIPAVCRoomEvent@@@std@@@3@$0A@@std@@@std@@IAEXXZ 005d2a40 f i MAP.obj
 0002:00072bb0       ?_Tidy@?$_Yarn@D@std@@AAEXXZ 005d2bb0 f i MAP.obj
 0002:00072c20       ?_Tidy@?$_Yarn@_W@std@@AAEXXZ 005d2c20 f i MAP.obj
 0002:00072c90       ?_Tidy@?$ctype@D@std@@IAEXXZ 005d2c90 f i MAP.obj
 0002:00072d40       ?_Unlock@?$basic_filebuf@DU?$char_traits@D@std@@@std@@UAEXXZ 005d2d40 f i MAP.obj
 0002:00072db0       ?_Unlock@?$basic_streambuf@DU?$char_traits@D@std@@@std@@UAEXXZ 005d2db0 f i MAP.obj
 0002:00072df0       ?_Xran@?$_String_val@U?$_Simple_types@D@std@@@std@@SAXXZ 005d2df0 f i MAP.obj
 0002:00072e40       ?allocate@?$allocator@U?$_Tree_node@U?$pair@$$CBIPAH@std@@PAX@std@@@std@@QAEPAU?$_Tree_node@U?$pair@$$CBIPAH@std@@PAX@2@I@Z 005d2e40 f i MAP.obj
 0002:00072ea0       ?allocate@?$allocator@U?$_Tree_node@U?$pair@$$CBIPAVCRoomEvent@@@std@@PAX@std@@@std@@QAEPAU?$_Tree_node@U?$pair@$$CBIPAVCRoomEvent@@@std@@PAX@2@I@Z 005d2ea0 f i MAP.obj
 0002:00072f00       ?always_noconv@codecvt_base@std@@QBE_NXZ 005d2f00 f i MAP.obj
 0002:00072f60       ?append@?$basic_string@DU?$char_traits@D@std@@V?$allocator@D@2@@std@@QAEAAV12@ABV12@@Z 005d2f60 f i MAP.obj
 0002:00072fe0       ?append@?$basic_string@DU?$char_traits@D@std@@V?$allocator@D@2@@std@@QAEAAV12@ID@Z 005d2fe0 f i MAP.obj
 0002:000730f0       ?append@?$basic_string@DU?$char_traits@D@std@@V?$allocator@D@2@@std@@QAEAAV12@QBD@Z 005d30f0 f i MAP.obj
 0002:00073170       ?append@?$basic_string@DU?$char_traits@D@std@@V?$allocator@D@2@@std@@QAEAAV12@QBDI@Z 005d3170 f i MAP.obj
 0002:00073280       ?assign@?$basic_string@DU?$char_traits@D@std@@V?$allocator@D@2@@std@@QAEAAV12@ID@Z 005d3280 f i MAP.obj
 0002:00073370       ?assign@?$basic_string@DU?$char_traits@D@std@@V?$allocator@D@2@@std@@QAEAAV12@QBD@Z 005d3370 f i MAP.obj
 0002:000733f0       ?assign@?$basic_string@DU?$char_traits@D@std@@V?$allocator@D@2@@std@@QAEAAV12@QBDI@Z 005d33f0 f i MAP.obj
 0002:000734e0       ?assign@?$char_traits@D@std@@SAPADQADID@Z 005d34e0 f i MAP.obj
 0002:00073540       ?begin@?$_Tree@V?$_Tmap_traits@IPAHU?$less@I@std@@V?$allocator@U?$pair@$$CBIPAH@std@@@2@$0A@@std@@@std@@QAE?AV?$_Tree_iterator@V?$_Tree_val@U?$_Tree_simple_types@U?$pair@$$CBIPAH@std@@@std@@@std@@@2@XZ 005d3540 f i MAP.obj
 0002:000735f0       ?begin@?$_Tree@V?$_Tmap_traits@IPAU_OBJECT_EVENT@@U?$less@I@std@@V?$allocator@U?$pair@$$CBIPAU_OBJECT_EVENT@@@std@@@3@$0A@@std@@@std@@QAE?AV?$_Tree_iterator@V?$_Tree_val@U?$_Tree_simple_types@U?$pair@$$CBIPAU_OBJECT_EVENT@@@std@@@std@@@std@@@2@XZ 005d35f0 f i MAP.obj
 0002:000736a0       ?begin@?$_Tree@V?$_Tmap_traits@IPAVCRoomEvent@@U?$less@I@std@@V?$allocator@U?$pair@$$CBIPAVCRoomEvent@@@std@@@3@$0A@@std@@@std@@QAE?AV?$_Tree_iterator@V?$_Tree_val@U?$_Tree_simple_types@U?$pair@$$CBIPAVCRoomEvent@@@std@@@std@@@std@@@2@XZ 005d36a0 f i MAP.obj
 0002:00073750       ?begin@?$basic_string@DU?$char_traits@D@std@@V?$allocator@D@2@@std@@QAE?AV?$_String_iterator@V?$_String_val@U?$_Simple_types@D@std@@@std@@@2@XZ 005d3750 f i MAP.obj
 0002:00073810       ?c_str@?$_Yarn@D@std@@QBEPBDXZ 005d3810 f i MAP.obj
 0002:00073880       ?c_str@locale@std@@QBEPBDXZ 005d3880 f i MAP.obj
 0002:00073900       ?category@error_code@std@@QBEABVerror_category@2@XZ 005d3900 f i MAP.obj
 0002:00073940       ?category@error_condition@std@@QBEABVerror_category@2@XZ 005d3940 f i MAP.obj
 0002:00073980       ?clear@?$_Tree@V?$_Tmap_traits@IPAHU?$less@I@std@@V?$allocator@U?$pair@$$CBIPAH@std@@@2@$0A@@std@@@std@@QAEXXZ 005d3980 f i MAP.obj
 0002:00073a90       ?clear@?$_Tree@V?$_Tmap_traits@IPAVCRoomEvent@@U?$less@I@std@@V?$allocator@U?$pair@$$CBIPAVCRoomEvent@@@std@@@3@$0A@@std@@@std@@QAEXXZ 005d3a90 f i MAP.obj
 0002:00073ba0       ?clear@?$basic_ios@DU?$char_traits@D@std@@@std@@QAEXH_N@Z 005d3ba0 f i MAP.obj
 0002:00073c30       ?clear@ios_base@std@@QAEXH@Z 005d3c30 f i MAP.obj
 0002:00073c90       ?clear@ios_base@std@@QAEXH_N@Z 005d3c90 f i MAP.obj
 0002:00073e10       ?close@?$basic_filebuf@DU?$char_traits@D@std@@@std@@QAEPAV12@XZ 005d3e10 f i MAP.obj
 0002:00073ed0       ?close@?$basic_ifstream@DU?$char_traits@D@std@@@std@@QAEXXZ 005d3ed0 f i MAP.obj
 0002:00073f50       ?deallocate@?$allocator@U?$_Tree_node@U?$pair@$$CBIPAH@std@@PAX@std@@@std@@QAEXQAU?$_Tree_node@U?$pair@$$CBIPAH@std@@PAX@2@I@Z 005d3f50 f i MAP.obj
 0002:00073fb0       ?deallocate@?$allocator@U?$_Tree_node@U?$pair@$$CBIPAVCRoomEvent@@@std@@PAX@std@@@std@@QAEXQAU?$_Tree_node@U?$pair@$$CBIPAVCRoomEvent@@@std@@PAX@2@I@Z 005d3fb0 f i MAP.obj
 0002:00074010       ?default_error_condition@error_category@std@@UBE?AVerror_condition@2@H@Z 005d4010 f i MAP.obj
 0002:00074070       ?do_always_noconv@?$codecvt@DDU_Mbstatet@@@std@@MBE_NXZ 005d4070 f i MAP.obj
 0002:000740b0       ?do_always_noconv@codecvt_base@std@@MBE_NXZ 005d40b0 f i MAP.obj
 0002:000740f0       ?do_encoding@codecvt_base@std@@MBEHXZ 005d40f0 f i MAP.obj
 0002:00074130       ?do_in@?$codecvt@DDU_Mbstatet@@@std@@MBEHAAU_Mbstatet@@PBD1AAPBDPAD3AAPAD@Z 005d4130 f i MAP.obj
 0002:000741f0       ?do_length@?$codecvt@DDU_Mbstatet@@@std@@MBEHAAU_Mbstatet@@PBD1I@Z 005d41f0 f i MAP.obj
 0002:00074260       ?do_max_length@codecvt_base@std@@MBEHXZ 005d4260 f i MAP.obj
 0002:000742a0       ?do_narrow@?$ctype@D@std@@MBEDDD@Z 005d42a0 f i MAP.obj
 0002:000742e0       ?do_narrow@?$ctype@D@std@@MBEPBDPBD0DPAD@Z 005d42e0 f i MAP.obj
 0002:00074370       ?do_out@?$codecvt@DDU_Mbstatet@@@std@@MBEHAAU_Mbstatet@@PBD1AAPBDPAD3AAPAD@Z 005d4370 f i MAP.obj
 0002:00074430       ?do_tolower@?$ctype@D@std@@MBEDD@Z 005d4430 f i MAP.obj
 0002:00074490       ?do_tolower@?$ctype@D@std@@MBEPBDPADPBD@Z 005d4490 f i MAP.obj
 0002:00074540       ?do_toupper@?$ctype@D@std@@MBEDD@Z 005d4540 f i MAP.obj
 0002:000745a0       ?do_toupper@?$ctype@D@std@@MBEPBDPADPBD@Z 005d45a0 f i MAP.obj
 0002:00074650       ?do_unshift@?$codecvt@DDU_Mbstatet@@@std@@MBEHAAU_Mbstatet@@PAD1AAPAD@Z 005d4650 f i MAP.obj
 0002:000746a0       ?do_widen@?$ctype@D@std@@MBEDD@Z 005d46a0 f i MAP.obj
 0002:000746e0       ?do_widen@?$ctype@D@std@@MBEPBDPBD0PAD@Z 005d46e0 f i MAP.obj
 0002:00074770       ?eback@?$basic_streambuf@DU?$char_traits@D@std@@@std@@IBEPADXZ 005d4770 f i MAP.obj
 0002:000747b0       ?egptr@?$basic_streambuf@DU?$char_traits@D@std@@@std@@IBEPADXZ 005d47b0 f i MAP.obj
 0002:00074800       ?empty@?$_Tree@V?$_Tmap_traits@IPAHU?$less@I@std@@V?$allocator@U?$pair@$$CBIPAH@std@@@2@$0A@@std@@@std@@QBE_NXZ 005d4800 f i MAP.obj
 0002:00074880       ?empty@?$_Tree@V?$_Tmap_traits@IPAVCRoomEvent@@U?$less@I@std@@V?$allocator@U?$pair@$$CBIPAVCRoomEvent@@@std@@@3@$0A@@std@@@std@@QBE_NXZ 005d4880 f i MAP.obj
 0002:00074900       ?end@?$_Tree@V?$_Tmap_traits@IPAHU?$less@I@std@@V?$allocator@U?$pair@$$CBIPAH@std@@@2@$0A@@std@@@std@@QAE?AV?$_Tree_iterator@V?$_Tree_val@U?$_Tree_simple_types@U?$pair@$$CBIPAH@std@@@std@@@std@@@2@XZ 005d4900 f i MAP.obj
 0002:000749b0       ?end@?$_Tree@V?$_Tmap_traits@IPAU_OBJECT_EVENT@@U?$less@I@std@@V?$allocator@U?$pair@$$CBIPAU_OBJECT_EVENT@@@std@@@3@$0A@@std@@@std@@QAE?AV?$_Tree_iterator@V?$_Tree_val@U?$_Tree_simple_types@U?$pair@$$CBIPAU_OBJECT_EVENT@@@std@@@std@@@std@@@2@XZ 005d49b0 f i MAP.obj
 0002:00074a60       ?end@?$_Tree@V?$_Tmap_traits@IPAVCRoomEvent@@U?$less@I@std@@V?$allocator@U?$pair@$$CBIPAVCRoomEvent@@@std@@@3@$0A@@std@@@std@@QAE?AV?$_Tree_iterator@V?$_Tree_val@U?$_Tree_simple_types@U?$pair@$$CBIPAVCRoomEvent@@@std@@@std@@@std@@@2@XZ 005d4a60 f i MAP.obj
 0002:00074b10       ?eof@?$char_traits@D@std@@SAHXZ 005d4b10 f i MAP.obj
 0002:00074b50       ?epptr@?$basic_streambuf@DU?$char_traits@D@std@@@std@@IBEPADXZ 005d4b50 f i MAP.obj
 0002:00074ba0       ?eq_int_type@?$char_traits@D@std@@SA_NABH0@Z 005d4ba0 f i MAP.obj
 0002:00074c00       ?equivalent@error_category@std@@UBE_NABVerror_code@2@H@Z 005d4c00 f i MAP.obj
 0002:00074ca0       ?equivalent@error_category@std@@UBE_NHABVerror_condition@2@@Z 005d4ca0 f i MAP.obj
 0002:00074d20       ?erase@?$_Tree@V?$_Tmap_traits@IPAHU?$less@I@std@@V?$allocator@U?$pair@$$CBIPAH@std@@@2@$0A@@std@@@std@@QAE?AV?$_Tree_iterator@V?$_Tree_val@U?$_Tree_simple_types@U?$pair@$$CBIPAH@std@@@std@@@std@@@2@V?$_Tree_const_iterator@V?$_Tree_val@U?$_Tree_simple_types@U?$pair@$$CBIPAH@std@@@std@@@std@@@2@0@Z 005d4d20 f i MAP.obj
 0002:00075040       ?erase@?$_Tree@V?$_Tmap_traits@IPAHU?$less@I@std@@V?$allocator@U?$pair@$$CBIPAH@std@@@2@$0A@@std@@@std@@QAE?AV?$_Tree_iterator@V?$_Tree_val@U?$_Tree_simple_types@U?$pair@$$CBIPAH@std@@@std@@@std@@@2@V?$_Tree_const_iterator@V?$_Tree_val@U?$_Tree_simple_types@U?$pair@$$CBIPAH@std@@@std@@@std@@@2@@Z 005d5040 f i MAP.obj
 0002:00075760       ?erase@?$_Tree@V?$_Tmap_traits@IPAVCRoomEvent@@U?$less@I@std@@V?$allocator@U?$pair@$$CBIPAVCRoomEvent@@@std@@@3@$0A@@std@@@std@@QAE?AV?$_Tree_iterator@V?$_Tree_val@U?$_Tree_simple_types@U?$pair@$$CBIPAVCRoomEvent@@@std@@@std@@@std@@@2@V?$_Tree_const_iterator@V?$_Tree_val@U?$_Tree_simple_types@U?$pair@$$CBIPAVCRoomEvent@@@std@@@std@@@std@@@2@0@Z 005d5760 f i MAP.obj
 0002:00075a80       ?erase@?$_Tree@V?$_Tmap_traits@IPAVCRoomEvent@@U?$less@I@std@@V?$allocator@U?$pair@$$CBIPAVCRoomEvent@@@std@@@3@$0A@@std@@@std@@QAE?AV?$_Tree_iterator@V?$_Tree_val@U?$_Tree_simple_types@U?$pair@$$CBIPAVCRoomEvent@@@std@@@std@@@std@@@2@V?$_Tree_const_iterator@V?$_Tree_val@U?$_Tree_simple_types@U?$pair@$$CBIPAVCRoomEvent@@@std@@@std@@@std@@@2@@Z 005d5a80 f i MAP.obj
 0002:000761a0       ?erase@?$basic_string@DU?$char_traits@D@std@@V?$allocator@D@2@@std@@QAEAAV12@II@Z 005d61a0 f i MAP.obj
 0002:00076280       ?fail@ios_base@std@@QBE_NXZ 005d6280 f i MAP.obj
 0002:00076300       ?find@?$_Tree@V?$_Tmap_traits@IPAHU?$less@I@std@@V?$allocator@U?$pair@$$CBIPAH@std@@@2@$0A@@std@@@std@@QAE?AV?$_Tree_iterator@V?$_Tree_val@U?$_Tree_simple_types@U?$pair@$$CBIPAH@std@@@std@@@std@@@2@ABI@Z 005d6300 f i MAP.obj
 0002:000765c0       ?find@?$_Tree@V?$_Tmap_traits@IPAVCRoomEvent@@U?$less@I@std@@V?$allocator@U?$pair@$$CBIPAVCRoomEvent@@@std@@@3@$0A@@std@@@std@@QAE?AV?$_Tree_iterator@V?$_Tree_val@U?$_Tree_simple_types@U?$pair@$$CBIPAVCRoomEvent@@@std@@@std@@@std@@@2@ABI@Z 005d65c0 f i MAP.obj
 0002:00076880       ?flags@ios_base@std@@QBEHXZ 005d6880 f i MAP.obj
 0002:000768c0       ?flush@?$basic_ostream@DU?$char_traits@D@std@@@std@@QAEAAV12@XZ 005d68c0 f i MAP.obj
 0002:00076a10       ?gbump@?$basic_streambuf@DU?$char_traits@D@std@@@std@@IAEXH@Z 005d6a10 f i MAP.obj
 0002:00076a80       ?getloc@?$basic_streambuf@DU?$char_traits@D@std@@@std@@QBE?AVlocale@2@XZ 005d6a80 f i MAP.obj
 0002:00076b00       ?getloc@ios_base@std@@QBE?AVlocale@2@XZ 005d6b00 f i MAP.obj
 0002:00076b80       ?good@ios_base@std@@QBE_NXZ 005d6b80 f i MAP.obj
 0002:00076c00       ?gptr@?$basic_streambuf@DU?$char_traits@D@std@@@std@@IBEPADXZ 005d6c00 f i MAP.obj
 0002:00076c40       ?imbue@?$basic_filebuf@DU?$char_traits@D@std@@@std@@MAEXABVlocale@2@@Z 005d6c40 f i MAP.obj
 0002:00076cb0       ?imbue@?$basic_streambuf@DU?$char_traits@D@std@@@std@@MAEXABVlocale@2@@Z 005d6cb0 f i MAP.obj
 0002:00076cf0       ?in@?$codecvt@DDU_Mbstatet@@@std@@QBEHAAU_Mbstatet@@PBD1AAPBDPAD3AAPAD@Z 005d6cf0 f i MAP.obj
 0002:00076d80       ?init@?$basic_ios@DU?$char_traits@D@std@@@std@@IAEXPAV?$basic_streambuf@DU?$char_traits@D@std@@@2@_N@Z 005d6d80 f i MAP.obj
 0002:00076e30       ?iostream_category@std@@YAABVerror_category@1@XZ 005d6e30 f i MAP.obj
 0002:00076eb0       ?is@?$ctype@D@std@@QBE_NFD@Z 005d6eb0 f i MAP.obj
 0002:00076f30       ?isCleared@CRoomEvent@@QAE_NXZ 005d6f30 f i MAP.obj
 0002:00076fb0       ?isInProgress@CRoomEvent@@QAE_NXZ 005d6fb0 f i MAP.obj
 0002:00077030       ?isInitialised@CRoomEvent@@QAE_NXZ 005d7030 f i MAP.obj
 0002:000770b0       ?length@?$char_traits@D@std@@SAIQBD@Z 005d70b0 f i MAP.obj
 0002:00077100       ?lower_bound@?$_Tree@V?$_Tmap_traits@IPAHU?$less@I@std@@V?$allocator@U?$pair@$$CBIPAH@std@@@2@$0A@@std@@@std@@QAE?AV?$_Tree_iterator@V?$_Tree_val@U?$_Tree_simple_types@U?$pair@$$CBIPAH@std@@@std@@@std@@@2@ABI@Z 005d7100 f i MAP.obj
 0002:000771a0       ?lower_bound@?$_Tree@V?$_Tmap_traits@IPAVCRoomEvent@@U?$less@I@std@@V?$allocator@U?$pair@$$CBIPAVCRoomEvent@@@std@@@3@$0A@@std@@@std@@QAE?AV?$_Tree_iterator@V?$_Tree_val@U?$_Tree_simple_types@U?$pair@$$CBIPAVCRoomEvent@@@std@@@std@@@std@@@2@ABI@Z 005d71a0 f i MAP.obj
 0002:00077240       ?make_error_code@std@@YA?AVerror_code@1@W4io_errc@1@@Z 005d7240 f i MAP.obj
 0002:000772a0       ?max_size@?$_Default_allocator_traits@V?$allocator@U?$_Tree_node@U?$pair@$$CBIPAH@std@@PAX@std@@@std@@@std@@SAIABV?$allocator@U?$_Tree_node@U?$pair@$$CBIPAH@std@@PAX@std@@@2@@Z 005d72a0 f i MAP.obj
 0002:000772e0       ?max_size@?$_Default_allocator_traits@V?$allocator@U?$_Tree_node@U?$pair@$$CBIPAVCRoomEvent@@@std@@PAX@std@@@std@@@std@@SAIABV?$allocator@U?$_Tree_node@U?$pair@$$CBIPAVCRoomEvent@@@std@@PAX@std@@@2@@Z 005d72e0 f i MAP.obj
 0002:00077320       ?max_size@?$_Tree@V?$_Tmap_traits@IPAHU?$less@I@std@@V?$allocator@U?$pair@$$CBIPAH@std@@@2@$0A@@std@@@std@@QBEIXZ 005d7320 f i MAP.obj
 0002:00077380       ?max_size@?$_Tree@V?$_Tmap_traits@IPAVCRoomEvent@@U?$less@I@std@@V?$allocator@U?$pair@$$CBIPAVCRoomEvent@@@std@@@3@$0A@@std@@@std@@QBEIXZ 005d7380 f i MAP.obj
 0002:000773e0       ?message@_Generic_error_category@std@@UBE?AV?$basic_string@DU?$char_traits@D@std@@V?$allocator@D@2@@2@H@Z 005d73e0 f i MAP.obj
 0002:00077470       ?message@_Iostream_error_category@std@@UBE?AV?$basic_string@DU?$char_traits@D@std@@V?$allocator@D@2@@2@H@Z 005d7470 f i MAP.obj
 0002:00077530       ?message@error_code@std@@QBE?AV?$basic_string@DU?$char_traits@D@std@@V?$allocator@D@2@@2@XZ 005d7530 f i MAP.obj
 0002:000775e0       ?move@?$char_traits@D@std@@SAPADQADQBDI@Z 005d75e0 f i MAP.obj
 0002:00077640       ?name@_Generic_error_category@std@@UBEPBDXZ 005d7640 f i MAP.obj
 0002:00077680       ?name@_Iostream_error_category@std@@UBEPBDXZ 005d7680 f i MAP.obj
 0002:000776c0       ?not_eof@?$char_traits@D@std@@SAHABH@Z 005d76c0 f i MAP.obj
 0002:00077760       ?open@?$basic_filebuf@DU?$char_traits@D@std@@@std@@QAEPAV12@PBDHH@Z 005d7760 f i MAP.obj
 0002:00077890       ?out@?$codecvt@DDU_Mbstatet@@@std@@QBEHAAU_Mbstatet@@PBD1AAPBDPAD3AAPAD@Z 005d7890 f i MAP.obj
 0002:00077920       ?overflow@?$basic_filebuf@DU?$char_traits@D@std@@@std@@MAEHH@Z 005d7920 f i MAP.obj
 0002:00077f60       ?overflow@?$basic_streambuf@DU?$char_traits@D@std@@@std@@MAEHH@Z 005d7f60 f i MAP.obj
 0002:00077fb0       ?pbackfail@?$basic_filebuf@DU?$char_traits@D@std@@@std@@MAEHH@Z 005d7fb0 f i MAP.obj
 0002:000781a0       ?pbackfail@?$basic_streambuf@DU?$char_traits@D@std@@@std@@MAEHH@Z 005d81a0 f i MAP.obj
 0002:000781f0       ?pbump@?$basic_streambuf@DU?$char_traits@D@std@@@std@@IAEXH@Z 005d81f0 f i MAP.obj
 0002:00078260       ?pointer_to@?$pointer_traits@PAU?$pair@$$CBIPAH@std@@@std@@SAPAU?$pair@$$CBIPAH@2@AAU32@@Z 005d8260 f i MAP.obj
 0002:000782b0       ?pointer_to@?$pointer_traits@PAU?$pair@$$CBIPAU_OBJECT_EVENT@@@std@@@std@@SAPAU?$pair@$$CBIPAU_OBJECT_EVENT@@@2@AAU32@@Z 005d82b0 f i MAP.obj
 0002:00078300       ?pointer_to@?$pointer_traits@PAU?$pair@$$CBIPAVCRoomEvent@@@std@@@std@@SAPAU?$pair@$$CBIPAVCRoomEvent@@@2@AAU32@@Z 005d8300 f i MAP.obj
 0002:00078350       ?pptr@?$basic_streambuf@DU?$char_traits@D@std@@@std@@IBEPADXZ 005d8350 f i MAP.obj
 0002:00078390       ?pubseekoff@?$basic_streambuf@DU?$char_traits@D@std@@@std@@QAE?AV?$fpos@U_Mbstatet@@@2@_JHH@Z 005d8390 f i MAP.obj
 0002:00078410       ?pubsync@?$basic_streambuf@DU?$char_traits@D@std@@@std@@QAEHXZ 005d8410 f i MAP.obj
 0002:00078470       ?rdbuf@?$basic_ios@DU?$char_traits@D@std@@@std@@QBEPAV?$basic_streambuf@DU?$char_traits@D@std@@@2@XZ 005d8470 f i MAP.obj
 0002:000784b0       ?rdstate@ios_base@std@@QBEHXZ 005d84b0 f i MAP.obj
 0002:000784f0       ?read@?$basic_istream@DU?$char_traits@D@std@@@std@@QAEAAV12@PAD_J@Z 005d84f0 f i MAP.obj
 0002:00078730       ?sbumpc@?$basic_streambuf@DU?$char_traits@D@std@@@std@@QAEHXZ 005d8730 f i MAP.obj
 0002:000787f0       ?seekg@?$basic_istream@DU?$char_traits@D@std@@@std@@QAEAAV12@_JH@Z 005d87f0 f i MAP.obj
 0002:000789e0       ?seekoff@?$basic_filebuf@DU?$char_traits@D@std@@@std@@MAE?AV?$fpos@U_Mbstatet@@@2@_JHH@Z 005d89e0 f i MAP.obj
 0002:00078b70       ?seekoff@?$basic_streambuf@DU?$char_traits@D@std@@@std@@MAE?AV?$fpos@U_Mbstatet@@@2@_JHH@Z 005d8b70 f i MAP.obj
 0002:00078be0       ?seekpos@?$basic_filebuf@DU?$char_traits@D@std@@@std@@MAE?AV?$fpos@U_Mbstatet@@@2@V32@H@Z 005d8be0 f i MAP.obj
 0002:00078d90       ?seekpos@?$basic_streambuf@DU?$char_traits@D@std@@@std@@MAE?AV?$fpos@U_Mbstatet@@@2@V32@H@Z 005d8d90 f i MAP.obj
 0002:00078e00       ?seekpos@?$fpos@U_Mbstatet@@@std@@QBE_JXZ 005d8e00 f i MAP.obj
 0002:00078e40       ?setbuf@?$basic_filebuf@DU?$char_traits@D@std@@@std@@MAEPAV?$basic_streambuf@DU?$char_traits@D@std@@@2@PAD_J@Z 005d8e40 f i MAP.obj
 0002:00078f10       ?setbuf@?$basic_streambuf@DU?$char_traits@D@std@@@std@@MAEPAV12@PAD_J@Z 005d8f10 f i MAP.obj
 0002:00078f50       ?setg@?$basic_streambuf@DU?$char_traits@D@std@@@std@@IAEXPAD00@Z 005d8f50 f i MAP.obj
 0002:00078fc0       ?setp@?$basic_streambuf@DU?$char_traits@D@std@@@std@@IAEXPAD0@Z 005d8fc0 f i MAP.obj
 0002:00079030       ?setstate@?$basic_ios@DU?$char_traits@D@std@@@std@@QAEXH_N@Z 005d9030 f i MAP.obj
 0002:000790a0       ?sgetc@?$basic_streambuf@DU?$char_traits@D@std@@@std@@QAEHXZ 005d90a0 f i MAP.obj
 0002:00079160       ?sgetn@?$basic_streambuf@DU?$char_traits@D@std@@@std@@QAE_JPAD_J@Z 005d9160 f i MAP.obj
 0002:000791e0       ?showmanyc@?$basic_streambuf@DU?$char_traits@D@std@@@std@@MAE_JXZ 005d91e0 f i MAP.obj
 0002:00079220       ?size@?$_Tree@V?$_Tmap_traits@IPAHU?$less@I@std@@V?$allocator@U?$pair@$$CBIPAH@std@@@2@$0A@@std@@@std@@QBEIXZ 005d9220 f i MAP.obj
 0002:00079280       ?size@?$_Tree@V?$_Tmap_traits@IPAVCRoomEvent@@U?$less@I@std@@V?$allocator@U?$pair@$$CBIPAVCRoomEvent@@@std@@@3@$0A@@std@@@std@@QBEIXZ 005d9280 f i MAP.obj
 0002:000792e0       ?snextc@?$basic_streambuf@DU?$char_traits@D@std@@@std@@QAEHXZ 005d92e0 f i MAP.obj
 0002:00079400       ?state@?$fpos@U_Mbstatet@@@std@@QBE?AU_Mbstatet@@XZ 005d9400 f i MAP.obj
 0002:00079450       ?sync@?$basic_filebuf@DU?$char_traits@D@std@@@std@@MAEHXZ 005d9450 f i MAP.obj
 0002:00079540       ?sync@?$basic_streambuf@DU?$char_traits@D@std@@@std@@MAEHXZ 005d9540 f i MAP.obj
 0002:00079580       ?tellg@?$basic_istream@DU?$char_traits@D@std@@@std@@QAE?AV?$fpos@U_Mbstatet@@@2@XZ 005d9580 f i MAP.obj
 0002:00079700       ?tie@?$basic_ios@DU?$char_traits@D@std@@@std@@QBEPAV?$basic_ostream@DU?$char_traits@D@std@@@2@XZ 005d9700 f i MAP.obj
 0002:00079740       ?to_char_type@?$char_traits@D@std@@SADABH@Z 005d9740 f i MAP.obj
 0002:00079780       ?to_int_type@?$char_traits@D@std@@SAHABD@Z 005d9780 f i MAP.obj
 0002:000797c0       ?uflow@?$basic_filebuf@DU?$char_traits@D@std@@@std@@MAEHXZ 005d97c0 f i MAP.obj
 0002:00079d90       ?uflow@?$basic_streambuf@DU?$char_traits@D@std@@@std@@MAEHXZ 005d9d90 f i MAP.obj
 0002:00079e60       ?underflow@?$basic_filebuf@DU?$char_traits@D@std@@@std@@MAEHXZ 005d9e60 f i MAP.obj
 0002:00079fa0       ?underflow@?$basic_streambuf@DU?$char_traits@D@std@@@std@@MAEHXZ 005d9fa0 f i MAP.obj
 0002:00079ff0       ?unshift@?$codecvt@DDU_Mbstatet@@@std@@QBEHAAU_Mbstatet@@PAD1AAPAD@Z 005d9ff0 f i MAP.obj
 0002:0007a070       ?value@error_code@std@@QBEHXZ 005da070 f i MAP.obj
 0002:0007a0b0       ?value@error_condition@std@@QBEHXZ 005da0b0 f i MAP.obj
 0002:0007a0f0       ?what@exception@std@@UBEPBDXZ 005da0f0 f i MAP.obj
 0002:0007a160       ?widen@?$basic_ios@DU?$char_traits@D@std@@@std@@QBEDD@Z 005da160 f i MAP.obj
 0002:0007a250       ?widen@?$ctype@D@std@@QBEDD@Z 005da250 f i MAP.obj
 0002:0007a2c0       ?xsgetn@?$basic_streambuf@DU?$char_traits@D@std@@@std@@MAE_JPAD_J@Z 005da2c0 f i MAP.obj
 0002:0007a4d0       ?xsputn@?$basic_streambuf@DU?$char_traits@D@std@@@std@@MAE_JPBD_J@Z 005da4d0 f i MAP.obj
 0002:0007a850       ??$?0$$V@?$_Compressed_pair@V?$allocator@I@std@@V?$_Vector_val@U?$_Simple_types@I@std@@@2@$00@std@@QAE@U_Zero_then_variadic_args_t@1@@Z 005da850 f i Npc.obj
 0002:0007a8b0       ??$?0$$V@?$_Compressed_pair@V?$allocator@U?$_Tree_node@U?$pair@$$CBGPAVCUser@@@std@@PAX@std@@@std@@V?$_Tree_val@U?$_Tree_simple_types@U?$pair@$$CBGPAVCUser@@@std@@@std@@@2@$00@std@@QAE@U_Zero_then_variadic_args_t@1@@Z 005da8b0 f i Npc.obj
 0002:0007a910       ??$?0$$V@?$_Compressed_pair@V?$allocator@U?$_Tree_node@U?$pair@QAVCUser@@H@std@@PAX@std@@@std@@V?$_Tree_val@U?$_Tree_simple_types@U?$pair@QAVCUser@@H@std@@@std@@@2@$00@std@@QAE@U_Zero_then_variadic_args_t@1@@Z 005da910 f i Npc.obj
 0002:0007a970       ??$?0AAPAVCUser@@AAHX$0A@@?$pair@PAVCUser@@H@std@@QAE@AAPAVCUser@@AAH@Z 005da970 f i Npc.obj
 0002:0007a9f0       ??$?0AAV?$_Tree_iterator@V?$_Tree_val@U?$_Tree_simple_types@U?$pair@$$CBGPAVCUser@@@std@@@std@@@std@@@std@@_NX$0A@@?$pair@V?$_Tree_iterator@V?$_Tree_val@U?$_Tree_simple_types@U?$pair@$$CBGPAVCUser@@@std@@@std@@@std@@@std@@_N@std@@QAE@AAV?$_Tree_iterator@V?$_Tree_val@U?$_Tree_simple_types@U?$pair@$$CBGPAVCUser@@@std@@@std@@@std@@@1@$$QA_N@Z 005da9f0 f i Npc.obj
 0002:0007aa70       ??$?0AAV?$_Tree_iterator@V?$_Tree_val@U?$_Tree_simple_types@U?$pair@QAVCUser@@H@std@@@std@@@std@@@std@@_NX$0A@@?$pair@V?$_Tree_iterator@V?$_Tree_val@U?$_Tree_simple_types@U?$pair@QAVCUser@@H@std@@@std@@@std@@@std@@_N@std@@QAE@AAV?$_Tree_iterator@V?$_Tree_val@U?$_Tree_simple_types@U?$pair@QAVCUser@@H@std@@@std@@@std@@@1@$$QA_N@Z 005daa70 f i Npc.obj
 0002:0007aaf0       ??$?0ABQAVCUser@@$$Z$$V@?$pair@QAVCUser@@H@std@@QAE@Upiecewise_construct_t@1@V?$tuple@ABQAVCUser@@@1@V?$tuple@$$V@1@@Z 005daaf0 f i Npc.obj
 0002:0007ab70       ??$?0ABQAVCUser@@$0A@@?$tuple@ABQAVCUser@@@std@@QAE@ABQAVCUser@@@Z 005dab70 f i Npc.obj
 0002:0007abe0       ??$?0ABQAVCUser@@@?$_Tuple_val@ABQAVCUser@@@std@@QAE@ABQAVCUser@@@Z 005dabe0 f i Npc.obj
 0002:0007ac40       ??$?0ABU?$less@G@std@@U_Zero_then_variadic_args_t@1@@?$_Compressed_pair@U?$less@G@std@@V?$_Compressed_pair@V?$allocator@U?$_Tree_node@U?$pair@$$CBGPAVCUser@@@std@@PAX@std@@@std@@V?$_Tree_val@U?$_Tree_simple_types@U?$pair@$$CBGPAVCUser@@@std@@@std@@@2@$00@2@$00@std@@QAE@U_One_then_variadic_args_t@1@ABU?$less@G@1@$$QAU_Zero_then_variadic_args_t@1@@Z 005dac40 f i Npc.obj
 0002:0007acc0       ??$?0ABU?$less@PAVCUser@@@std@@U_Zero_then_variadic_args_t@1@@?$_Compressed_pair@U?$less@PAVCUser@@@std@@V?$_Compressed_pair@V?$allocator@U?$_Tree_node@U?$pair@QAVCUser@@H@std@@PAX@std@@@std@@V?$_Tree_val@U?$_Tree_simple_types@U?$pair@QAVCUser@@H@std@@@std@@@2@$00@2@$00@std@@QAE@U_One_then_variadic_args_t@1@ABU?$less@PAVCUser@@@1@$$QAU_Zero_then_variadic_args_t@1@@Z 005dacc0 f i Npc.obj
 0002:0007ad40       ??$?0GAAPAVCUser@@X$0A@@?$pair@GPAVCUser@@@std@@QAE@$$QAGAAPAVCUser@@@Z 005dad40 f i Npc.obj
 0002:0007adc0       ??$?0GPAVCUser@@X$0A@@?$pair@$$CBGPAVCUser@@@std@@QAE@$$QAU?$pair@GPAVCUser@@@1@@Z 005dadc0 f i Npc.obj
 0002:0007ae50       ??$?0I@?$allocator@U_Container_proxy@std@@@std@@QAE@ABV?$allocator@I@1@@Z 005dae50 f i Npc.obj
 0002:0007ae90       ??$?0PAVCUser@@HX$0A@@?$pair@QAVCUser@@H@std@@QAE@$$QAU?$pair@PAVCUser@@H@1@@Z 005dae90 f i Npc.obj
 0002:0007af10       ??$?0U?$_Tree_node@U?$pair@$$CBGPAVCUser@@@std@@PAX@std@@@?$allocator@U_Container_proxy@std@@@std@@QAE@ABV?$allocator@U?$_Tree_node@U?$pair@$$CBGPAVCUser@@@std@@PAX@std@@@1@@Z 005daf10 f i Npc.obj
 0002:0007af50       ??$?0U?$_Tree_node@U?$pair@QAVCUser@@H@std@@PAX@std@@@?$allocator@U_Container_proxy@std@@@std@@QAE@ABV?$allocator@U?$_Tree_node@U?$pair@QAVCUser@@H@std@@PAX@std@@@1@@Z 005daf50 f i Npc.obj
 0002:0007af90       ??$?0U_Exact_args_t@std@@ABQAVCUser@@$$V$0A@@?$tuple@ABQAVCUser@@@std@@QAE@U_Exact_args_t@1@ABQAVCUser@@@Z 005daf90 f i Npc.obj
 0002:0007b020       ??$?0V?$_Tree_iterator@V?$_Tree_val@U?$_Tree_simple_types@U?$pair@$$CBGPAVCUser@@@std@@@std@@@std@@@std@@_NX$0A@@?$pair@V?$_Tree_iterator@V?$_Tree_val@U?$_Tree_simple_types@U?$pair@$$CBGPAVCUser@@@std@@@std@@@std@@@std@@_N@std@@QAE@$$QAV?$_Tree_iterator@V?$_Tree_val@U?$_Tree_simple_types@U?$pair@$$CBGPAVCUser@@@std@@@std@@@std@@@1@$$QA_N@Z 005db020 f i Npc.obj
 0002:0007b0a0       ??$?0V?$_Tree_iterator@V?$_Tree_val@U?$_Tree_simple_types@U?$pair@QAVCUser@@H@std@@@std@@@std@@@std@@_NX$0A@@?$pair@V?$_Tree_iterator@V?$_Tree_val@U?$_Tree_simple_types@U?$pair@QAVCUser@@H@std@@@std@@@std@@@std@@_N@std@@QAE@$$QAV?$_Tree_iterator@V?$_Tree_val@U?$_Tree_simple_types@U?$pair@QAVCUser@@H@std@@@std@@@std@@@1@$$QA_N@Z 005db0a0 f i Npc.obj
 0002:0007b120       ??$?0V?$tuple@ABQAVCUser@@@std@@V?$tuple@$$V@1@$0A@$$Z$S@?$pair@QAVCUser@@H@std@@QAE@AAV?$tuple@ABQAVCUser@@@1@AAV?$tuple@$$V@1@U?$integer_sequence@I$0A@@1@U?$integer_sequence@I$S@1@@Z 005db120 f i Npc.obj
 0002:0007b1a0       ??$_Buynode@ABUpiecewise_construct_t@std@@V?$tuple@ABQAVCUser@@@2@V?$tuple@$$V@2@@?$_Tree_comp_alloc@V?$_Tmap_traits@PAVCUser@@HU?$less@PAVCUser@@@std@@V?$allocator@U?$pair@QAVCUser@@H@std@@@3@$0A@@std@@@std@@QAEPAU?$_Tree_node@U?$pair@QAVCUser@@H@std@@PAX@1@ABUpiecewise_construct_t@1@$$QAV?$tuple@ABQAVCUser@@@1@$$QAV?$tuple@$$V@1@@Z 005db1a0 f i Npc.obj
 0002:0007b2e0       ??$_Buynode@U?$pair@GPAVCUser@@@std@@@?$_Tree_comp_alloc@V?$_Tmap_traits@GPAVCUser@@U?$less@G@std@@V?$allocator@U?$pair@$$CBGPAVCUser@@@std@@@3@$0A@@std@@@std@@QAEPAU?$_Tree_node@U?$pair@$$CBGPAVCUser@@@std@@PAX@1@$$QAU?$pair@GPAVCUser@@@1@@Z 005db2e0 f i Npc.obj
 0002:0007b400       ??$_Buynode@U?$pair@PAVCUser@@H@std@@@?$_Tree_comp_alloc@V?$_Tmap_traits@PAVCUser@@HU?$less@PAVCUser@@@std@@V?$allocator@U?$pair@QAVCUser@@H@std@@@3@$0A@@std@@@std@@QAEPAU?$_Tree_node@U?$pair@QAVCUser@@H@std@@PAX@1@$$QAU?$pair@PAVCUser@@H@1@@Z 005db400 f i Npc.obj
 0002:0007b520       ??$_Buynode_if_nil@AAU?$pair@$$CBGPAVCUser@@@std@@@?$_Tree@V?$_Tmap_traits@GPAVCUser@@U?$less@G@std@@V?$allocator@U?$pair@$$CBGPAVCUser@@@std@@@3@$0A@@std@@@std@@IAEPAU?$_Tree_node@U?$pair@$$CBGPAVCUser@@@std@@PAX@1@PAU21@AAU?$pair@$$CBGPAVCUser@@@1@@Z 005db520 f i Npc.obj
 0002:0007b560       ??$_Buynode_if_nil@AAU?$pair@QAVCUser@@H@std@@@?$_Tree@V?$_Tmap_traits@PAVCUser@@HU?$less@PAVCUser@@@std@@V?$allocator@U?$pair@QAVCUser@@H@std@@@3@$0A@@std@@@std@@IAEPAU?$_Tree_node@U?$pair@QAVCUser@@H@std@@PAX@1@PAU21@AAU?$pair@QAVCUser@@H@1@@Z 005db560 f i Npc.obj
 0002:0007b5a0       ??$_Copy_memmove@PAIPAI@std@@YAPAIPAI00@Z 005db5a0 f i Npc.obj
 0002:0007b620       ??$_Debug_lt_pred@AAU?$less@G@std@@ABGABG@std@@YA_NAAU?$less@G@0@ABG1PB_WI@Z 005db620 f i Npc.obj
 0002:0007b710       ??$_Debug_lt_pred@AAU?$less@PAVCUser@@@std@@ABQAVCUser@@ABQAV3@@std@@YA_NAAU?$less@PAVCUser@@@0@ABQAVCUser@@1PB_WI@Z 005db710 f i Npc.obj
 0002:0007b800       ??$_Debug_lt_pred@ABU?$less@G@std@@ABGABG@std@@YA_NABU?$less@G@0@ABG1PB_WI@Z 005db800 f i Npc.obj
 0002:0007b8f0       ??$_Debug_lt_pred@ABU?$less@PAVCUser@@@std@@ABQAVCUser@@ABQAV3@@std@@YA_NABU?$less@PAVCUser@@@0@ABQAVCUser@@1PB_WI@Z 005db8f0 f i Npc.obj
 0002:0007b9e0       ??$_Destroy_range1@V?$allocator@I@std@@@std@@YAXPAI0AAV?$allocator@I@0@U?$integral_constant@_N$00@0@@Z 005db9e0 f i Npc.obj
 0002:0007ba10       ??$_Destroy_range@V?$allocator@I@std@@@std@@YAXPAI0AAV?$allocator@I@0@@Z 005dba10 f i Npc.obj
 0002:0007ba80       ??$_Emplace_back_with_unused_capacity@ABI@?$vector@IV?$allocator@I@std@@@std@@AAEXABI@Z 005dba80 f i Npc.obj
 0002:0007bb60       ??$_Insert_at@AAU?$pair@$$CBGPAVCUser@@@std@@PAU?$_Tree_node@U?$pair@$$CBGPAVCUser@@@std@@PAX@2@@?$_Tree@V?$_Tmap_traits@GPAVCUser@@U?$less@G@std@@V?$allocator@U?$pair@$$CBGPAVCUser@@@std@@@3@$0A@@std@@@std@@IAE?AV?$_Tree_iterator@V?$_Tree_val@U?$_Tree_simple_types@U?$pair@$$CBGPAVCUser@@@std@@@std@@@std@@@1@_NPAU?$_Tree_node@U?$pair@$$CBGPAVCUser@@@std@@PAX@1@AAU?$pair@$$CBGPAVCUser@@@1@1@Z 005dbb60 f i Npc.obj
 0002:0007bf00       ??$_Insert_at@AAU?$pair@QAVCUser@@H@std@@PAU?$_Tree_node@U?$pair@QAVCUser@@H@std@@PAX@2@@?$_Tree@V?$_Tmap_traits@PAVCUser@@HU?$less@PAVCUser@@@std@@V?$allocator@U?$pair@QAVCUser@@H@std@@@3@$0A@@std@@@std@@IAE?AV?$_Tree_iterator@V?$_Tree_val@U?$_Tree_simple_types@U?$pair@QAVCUser@@H@std@@@std@@@std@@@1@_NPAU?$_Tree_node@U?$pair@QAVCUser@@H@std@@PAX@1@AAU?$pair@QAVCUser@@H@1@1@Z 005dbf00 f i Npc.obj
 0002:0007c2a0       ??$_Insert_hint@AAU?$pair@QAVCUser@@H@std@@PAU?$_Tree_node@U?$pair@QAVCUser@@H@std@@PAX@2@@?$_Tree@V?$_Tmap_traits@PAVCUser@@HU?$less@PAVCUser@@@std@@V?$allocator@U?$pair@QAVCUser@@H@std@@@3@$0A@@std@@@std@@IAE?AV?$_Tree_iterator@V?$_Tree_val@U?$_Tree_simple_types@U?$pair@QAVCUser@@H@std@@@std@@@std@@@1@V?$_Tree_const_iterator@V?$_Tree_val@U?$_Tree_simple_types@U?$pair@QAVCUser@@H@std@@@std@@@std@@@1@AAU?$pair@QAVCUser@@H@1@PAU?$_Tree_node@U?$pair@QAVCUser@@H@std@@PAX@1@@Z 005dc2a0 f i Npc.obj
 0002:0007d6f0       ??$_Insert_nohint@AAU?$pair@$$CBGPAVCUser@@@std@@PAU?$_Tree_node@U?$pair@$$CBGPAVCUser@@@std@@PAX@2@@?$_Tree@V?$_Tmap_traits@GPAVCUser@@U?$less@G@std@@V?$allocator@U?$pair@$$CBGPAVCUser@@@std@@@3@$0A@@std@@@std@@IAE?AU?$pair@V?$_Tree_iterator@V?$_Tree_val@U?$_Tree_simple_types@U?$pair@$$CBGPAVCUser@@@std@@@std@@@std@@@std@@_N@1@_NAAU?$pair@$$CBGPAVCUser@@@1@PAU?$_Tree_node@U?$pair@$$CBGPAVCUser@@@std@@PAX@1@@Z 005dd6f0 f i Npc.obj
 0002:0007dd20       ??$_Insert_nohint@AAU?$pair@QAVCUser@@H@std@@PAU?$_Tree_node@U?$pair@QAVCUser@@H@std@@PAX@2@@?$_Tree@V?$_Tmap_traits@PAVCUser@@HU?$less@PAVCUser@@@std@@V?$allocator@U?$pair@QAVCUser@@H@std@@@3@$0A@@std@@@std@@IAE?AU?$pair@V?$_Tree_iterator@V?$_Tree_val@U?$_Tree_simple_types@U?$pair@QAVCUser@@H@std@@@std@@@std@@@std@@_N@1@_NAAU?$pair@QAVCUser@@H@1@PAU?$_Tree_node@U?$pair@QAVCUser@@H@std@@PAX@1@@Z 005ddd20 f i Npc.obj
 0002:0007e350       ??$_Kfn@$$CBGPAVCUser@@@?$_Tmap_traits@GPAVCUser@@U?$less@G@std@@V?$allocator@U?$pair@$$CBGPAVCUser@@@std@@@3@$0A@@std@@SAABGABU?$pair@$$CBGPAVCUser@@@1@@Z 005de350 f i Npc.obj
 0002:0007e390       ??$_Kfn@$$CBIPAU_K_MONSTER_ITEM@@@?$_Tmap_traits@IPAU_K_MONSTER_ITEM@@U?$less@I@std@@V?$allocator@U?$pair@$$CBIPAU_K_MONSTER_ITEM@@@std@@@3@$0A@@std@@SAABIABU?$pair@$$CBIPAU_K_MONSTER_ITEM@@@1@@Z 005de390 f i Npc.obj
 0002:0007e3d0       ??$_Kfn@$$CBIPAU_MAKE_ITEM_GRADE_CODE@@@?$_Tmap_traits@IPAU_MAKE_ITEM_GRADE_CODE@@U?$less@I@std@@V?$allocator@U?$pair@$$CBIPAU_MAKE_ITEM_GRADE_CODE@@@std@@@3@$0A@@std@@SAABIABU?$pair@$$CBIPAU_MAKE_ITEM_GRADE_CODE@@@1@@Z 005de3d0 f i Npc.obj
 0002:0007e410       ??$_Kfn@$$CBIPAU_MAKE_ITEM_GROUP@@@?$_Tmap_traits@IPAU_MAKE_ITEM_GROUP@@U?$less@I@std@@V?$allocator@U?$pair@$$CBIPAU_MAKE_ITEM_GROUP@@@std@@@3@$0A@@std@@SAABIABU?$pair@$$CBIPAU_MAKE_ITEM_GROUP@@@1@@Z 005de410 f i Npc.obj
 0002:0007e450       ??$_Kfn@$$CBIPAU_MAKE_ITEM_LARE_CODE@@@?$_Tmap_traits@IPAU_MAKE_ITEM_LARE_CODE@@U?$less@I@std@@V?$allocator@U?$pair@$$CBIPAU_MAKE_ITEM_LARE_CODE@@@std@@@3@$0A@@std@@SAABIABU?$pair@$$CBIPAU_MAKE_ITEM_LARE_CODE@@@1@@Z 005de450 f i Npc.obj
 0002:0007e490       ??$_Kfn@$$CBIPAU_MAKE_WEAPON@@@?$_Tmap_traits@IPAU_MAKE_WEAPON@@U?$less@I@std@@V?$allocator@U?$pair@$$CBIPAU_MAKE_WEAPON@@@std@@@3@$0A@@std@@SAABIABU?$pair@$$CBIPAU_MAKE_WEAPON@@@1@@Z 005de490 f i Npc.obj
 0002:0007e4d0       ??$_Kfn@QAVCUser@@H@?$_Tmap_traits@PAVCUser@@HU?$less@PAVCUser@@@std@@V?$allocator@U?$pair@QAVCUser@@H@std@@@3@$0A@@std@@SAABQAVCUser@@ABU?$pair@QAVCUser@@H@1@@Z 005de4d0 f i Npc.obj
 0002:0007e510       ??$_Lbound@G@?$_Tree@V?$_Tmap_traits@GPAVCUser@@U?$less@G@std@@V?$allocator@U?$pair@$$CBGPAVCUser@@@std@@@3@$0A@@std@@@std@@IBEPAU?$_Tree_node@U?$pair@$$CBGPAVCUser@@@std@@PAX@1@ABG@Z 005de510 f i Npc.obj
 0002:0007e5e0       ??$_Lbound@I@?$_Tree@V?$_Tmap_traits@IPAU_K_MONSTER_ITEM@@U?$less@I@std@@V?$allocator@U?$pair@$$CBIPAU_K_MONSTER_ITEM@@@std@@@3@$0A@@std@@@std@@IBEPAU?$_Tree_node@U?$pair@$$CBIPAU_K_MONSTER_ITEM@@@std@@PAX@1@ABI@Z 005de5e0 f i Npc.obj
 0002:0007e6b0       ??$_Lbound@I@?$_Tree@V?$_Tmap_traits@IPAU_MAKE_ITEM_GRADE_CODE@@U?$less@I@std@@V?$allocator@U?$pair@$$CBIPAU_MAKE_ITEM_GRADE_CODE@@@std@@@3@$0A@@std@@@std@@IBEPAU?$_Tree_node@U?$pair@$$CBIPAU_MAKE_ITEM_GRADE_CODE@@@std@@PAX@1@ABI@Z 005de6b0 f i Npc.obj
 0002:0007e780       ??$_Lbound@I@?$_Tree@V?$_Tmap_traits@IPAU_MAKE_ITEM_GROUP@@U?$less@I@std@@V?$allocator@U?$pair@$$CBIPAU_MAKE_ITEM_GROUP@@@std@@@3@$0A@@std@@@std@@IBEPAU?$_Tree_node@U?$pair@$$CBIPAU_MAKE_ITEM_GROUP@@@std@@PAX@1@ABI@Z 005de780 f i Npc.obj
 0002:0007e850       ??$_Lbound@I@?$_Tree@V?$_Tmap_traits@IPAU_MAKE_ITEM_LARE_CODE@@U?$less@I@std@@V?$allocator@U?$pair@$$CBIPAU_MAKE_ITEM_LARE_CODE@@@std@@@3@$0A@@std@@@std@@IBEPAU?$_Tree_node@U?$pair@$$CBIPAU_MAKE_ITEM_LARE_CODE@@@std@@PAX@1@ABI@Z 005de850 f i Npc.obj
 0002:0007e920       ??$_Lbound@I@?$_Tree@V?$_Tmap_traits@IPAU_MAKE_WEAPON@@U?$less@I@std@@V?$allocator@U?$pair@$$CBIPAU_MAKE_WEAPON@@@std@@@3@$0A@@std@@@std@@IBEPAU?$_Tree_node@U?$pair@$$CBIPAU_MAKE_WEAPON@@@std@@PAX@1@ABI@Z 005de920 f i Npc.obj
 0002:0007e9f0       ??$_Lbound@PAVCUser@@@?$_Tree@V?$_Tmap_traits@PAVCUser@@HU?$less@PAVCUser@@@std@@V?$allocator@U?$pair@QAVCUser@@H@std@@@3@$0A@@std@@@std@@IBEPAU?$_Tree_node@U?$pair@QAVCUser@@H@std@@PAX@1@ABQAVCUser@@@Z 005de9f0 f i Npc.obj
 0002:0007eac0       ??$_Pocca@V?$allocator@D@std@@@std@@YAXAAV?$allocator@D@0@ABV10@@Z 005deac0 f i Npc.obj
 0002:0007eb50       ??$_Pocca@V?$allocator@D@std@@@std@@YAXAAV?$allocator@D@0@ABV10@U?$integral_constant@_N$0A@@0@@Z 005deb50 f i Npc.obj
 0002:0007eb80       ??$_Ptr_move_cat@II@std@@YA?AU_Really_trivial_ptr_iterator_tag@0@ABQAI0@Z 005deb80 f i Npc.obj
 0002:0007ed50       ??$_Rechecked@PAIPAI@std@@YAAAPAIAAPAIPAI@Z 005ded50 f i Npc.obj
 0002:0007f030       ??$_Try_emplace@ABQAVCUser@@$$V@?$map@PAVCUser@@HU?$less@PAVCUser@@@std@@V?$allocator@U?$pair@QAVCUser@@H@std@@@3@@std@@QAE?AU?$pair@V?$_Tree_iterator@V?$_Tree_val@U?$_Tree_simple_types@U?$pair@QAVCUser@@H@std@@@std@@@std@@@std@@_N@1@ABQAVCUser@@@Z 005df030 f i Npc.obj
 0002:0007f370       ??$_Unchecked@PAI@std@@YAPAIPAI@Z 005df370 f i Npc.obj
 0002:0007f3b0       ??$_Unfancy@I@std@@YAPAIPAI@Z 005df3b0 f i Npc.obj
 0002:0007f3f0       ??$_Uninitialized_move@PAIPAIV?$allocator@I@std@@@std@@YAPAIPAI00AAV?$allocator@I@0@@Z 005df3f0 f i Npc.obj
 0002:0007f520       ??$_Uninitialized_move_al_unchecked@IIV?$allocator@I@std@@@std@@YAPAIPAI00AAV?$allocator@I@0@U_Really_trivial_ptr_iterator_tag@0@U?$integral_constant@_N$00@0@@Z 005df520 f i Npc.obj
 0002:0007f580       ??$addressof@$$CBV?$basic_string@DU?$char_traits@D@std@@V?$allocator@D@2@@std@@@std@@YAPBV?$basic_string@DU?$char_traits@D@std@@V?$allocator@D@2@@0@ABV10@@Z 005df580 f i Npc.obj
 0002:0007f5c0       ??$addressof@PAU?$_Tree_node@U?$pair@$$CBGPAVCUser@@@std@@PAX@std@@@std@@YAPAPAU?$_Tree_node@U?$pair@$$CBGPAVCUser@@@std@@PAX@0@AAPAU10@@Z 005df5c0 f i Npc.obj
 0002:0007f600       ??$addressof@PAU?$_Tree_node@U?$pair@QAVCUser@@H@std@@PAX@std@@@std@@YAPAPAU?$_Tree_node@U?$pair@QAVCUser@@H@std@@PAX@0@AAPAU10@@Z 005df600 f i Npc.obj
 0002:0007f640       ??$addressof@U?$pair@$$CBGPAVCUser@@@std@@@std@@YAPAU?$pair@$$CBGPAVCUser@@@0@AAU10@@Z 005df640 f i Npc.obj
 0002:0007f680       ??$addressof@U?$pair@$$CBIPAU_K_MONSTER_ITEM@@@std@@@std@@YAPAU?$pair@$$CBIPAU_K_MONSTER_ITEM@@@0@AAU10@@Z 005df680 f i Npc.obj
 0002:0007f6c0       ??$addressof@U?$pair@$$CBIPAU_MAKE_ITEM_GRADE_CODE@@@std@@@std@@YAPAU?$pair@$$CBIPAU_MAKE_ITEM_GRADE_CODE@@@0@AAU10@@Z 005df6c0 f i Npc.obj
 0002:0007f700       ??$addressof@U?$pair@$$CBIPAU_MAKE_ITEM_GROUP@@@std@@@std@@YAPAU?$pair@$$CBIPAU_MAKE_ITEM_GROUP@@@0@AAU10@@Z 005df700 f i Npc.obj
 0002:0007f740       ??$addressof@U?$pair@$$CBIPAU_MAKE_ITEM_LARE_CODE@@@std@@@std@@YAPAU?$pair@$$CBIPAU_MAKE_ITEM_LARE_CODE@@@0@AAU10@@Z 005df740 f i Npc.obj
 0002:0007f780       ??$addressof@U?$pair@$$CBIPAU_MAKE_WEAPON@@@std@@@std@@YAPAU?$pair@$$CBIPAU_MAKE_WEAPON@@@0@AAU10@@Z 005df780 f i Npc.obj
 0002:0007f7c0       ??$addressof@U?$pair@QAVCUser@@H@std@@@std@@YAPAU?$pair@QAVCUser@@H@0@AAU10@@Z 005df7c0 f i Npc.obj
 0002:0007f800       ??$addressof@V?$_Tree_val@U?$_Tree_simple_types@U?$pair@$$CBGPAVCUser@@@std@@@std@@@std@@@std@@YAPAV?$_Tree_val@U?$_Tree_simple_types@U?$pair@$$CBGPAVCUser@@@std@@@std@@@0@AAV10@@Z 005df800 f i Npc.obj
 0002:0007f840       ??$addressof@V?$_Tree_val@U?$_Tree_simple_types@U?$pair@$$CBIPAU_K_MONSTER_ITEM@@@std@@@std@@@std@@@std@@YAPAV?$_Tree_val@U?$_Tree_simple_types@U?$pair@$$CBIPAU_K_MONSTER_ITEM@@@std@@@std@@@0@AAV10@@Z 005df840 f i Npc.obj
 0002:0007f880       ??$addressof@V?$_Tree_val@U?$_Tree_simple_types@U?$pair@$$CBIPAU_MAKE_ITEM_GRADE_CODE@@@std@@@std@@@std@@@std@@YAPAV?$_Tree_val@U?$_Tree_simple_types@U?$pair@$$CBIPAU_MAKE_ITEM_GRADE_CODE@@@std@@@std@@@0@AAV10@@Z 005df880 f i Npc.obj
 0002:0007f8c0       ??$addressof@V?$_Tree_val@U?$_Tree_simple_types@U?$pair@$$CBIPAU_MAKE_ITEM_GROUP@@@std@@@std@@@std@@@std@@YAPAV?$_Tree_val@U?$_Tree_simple_types@U?$pair@$$CBIPAU_MAKE_ITEM_GROUP@@@std@@@std@@@0@AAV10@@Z 005df8c0 f i Npc.obj
 0002:0007f900       ??$addressof@V?$_Tree_val@U?$_Tree_simple_types@U?$pair@$$CBIPAU_MAKE_ITEM_LARE_CODE@@@std@@@std@@@std@@@std@@YAPAV?$_Tree_val@U?$_Tree_simple_types@U?$pair@$$CBIPAU_MAKE_ITEM_LARE_CODE@@@std@@@std@@@0@AAV10@@Z 005df900 f i Npc.obj
 0002:0007f940       ??$addressof@V?$_Tree_val@U?$_Tree_simple_types@U?$pair@$$CBIPAU_MAKE_WEAPON@@@std@@@std@@@std@@@std@@YAPAV?$_Tree_val@U?$_Tree_simple_types@U?$pair@$$CBIPAU_MAKE_WEAPON@@@std@@@std@@@0@AAV10@@Z 005df940 f i Npc.obj
 0002:0007f980       ??$addressof@V?$_Tree_val@U?$_Tree_simple_types@U?$pair@QAVCUser@@H@std@@@std@@@std@@@std@@YAPAV?$_Tree_val@U?$_Tree_simple_types@U?$pair@QAVCUser@@H@std@@@std@@@0@AAV10@@Z 005df980 f i Npc.obj
 0002:0007f9c0       ??$addressof@V?$_Vector_val@U?$_Simple_types@I@std@@@std@@@std@@YAPAV?$_Vector_val@U?$_Simple_types@I@std@@@0@AAV10@@Z 005df9c0 f i Npc.obj
 0002:0007fa00       ??$append@D@ByteBuffer@@QAEXD@Z 005dfa00 f i Npc.obj
 0002:0007fa60       ??$append@H@ByteBuffer@@QAEXH@Z 005dfa60 f i Npc.obj
 0002:0007fac0       ??$append@I@ByteBuffer@@QAEXI@Z 005dfac0 f i Npc.obj
 0002:0007fb20       ??$append@M@ByteBuffer@@QAEXM@Z 005dfb20 f i Npc.obj
 0002:0007fb80       ??$append@_K@ByteBuffer@@QAEX_K@Z 005dfb80 f i Npc.obj
 0002:0007fbe0       ??$construct@IABI@?$_Default_allocator_traits@V?$allocator@I@std@@@std@@SAXAAV?$allocator@I@1@QAIABI@Z 005dfbe0 f i Npc.obj
 0002:0007fc60       ??$construct@PAU?$_Tree_node@U?$pair@$$CBGPAVCUser@@@std@@PAX@std@@AAPAU12@@?$_Default_allocator_traits@V?$allocator@U?$_Tree_node@U?$pair@$$CBGPAVCUser@@@std@@PAX@std@@@std@@@std@@SAXAAV?$allocator@U?$_Tree_node@U?$pair@$$CBGPAVCUser@@@std@@PAX@std@@@1@QAPAU?$_Tree_node@U?$pair@$$CBGPAVCUser@@@std@@PAX@1@AAPAU31@@Z 005dfc60 f i Npc.obj
 0002:0007fce0       ??$construct@PAU?$_Tree_node@U?$pair@QAVCUser@@H@std@@PAX@std@@AAPAU12@@?$_Default_allocator_traits@V?$allocator@U?$_Tree_node@U?$pair@QAVCUser@@H@std@@PAX@std@@@std@@@std@@SAXAAV?$allocator@U?$_Tree_node@U?$pair@QAVCUser@@H@std@@PAX@std@@@1@QAPAU?$_Tree_node@U?$pair@QAVCUser@@H@std@@PAX@1@AAPAU31@@Z 005dfce0 f i Npc.obj
 0002:0007fd60       ??$construct@U?$pair@$$CBGPAVCUser@@@std@@U?$pair@GPAVCUser@@@2@@?$_Default_allocator_traits@V?$allocator@U?$_Tree_node@U?$pair@$$CBGPAVCUser@@@std@@PAX@std@@@std@@@std@@SAXAAV?$allocator@U?$_Tree_node@U?$pair@$$CBGPAVCUser@@@std@@PAX@std@@@1@QAU?$pair@$$CBGPAVCUser@@@1@$$QAU?$pair@GPAVCUser@@@1@@Z 005dfd60 f i Npc.obj
 0002:0007fde0       ??$construct@U?$pair@QAVCUser@@H@std@@ABUpiecewise_construct_t@2@V?$tuple@ABQAVCUser@@@2@V?$tuple@$$V@2@@?$_Default_allocator_traits@V?$allocator@U?$_Tree_node@U?$pair@QAVCUser@@H@std@@PAX@std@@@std@@@std@@SAXAAV?$allocator@U?$_Tree_node@U?$pair@QAVCUser@@H@std@@PAX@std@@@1@QAU?$pair@QAVCUser@@H@1@ABUpiecewise_construct_t@1@$$QAV?$tuple@ABQAVCUser@@@1@$$QAV?$tuple@$$V@1@@Z 005dfde0 f i Npc.obj
 0002:0007ff00       ??$construct@U?$pair@QAVCUser@@H@std@@U?$pair@PAVCUser@@H@2@@?$_Default_allocator_traits@V?$allocator@U?$_Tree_node@U?$pair@QAVCUser@@H@std@@PAX@std@@@std@@@std@@SAXAAV?$allocator@U?$_Tree_node@U?$pair@QAVCUser@@H@std@@PAX@std@@@1@QAU?$pair@QAVCUser@@H@1@$$QAU?$pair@PAVCUser@@H@1@@Z 005dff00 f i Npc.obj
 0002:0007ff80       ??$destroy@I@?$_Default_allocator_traits@V?$allocator@I@std@@@std@@SAXAAV?$allocator@I@1@QAI@Z 005dff80 f i Npc.obj
 0002:0007ffb0       ??$destroy@PAU?$_Tree_node@U?$pair@$$CBGPAVCUser@@@std@@PAX@std@@@?$_Default_allocator_traits@V?$allocator@U?$_Tree_node@U?$pair@$$CBGPAVCUser@@@std@@PAX@std@@@std@@@std@@SAXAAV?$allocator@U?$_Tree_node@U?$pair@$$CBGPAVCUser@@@std@@PAX@std@@@1@QAPAU?$_Tree_node@U?$pair@$$CBGPAVCUser@@@std@@PAX@1@@Z 005dffb0 f i Npc.obj
 0002:0007ffe0       ??$destroy@PAU?$_Tree_node@U?$pair@QAVCUser@@H@std@@PAX@std@@@?$_Default_allocator_traits@V?$allocator@U?$_Tree_node@U?$pair@QAVCUser@@H@std@@PAX@std@@@std@@@std@@SAXAAV?$allocator@U?$_Tree_node@U?$pair@QAVCUser@@H@std@@PAX@std@@@1@QAPAU?$_Tree_node@U?$pair@QAVCUser@@H@std@@PAX@1@@Z 005dffe0 f i Npc.obj
 0002:00080010       ??$destroy@U?$pair@$$CBGPAVCUser@@@std@@@?$_Default_allocator_traits@V?$allocator@U?$_Tree_node@U?$pair@$$CBGPAVCUser@@@std@@PAX@std@@@std@@@std@@SAXAAV?$allocator@U?$_Tree_node@U?$pair@$$CBGPAVCUser@@@std@@PAX@std@@@1@QAU?$pair@$$CBGPAVCUser@@@1@@Z 005e0010 f i Npc.obj
 0002:00080040       ??$destroy@U?$pair@QAVCUser@@H@std@@@?$_Default_allocator_traits@V?$allocator@U?$_Tree_node@U?$pair@QAVCUser@@H@std@@PAX@std@@@std@@@std@@SAXAAV?$allocator@U?$_Tree_node@U?$pair@QAVCUser@@H@std@@PAX@std@@@1@QAU?$pair@QAVCUser@@H@1@@Z 005e0040 f i Npc.obj
 0002:00080070       ??$emplace@U?$pair@GPAVCUser@@@std@@@?$_Tree@V?$_Tmap_traits@GPAVCUser@@U?$less@G@std@@V?$allocator@U?$pair@$$CBGPAVCUser@@@std@@@3@$0A@@std@@@std@@QAE?AU?$pair@V?$_Tree_iterator@V?$_Tree_val@U?$_Tree_simple_types@U?$pair@$$CBGPAVCUser@@@std@@@std@@@std@@@std@@_N@1@$$QAU?$pair@GPAVCUser@@@1@@Z 005e0070 f i Npc.obj
 0002:00080120       ??$emplace@U?$pair@PAVCUser@@H@std@@@?$_Tree@V?$_Tmap_traits@PAVCUser@@HU?$less@PAVCUser@@@std@@V?$allocator@U?$pair@QAVCUser@@H@std@@@3@$0A@@std@@@std@@QAE?AU?$pair@V?$_Tree_iterator@V?$_Tree_val@U?$_Tree_simple_types@U?$pair@QAVCUser@@H@std@@@std@@@std@@@std@@_N@1@$$QAU?$pair@PAVCUser@@H@1@@Z 005e0120 f i Npc.obj
 0002:000801d0       ??$emplace_back@ABI@?$vector@IV?$allocator@I@std@@@std@@QAE@ABI@Z 005e01d0 f i Npc.obj
 0002:00080400       ??$emplace_hint@ABUpiecewise_construct_t@std@@V?$tuple@ABQAVCUser@@@2@V?$tuple@$$V@2@@?$_Tree@V?$_Tmap_traits@PAVCUser@@HU?$less@PAVCUser@@@std@@V?$allocator@U?$pair@QAVCUser@@H@std@@@3@$0A@@std@@@std@@QAE?AV?$_Tree_iterator@V?$_Tree_val@U?$_Tree_simple_types@U?$pair@QAVCUser@@H@std@@@std@@@std@@@1@V?$_Tree_const_iterator@V?$_Tree_val@U?$_Tree_simple_types@U?$pair@QAVCUser@@H@std@@@std@@@std@@@1@ABUpiecewise_construct_t@1@$$QAV?$tuple@ABQAVCUser@@@1@$$QAV?$tuple@$$V@1@@Z 005e0400 f i Npc.obj
 0002:00080540       ??$forward@AAH@std@@YAAAHAAH@Z 005e0540 f i Npc.obj
 0002:00080580       ??$forward@AAPAU?$_Tree_node@U?$pair@$$CBGPAVCUser@@@std@@PAX@std@@@std@@YAAAPAU?$_Tree_node@U?$pair@$$CBGPAVCUser@@@std@@PAX@0@AAPAU10@@Z 005e0580 f i Npc.obj
 0002:000805c0       ??$forward@AAPAU?$_Tree_node@U?$pair@QAVCUser@@H@std@@PAX@std@@@std@@YAAAPAU?$_Tree_node@U?$pair@QAVCUser@@H@std@@PAX@0@AAPAU10@@Z 005e05c0 f i Npc.obj
 0002:00080600       ??$forward@AAPAVCUser@@@std@@YAAAPAVCUser@@AAPAV1@@Z 005e0600 f i Npc.obj
 0002:00080640       ??$forward@AAU?$pair@$$CBGPAVCUser@@@std@@@std@@YAAAU?$pair@$$CBGPAVCUser@@@0@AAU10@@Z 005e0640 f i Npc.obj
 0002:00080680       ??$forward@AAU?$pair@QAVCUser@@H@std@@@std@@YAAAU?$pair@QAVCUser@@H@0@AAU10@@Z 005e0680 f i Npc.obj
 0002:000806c0       ??$forward@AAV?$_Tree_iterator@V?$_Tree_val@U?$_Tree_simple_types@U?$pair@$$CBGPAVCUser@@@std@@@std@@@std@@@std@@@std@@YAAAV?$_Tree_iterator@V?$_Tree_val@U?$_Tree_simple_types@U?$pair@$$CBGPAVCUser@@@std@@@std@@@std@@@0@AAV10@@Z 005e06c0 f i Npc.obj
 0002:00080700       ??$forward@AAV?$_Tree_iterator@V?$_Tree_val@U?$_Tree_simple_types@U?$pair@QAVCUser@@H@std@@@std@@@std@@@std@@@std@@YAAAV?$_Tree_iterator@V?$_Tree_val@U?$_Tree_simple_types@U?$pair@QAVCUser@@H@std@@@std@@@std@@@0@AAV10@@Z 005e0700 f i Npc.obj
 0002:00080740       ??$forward@ABI@std@@YAABIABI@Z 005e0740 f i Npc.obj
 0002:00080780       ??$forward@ABQAVCUser@@@std@@YAABQAVCUser@@ABQAV1@@Z 005e0780 f i Npc.obj
 0002:000807c0       ??$forward@ABU?$less@G@std@@@std@@YAABU?$less@G@0@ABU10@@Z 005e07c0 f i Npc.obj
 0002:00080800       ??$forward@ABU?$less@PAVCUser@@@std@@@std@@YAABU?$less@PAVCUser@@@0@ABU10@@Z 005e0800 f i Npc.obj
 0002:00080840       ??$forward@G@std@@YA$$QAGAAG@Z 005e0840 f i Npc.obj
 0002:00080880       ??$forward@H@std@@YA$$QAHAAH@Z 005e0880 f i Npc.obj
 0002:000808c0       ??$forward@PAVCUser@@@std@@YA$$QAPAVCUser@@AAPAV1@@Z 005e08c0 f i Npc.obj
 0002:00080900       ??$forward@U?$pair@GPAVCUser@@@std@@@std@@YA$$QAU?$pair@GPAVCUser@@@0@AAU10@@Z 005e0900 f i Npc.obj
 0002:00080940       ??$forward@U?$pair@PAVCUser@@H@std@@@std@@YA$$QAU?$pair@PAVCUser@@H@0@AAU10@@Z 005e0940 f i Npc.obj
 0002:00080980       ??$forward@V?$_Tree_iterator@V?$_Tree_val@U?$_Tree_simple_types@U?$pair@$$CBGPAVCUser@@@std@@@std@@@std@@@std@@@std@@YA$$QAV?$_Tree_iterator@V?$_Tree_val@U?$_Tree_simple_types@U?$pair@$$CBGPAVCUser@@@std@@@std@@@std@@@0@AAV10@@Z 005e0980 f i Npc.obj
 0002:000809c0       ??$forward@V?$_Tree_iterator@V?$_Tree_val@U?$_Tree_simple_types@U?$pair@QAVCUser@@H@std@@@std@@@std@@@std@@@std@@YA$$QAV?$_Tree_iterator@V?$_Tree_val@U?$_Tree_simple_types@U?$pair@QAVCUser@@H@std@@@std@@@std@@@0@AAV10@@Z 005e09c0 f i Npc.obj
 0002:00080a00       ??$forward@V?$tuple@ABQAVCUser@@@std@@@std@@YA$$QAV?$tuple@ABQAVCUser@@@0@AAV10@@Z 005e0a00 f i Npc.obj
 0002:00080a40       ??$forward_as_tuple@ABQAVCUser@@@std@@YA?AV?$tuple@ABQAVCUser@@@0@ABQAVCUser@@@Z 005e0a40 f i Npc.obj
 0002:00080ae0       ??$get@$0A@ABQAVCUser@@@std@@YAABQAVCUser@@$$QAV?$tuple@ABQAVCUser@@@0@@Z 005e0ae0 f i Npc.obj
 0002:00080b30       ??$insert@U?$pair@GPAVCUser@@@std@@X@?$map@GPAVCUser@@U?$less@G@std@@V?$allocator@U?$pair@$$CBGPAVCUser@@@std@@@3@@std@@QAE?AU?$pair@V?$_Tree_iterator@V?$_Tree_val@U?$_Tree_simple_types@U?$pair@$$CBGPAVCUser@@@std@@@std@@@std@@@std@@_N@1@$$QAU?$pair@GPAVCUser@@@1@@Z 005e0b30 f i Npc.obj
 0002:00080bc0       ??$insert@U?$pair@PAVCUser@@H@std@@X@?$map@PAVCUser@@HU?$less@PAVCUser@@@std@@V?$allocator@U?$pair@QAVCUser@@H@std@@@3@@std@@QAE?AU?$pair@V?$_Tree_iterator@V?$_Tree_val@U?$_Tree_simple_types@U?$pair@QAVCUser@@H@std@@@std@@@std@@@std@@_N@1@$$QAU?$pair@PAVCUser@@H@1@@Z 005e0bc0 f i Npc.obj
 0002:00080c50       ??$make_pair@AAPAVCUser@@AAH@std@@YA?AU?$pair@PAVCUser@@H@0@AAPAVCUser@@AAH@Z 005e0c50 f i Npc.obj
 0002:00080cc0       ??$make_pair@GAAPAVCUser@@@std@@YA?AU?$pair@GPAVCUser@@@0@$$QAGAAPAVCUser@@@Z 005e0cc0 f i Npc.obj
 0002:00080d30       ??$move@AAV?$tuple@ABQAVCUser@@@std@@@std@@YA$$QAV?$tuple@ABQAVCUser@@@0@AAV10@@Z 005e0d30 f i Npc.obj
 0002:00080d70       ??$try_emplace@$$V@?$map@PAVCUser@@HU?$less@PAVCUser@@@std@@V?$allocator@U?$pair@QAVCUser@@H@std@@@3@@std@@QAE?AU?$pair@V?$_Tree_iterator@V?$_Tree_val@U?$_Tree_simple_types@U?$pair@QAVCUser@@H@std@@@std@@@std@@@std@@_N@1@ABQAVCUser@@@Z 005e0d70 f i Npc.obj
 0002:00080e40       ??0?$_Tree@V?$_Tmap_traits@GPAVCUser@@U?$less@G@std@@V?$allocator@U?$pair@$$CBGPAVCUser@@@std@@@3@$0A@@std@@@std@@QAE@ABU?$less@G@1@@Z 005e0e40 f i Npc.obj
 0002:00080ea0       ??0?$_Tree@V?$_Tmap_traits@PAVCUser@@HU?$less@PAVCUser@@@std@@V?$allocator@U?$pair@QAVCUser@@H@std@@@3@$0A@@std@@@std@@QAE@ABU?$less@PAVCUser@@@1@@Z 005e0ea0 f i Npc.obj
 0002:00080f00       ??0?$_Tree_comp_alloc@V?$_Tmap_traits@GPAVCUser@@U?$less@G@std@@V?$allocator@U?$pair@$$CBGPAVCUser@@@std@@@3@$0A@@std@@@std@@QAE@ABU?$less@G@1@@Z 005e0f00 f i Npc.obj
 0002:00080fc0       ??0?$_Tree_comp_alloc@V?$_Tmap_traits@PAVCUser@@HU?$less@PAVCUser@@@std@@V?$allocator@U?$pair@QAVCUser@@H@std@@@3@$0A@@std@@@std@@QAE@ABU?$less@PAVCUser@@@1@@Z 005e0fc0 f i Npc.obj
 0002:00081080       ??0?$_Tree_const_iterator@V?$_Tree_val@U?$_Tree_simple_types@U?$pair@$$CBGPAVCUser@@@std@@@std@@@std@@@std@@QAE@$$QAV01@@Z 005e1080 f i Npc.obj
 0002:000810e0       ??0?$_Tree_const_iterator@V?$_Tree_val@U?$_Tree_simple_types@U?$pair@$$CBGPAVCUser@@@std@@@std@@@std@@@std@@QAE@ABV01@@Z 005e10e0 f i Npc.obj
 0002:00081140       ??0?$_Tree_const_iterator@V?$_Tree_val@U?$_Tree_simple_types@U?$pair@$$CBGPAVCUser@@@std@@@std@@@std@@@std@@QAE@PAU?$_Tree_node@U?$pair@$$CBGPAVCUser@@@std@@PAX@1@PBV?$_Tree_val@U?$_Tree_simple_types@U?$pair@$$CBGPAVCUser@@@std@@@std@@@1@@Z 005e1140 f i Npc.obj
 0002:000811a0       ??0?$_Tree_const_iterator@V?$_Tree_val@U?$_Tree_simple_types@U?$pair@$$CBIPAU_K_MONSTER_ITEM@@@std@@@std@@@std@@@std@@QAE@$$QAV01@@Z 005e11a0 f i Npc.obj
 0002:00081200       ??0?$_Tree_const_iterator@V?$_Tree_val@U?$_Tree_simple_types@U?$pair@$$CBIPAU_K_MONSTER_ITEM@@@std@@@std@@@std@@@std@@QAE@ABV01@@Z 005e1200 f i Npc.obj
 0002:00081260       ??0?$_Tree_const_iterator@V?$_Tree_val@U?$_Tree_simple_types@U?$pair@$$CBIPAU_K_MONSTER_ITEM@@@std@@@std@@@std@@@std@@QAE@PAU?$_Tree_node@U?$pair@$$CBIPAU_K_MONSTER_ITEM@@@std@@PAX@1@PBV?$_Tree_val@U?$_Tree_simple_types@U?$pair@$$CBIPAU_K_MONSTER_ITEM@@@std@@@std@@@1@@Z 005e1260 f i Npc.obj
 0002:000812c0       ??0?$_Tree_const_iterator@V?$_Tree_val@U?$_Tree_simple_types@U?$pair@$$CBIPAU_MAKE_ITEM_GRADE_CODE@@@std@@@std@@@std@@@std@@QAE@$$QAV01@@Z 005e12c0 f i Npc.obj
 0002:00081320       ??0?$_Tree_const_iterator@V?$_Tree_val@U?$_Tree_simple_types@U?$pair@$$CBIPAU_MAKE_ITEM_GRADE_CODE@@@std@@@std@@@std@@@std@@QAE@ABV01@@Z 005e1320 f i Npc.obj
 0002:00081380       ??0?$_Tree_const_iterator@V?$_Tree_val@U?$_Tree_simple_types@U?$pair@$$CBIPAU_MAKE_ITEM_GRADE_CODE@@@std@@@std@@@std@@@std@@QAE@PAU?$_Tree_node@U?$pair@$$CBIPAU_MAKE_ITEM_GRADE_CODE@@@std@@PAX@1@PBV?$_Tree_val@U?$_Tree_simple_types@U?$pair@$$CBIPAU_MAKE_ITEM_GRADE_CODE@@@std@@@std@@@1@@Z 005e1380 f i Npc.obj
 0002:000813e0       ??0?$_Tree_const_iterator@V?$_Tree_val@U?$_Tree_simple_types@U?$pair@$$CBIPAU_MAKE_ITEM_GROUP@@@std@@@std@@@std@@@std@@QAE@$$QAV01@@Z 005e13e0 f i Npc.obj
 0002:00081440       ??0?$_Tree_const_iterator@V?$_Tree_val@U?$_Tree_simple_types@U?$pair@$$CBIPAU_MAKE_ITEM_GROUP@@@std@@@std@@@std@@@std@@QAE@ABV01@@Z 005e1440 f i Npc.obj
 0002:000814a0       ??0?$_Tree_const_iterator@V?$_Tree_val@U?$_Tree_simple_types@U?$pair@$$CBIPAU_MAKE_ITEM_GROUP@@@std@@@std@@@std@@@std@@QAE@PAU?$_Tree_node@U?$pair@$$CBIPAU_MAKE_ITEM_GROUP@@@std@@PAX@1@PBV?$_Tree_val@U?$_Tree_simple_types@U?$pair@$$CBIPAU_MAKE_ITEM_GROUP@@@std@@@std@@@1@@Z 005e14a0 f i Npc.obj
 0002:00081500       ??0?$_Tree_const_iterator@V?$_Tree_val@U?$_Tree_simple_types@U?$pair@$$CBIPAU_MAKE_ITEM_LARE_CODE@@@std@@@std@@@std@@@std@@QAE@$$QAV01@@Z 005e1500 f i Npc.obj
 0002:00081560       ??0?$_Tree_const_iterator@V?$_Tree_val@U?$_Tree_simple_types@U?$pair@$$CBIPAU_MAKE_ITEM_LARE_CODE@@@std@@@std@@@std@@@std@@QAE@ABV01@@Z 005e1560 f i Npc.obj
 0002:000815c0       ??0?$_Tree_const_iterator@V?$_Tree_val@U?$_Tree_simple_types@U?$pair@$$CBIPAU_MAKE_ITEM_LARE_CODE@@@std@@@std@@@std@@@std@@QAE@PAU?$_Tree_node@U?$pair@$$CBIPAU_MAKE_ITEM_LARE_CODE@@@std@@PAX@1@PBV?$_Tree_val@U?$_Tree_simple_types@U?$pair@$$CBIPAU_MAKE_ITEM_LARE_CODE@@@std@@@std@@@1@@Z 005e15c0 f i Npc.obj
 0002:00081620       ??0?$_Tree_const_iterator@V?$_Tree_val@U?$_Tree_simple_types@U?$pair@$$CBIPAU_MAKE_WEAPON@@@std@@@std@@@std@@@std@@QAE@$$QAV01@@Z 005e1620 f i Npc.obj
 0002:00081680       ??0?$_Tree_const_iterator@V?$_Tree_val@U?$_Tree_simple_types@U?$pair@$$CBIPAU_MAKE_WEAPON@@@std@@@std@@@std@@@std@@QAE@ABV01@@Z 005e1680 f i Npc.obj
 0002:000816e0       ??0?$_Tree_const_iterator@V?$_Tree_val@U?$_Tree_simple_types@U?$pair@$$CBIPAU_MAKE_WEAPON@@@std@@@std@@@std@@@std@@QAE@PAU?$_Tree_node@U?$pair@$$CBIPAU_MAKE_WEAPON@@@std@@PAX@1@PBV?$_Tree_val@U?$_Tree_simple_types@U?$pair@$$CBIPAU_MAKE_WEAPON@@@std@@@std@@@1@@Z 005e16e0 f i Npc.obj
 0002:00081740       ??0?$_Tree_const_iterator@V?$_Tree_val@U?$_Tree_simple_types@U?$pair@QAVCUser@@H@std@@@std@@@std@@@std@@QAE@$$QAV01@@Z 005e1740 f i Npc.obj
 0002:000817a0       ??0?$_Tree_const_iterator@V?$_Tree_val@U?$_Tree_simple_types@U?$pair@QAVCUser@@H@std@@@std@@@std@@@std@@QAE@ABV01@@Z 005e17a0 f i Npc.obj
 0002:00081800       ??0?$_Tree_const_iterator@V?$_Tree_val@U?$_Tree_simple_types@U?$pair@QAVCUser@@H@std@@@std@@@std@@@std@@QAE@PAU?$_Tree_node@U?$pair@QAVCUser@@H@std@@PAX@1@PBV?$_Tree_val@U?$_Tree_simple_types@U?$pair@QAVCUser@@H@std@@@std@@@1@@Z 005e1800 f i Npc.obj
 0002:00081860       ??0?$_Tree_const_iterator@V?$_Tree_val@U?$_Tree_simple_types@U?$pair@QAVCUser@@H@std@@@std@@@std@@@std@@QAE@XZ 005e1860 f i Npc.obj
 0002:000818c0       ??0?$_Tree_iterator@V?$_Tree_val@U?$_Tree_simple_types@U?$pair@$$CBGPAVCUser@@@std@@@std@@@std@@@std@@QAE@$$QAV01@@Z 005e18c0 f i Npc.obj
 0002:00081920       ??0?$_Tree_iterator@V?$_Tree_val@U?$_Tree_simple_types@U?$pair@$$CBGPAVCUser@@@std@@@std@@@std@@@std@@QAE@ABV01@@Z 005e1920 f i Npc.obj
 0002:00081980       ??0?$_Tree_iterator@V?$_Tree_val@U?$_Tree_simple_types@U?$pair@$$CBGPAVCUser@@@std@@@std@@@std@@@std@@QAE@PAU?$_Tree_node@U?$pair@$$CBGPAVCUser@@@std@@PAX@1@PBV?$_Tree_val@U?$_Tree_simple_types@U?$pair@$$CBGPAVCUser@@@std@@@std@@@1@@Z 005e1980 f i Npc.obj
 0002:000819e0       ??0?$_Tree_iterator@V?$_Tree_val@U?$_Tree_simple_types@U?$pair@$$CBIPAU_K_MONSTER_ITEM@@@std@@@std@@@std@@@std@@QAE@$$QAV01@@Z 005e19e0 f i Npc.obj
 0002:00081a40       ??0?$_Tree_iterator@V?$_Tree_val@U?$_Tree_simple_types@U?$pair@$$CBIPAU_K_MONSTER_ITEM@@@std@@@std@@@std@@@std@@QAE@ABV01@@Z 005e1a40 f i Npc.obj
 0002:00081aa0       ??0?$_Tree_iterator@V?$_Tree_val@U?$_Tree_simple_types@U?$pair@$$CBIPAU_K_MONSTER_ITEM@@@std@@@std@@@std@@@std@@QAE@PAU?$_Tree_node@U?$pair@$$CBIPAU_K_MONSTER_ITEM@@@std@@PAX@1@PBV?$_Tree_val@U?$_Tree_simple_types@U?$pair@$$CBIPAU_K_MONSTER_ITEM@@@std@@@std@@@1@@Z 005e1aa0 f i Npc.obj
 0002:00081b00       ??0?$_Tree_iterator@V?$_Tree_val@U?$_Tree_simple_types@U?$pair@$$CBIPAU_MAKE_ITEM_GRADE_CODE@@@std@@@std@@@std@@@std@@QAE@$$QAV01@@Z 005e1b00 f i Npc.obj
 0002:00081b60       ??0?$_Tree_iterator@V?$_Tree_val@U?$_Tree_simple_types@U?$pair@$$CBIPAU_MAKE_ITEM_GRADE_CODE@@@std@@@std@@@std@@@std@@QAE@ABV01@@Z 005e1b60 f i Npc.obj
 0002:00081bc0       ??0?$_Tree_iterator@V?$_Tree_val@U?$_Tree_simple_types@U?$pair@$$CBIPAU_MAKE_ITEM_GRADE_CODE@@@std@@@std@@@std@@@std@@QAE@PAU?$_Tree_node@U?$pair@$$CBIPAU_MAKE_ITEM_GRADE_CODE@@@std@@PAX@1@PBV?$_Tree_val@U?$_Tree_simple_types@U?$pair@$$CBIPAU_MAKE_ITEM_GRADE_CODE@@@std@@@std@@@1@@Z 005e1bc0 f i Npc.obj
 0002:00081c20       ??0?$_Tree_iterator@V?$_Tree_val@U?$_Tree_simple_types@U?$pair@$$CBIPAU_MAKE_ITEM_GROUP@@@std@@@std@@@std@@@std@@QAE@$$QAV01@@Z 005e1c20 f i Npc.obj
 0002:00081c80       ??0?$_Tree_iterator@V?$_Tree_val@U?$_Tree_simple_types@U?$pair@$$CBIPAU_MAKE_ITEM_GROUP@@@std@@@std@@@std@@@std@@QAE@ABV01@@Z 005e1c80 f i Npc.obj
 0002:00081ce0       ??0?$_Tree_iterator@V?$_Tree_val@U?$_Tree_simple_types@U?$pair@$$CBIPAU_MAKE_ITEM_GROUP@@@std@@@std@@@std@@@std@@QAE@PAU?$_Tree_node@U?$pair@$$CBIPAU_MAKE_ITEM_GROUP@@@std@@PAX@1@PBV?$_Tree_val@U?$_Tree_simple_types@U?$pair@$$CBIPAU_MAKE_ITEM_GROUP@@@std@@@std@@@1@@Z 005e1ce0 f i Npc.obj
 0002:00081d40       ??0?$_Tree_iterator@V?$_Tree_val@U?$_Tree_simple_types@U?$pair@$$CBIPAU_MAKE_ITEM_LARE_CODE@@@std@@@std@@@std@@@std@@QAE@$$QAV01@@Z 005e1d40 f i Npc.obj
 0002:00081da0       ??0?$_Tree_iterator@V?$_Tree_val@U?$_Tree_simple_types@U?$pair@$$CBIPAU_MAKE_ITEM_LARE_CODE@@@std@@@std@@@std@@@std@@QAE@ABV01@@Z 005e1da0 f i Npc.obj
 0002:00081e00       ??0?$_Tree_iterator@V?$_Tree_val@U?$_Tree_simple_types@U?$pair@$$CBIPAU_MAKE_ITEM_LARE_CODE@@@std@@@std@@@std@@@std@@QAE@PAU?$_Tree_node@U?$pair@$$CBIPAU_MAKE_ITEM_LARE_CODE@@@std@@PAX@1@PBV?$_Tree_val@U?$_Tree_simple_types@U?$pair@$$CBIPAU_MAKE_ITEM_LARE_CODE@@@std@@@std@@@1@@Z 005e1e00 f i Npc.obj
 0002:00081e60       ??0?$_Tree_iterator@V?$_Tree_val@U?$_Tree_simple_types@U?$pair@$$CBIPAU_MAKE_WEAPON@@@std@@@std@@@std@@@std@@QAE@$$QAV01@@Z 005e1e60 f i Npc.obj
 0002:00081ec0       ??0?$_Tree_iterator@V?$_Tree_val@U?$_Tree_simple_types@U?$pair@$$CBIPAU_MAKE_WEAPON@@@std@@@std@@@std@@@std@@QAE@ABV01@@Z 005e1ec0 f i Npc.obj
 0002:00081f20       ??0?$_Tree_iterator@V?$_Tree_val@U?$_Tree_simple_types@U?$pair@$$CBIPAU_MAKE_WEAPON@@@std@@@std@@@std@@@std@@QAE@PAU?$_Tree_node@U?$pair@$$CBIPAU_MAKE_WEAPON@@@std@@PAX@1@PBV?$_Tree_val@U?$_Tree_simple_types@U?$pair@$$CBIPAU_MAKE_WEAPON@@@std@@@std@@@1@@Z 005e1f20 f i Npc.obj
 0002:00081f80       ??0?$_Tree_iterator@V?$_Tree_val@U?$_Tree_simple_types@U?$pair@QAVCUser@@H@std@@@std@@@std@@@std@@QAE@$$QAV01@@Z 005e1f80 f i Npc.obj
 0002:00081fe0       ??0?$_Tree_iterator@V?$_Tree_val@U?$_Tree_simple_types@U?$pair@QAVCUser@@H@std@@@std@@@std@@@std@@QAE@ABV01@@Z 005e1fe0 f i Npc.obj
 0002:00082040       ??0?$_Tree_iterator@V?$_Tree_val@U?$_Tree_simple_types@U?$pair@QAVCUser@@H@std@@@std@@@std@@@std@@QAE@PAU?$_Tree_node@U?$pair@QAVCUser@@H@std@@PAX@1@PBV?$_Tree_val@U?$_Tree_simple_types@U?$pair@QAVCUser@@H@std@@@std@@@1@@Z 005e2040 f i Npc.obj
 0002:000820a0       ??0?$_Tree_unchecked_const_iterator@V?$_Tree_val@U?$_Tree_simple_types@U?$pair@$$CBGPAVCUser@@@std@@@std@@@std@@U_Iterator_base12@2@@std@@QAE@$$QAV01@@Z 005e20a0 f i Npc.obj
 0002:00082110       ??0?$_Tree_unchecked_const_iterator@V?$_Tree_val@U?$_Tree_simple_types@U?$pair@$$CBGPAVCUser@@@std@@@std@@@std@@U_Iterator_base12@2@@std@@QAE@ABV01@@Z 005e2110 f i Npc.obj
 0002:00082180       ??0?$_Tree_unchecked_const_iterator@V?$_Tree_val@U?$_Tree_simple_types@U?$pair@$$CBGPAVCUser@@@std@@@std@@@std@@U_Iterator_base12@2@@std@@QAE@PAU?$_Tree_node@U?$pair@$$CBGPAVCUser@@@std@@PAX@1@PBV?$_Tree_val@U?$_Tree_simple_types@U?$pair@$$CBGPAVCUser@@@std@@@std@@@1@@Z 005e2180 f i Npc.obj
 0002:000821f0       ??0?$_Tree_unchecked_const_iterator@V?$_Tree_val@U?$_Tree_simple_types@U?$pair@$$CBIPAU_K_MONSTER_ITEM@@@std@@@std@@@std@@U_Iterator_base12@2@@std@@QAE@$$QAV01@@Z 005e21f0 f i Npc.obj
 0002:00082260       ??0?$_Tree_unchecked_const_iterator@V?$_Tree_val@U?$_Tree_simple_types@U?$pair@$$CBIPAU_K_MONSTER_ITEM@@@std@@@std@@@std@@U_Iterator_base12@2@@std@@QAE@ABV01@@Z 005e2260 f i Npc.obj
 0002:000822d0       ??0?$_Tree_unchecked_const_iterator@V?$_Tree_val@U?$_Tree_simple_types@U?$pair@$$CBIPAU_K_MONSTER_ITEM@@@std@@@std@@@std@@U_Iterator_base12@2@@std@@QAE@PAU?$_Tree_node@U?$pair@$$CBIPAU_K_MONSTER_ITEM@@@std@@PAX@1@PBV?$_Tree_val@U?$_Tree_simple_types@U?$pair@$$CBIPAU_K_MONSTER_ITEM@@@std@@@std@@@1@@Z 005e22d0 f i Npc.obj
 0002:00082340       ??0?$_Tree_unchecked_const_iterator@V?$_Tree_val@U?$_Tree_simple_types@U?$pair@$$CBIPAU_MAKE_ITEM_GRADE_CODE@@@std@@@std@@@std@@U_Iterator_base12@2@@std@@QAE@$$QAV01@@Z 005e2340 f i Npc.obj
 0002:000823b0       ??0?$_Tree_unchecked_const_iterator@V?$_Tree_val@U?$_Tree_simple_types@U?$pair@$$CBIPAU_MAKE_ITEM_GRADE_CODE@@@std@@@std@@@std@@U_Iterator_base12@2@@std@@QAE@ABV01@@Z 005e23b0 f i Npc.obj
 0002:00082420       ??0?$_Tree_unchecked_const_iterator@V?$_Tree_val@U?$_Tree_simple_types@U?$pair@$$CBIPAU_MAKE_ITEM_GRADE_CODE@@@std@@@std@@@std@@U_Iterator_base12@2@@std@@QAE@PAU?$_Tree_node@U?$pair@$$CBIPAU_MAKE_ITEM_GRADE_CODE@@@std@@PAX@1@PBV?$_Tree_val@U?$_Tree_simple_types@U?$pair@$$CBIPAU_MAKE_ITEM_GRADE_CODE@@@std@@@std@@@1@@Z 005e2420 f i Npc.obj
 0002:00082490       ??0?$_Tree_unchecked_const_iterator@V?$_Tree_val@U?$_Tree_simple_types@U?$pair@$$CBIPAU_MAKE_ITEM_GROUP@@@std@@@std@@@std@@U_Iterator_base12@2@@std@@QAE@$$QAV01@@Z 005e2490 f i Npc.obj
 0002:00082500       ??0?$_Tree_unchecked_const_iterator@V?$_Tree_val@U?$_Tree_simple_types@U?$pair@$$CBIPAU_MAKE_ITEM_GROUP@@@std@@@std@@@std@@U_Iterator_base12@2@@std@@QAE@ABV01@@Z 005e2500 f i Npc.obj
 0002:00082570       ??0?$_Tree_unchecked_const_iterator@V?$_Tree_val@U?$_Tree_simple_types@U?$pair@$$CBIPAU_MAKE_ITEM_GROUP@@@std@@@std@@@std@@U_Iterator_base12@2@@std@@QAE@PAU?$_Tree_node@U?$pair@$$CBIPAU_MAKE_ITEM_GROUP@@@std@@PAX@1@PBV?$_Tree_val@U?$_Tree_simple_types@U?$pair@$$CBIPAU_MAKE_ITEM_GROUP@@@std@@@std@@@1@@Z 005e2570 f i Npc.obj
 0002:000825e0       ??0?$_Tree_unchecked_const_iterator@V?$_Tree_val@U?$_Tree_simple_types@U?$pair@$$CBIPAU_MAKE_ITEM_LARE_CODE@@@std@@@std@@@std@@U_Iterator_base12@2@@std@@QAE@$$QAV01@@Z 005e25e0 f i Npc.obj
 0002:00082650       ??0?$_Tree_unchecked_const_iterator@V?$_Tree_val@U?$_Tree_simple_types@U?$pair@$$CBIPAU_MAKE_ITEM_LARE_CODE@@@std@@@std@@@std@@U_Iterator_base12@2@@std@@QAE@ABV01@@Z 005e2650 f i Npc.obj
 0002:000826c0       ??0?$_Tree_unchecked_const_iterator@V?$_Tree_val@U?$_Tree_simple_types@U?$pair@$$CBIPAU_MAKE_ITEM_LARE_CODE@@@std@@@std@@@std@@U_Iterator_base12@2@@std@@QAE@PAU?$_Tree_node@U?$pair@$$CBIPAU_MAKE_ITEM_LARE_CODE@@@std@@PAX@1@PBV?$_Tree_val@U?$_Tree_simple_types@U?$pair@$$CBIPAU_MAKE_ITEM_LARE_CODE@@@std@@@std@@@1@@Z 005e26c0 f i Npc.obj
 0002:00082730       ??0?$_Tree_unchecked_const_iterator@V?$_Tree_val@U?$_Tree_simple_types@U?$pair@$$CBIPAU_MAKE_WEAPON@@@std@@@std@@@std@@U_Iterator_base12@2@@std@@QAE@$$QAV01@@Z 005e2730 f i Npc.obj
 0002:000827a0       ??0?$_Tree_unchecked_const_iterator@V?$_Tree_val@U?$_Tree_simple_types@U?$pair@$$CBIPAU_MAKE_WEAPON@@@std@@@std@@@std@@U_Iterator_base12@2@@std@@QAE@ABV01@@Z 005e27a0 f i Npc.obj
 0002:00082810       ??0?$_Tree_unchecked_const_iterator@V?$_Tree_val@U?$_Tree_simple_types@U?$pair@$$CBIPAU_MAKE_WEAPON@@@std@@@std@@@std@@U_Iterator_base12@2@@std@@QAE@PAU?$_Tree_node@U?$pair@$$CBIPAU_MAKE_WEAPON@@@std@@PAX@1@PBV?$_Tree_val@U?$_Tree_simple_types@U?$pair@$$CBIPAU_MAKE_WEAPON@@@std@@@std@@@1@@Z 005e2810 f i Npc.obj
 0002:00082880       ??0?$_Tree_unchecked_const_iterator@V?$_Tree_val@U?$_Tree_simple_types@U?$pair@QAVCUser@@H@std@@@std@@@std@@U_Iterator_base12@2@@std@@QAE@$$QAV01@@Z 005e2880 f i Npc.obj
 0002:000828f0       ??0?$_Tree_unchecked_const_iterator@V?$_Tree_val@U?$_Tree_simple_types@U?$pair@QAVCUser@@H@std@@@std@@@std@@U_Iterator_base12@2@@std@@QAE@ABV01@@Z 005e28f0 f i Npc.obj
 0002:00082960       ??0?$_Tree_unchecked_const_iterator@V?$_Tree_val@U?$_Tree_simple_types@U?$pair@QAVCUser@@H@std@@@std@@@std@@U_Iterator_base12@2@@std@@QAE@PAU?$_Tree_node@U?$pair@QAVCUser@@H@std@@PAX@1@PBV?$_Tree_val@U?$_Tree_simple_types@U?$pair@QAVCUser@@H@std@@@std@@@1@@Z 005e2960 f i Npc.obj
 0002:000829d0       ??0?$_Tree_unchecked_const_iterator@V?$_Tree_val@U?$_Tree_simple_types@U?$pair@QAVCUser@@H@std@@@std@@@std@@U_Iterator_base12@2@@std@@QAE@XZ 005e29d0 f i Npc.obj
 0002:00082a30       ??0?$_Tree_val@U?$_Tree_simple_types@U?$pair@$$CBGPAVCUser@@@std@@@std@@@std@@QAE@XZ 005e2a30 f i Npc.obj
 0002:00082aa0       ??0?$_Tree_val@U?$_Tree_simple_types@U?$pair@QAVCUser@@H@std@@@std@@@std@@QAE@XZ 005e2aa0 f i Npc.obj
 0002:00082b10       ??0?$_Vector_alloc@U?$_Vec_base_types@IV?$allocator@I@std@@@std@@@std@@QAE@XZ 005e2b10 f i Npc.obj
 0002:00082bc0       ??0?$_Vector_val@U?$_Simple_types@I@std@@@std@@QAE@XZ 005e2bc0 f i Npc.obj
 0002:00082c40       ??0?$allocator@I@std@@QAE@XZ 005e2c40 f i Npc.obj
 0002:00082c80       ??0?$allocator@U?$_Tree_node@U?$pair@$$CBGPAVCUser@@@std@@PAX@std@@@std@@QAE@XZ 005e2c80 f i Npc.obj
 0002:00082cc0       ??0?$allocator@U?$_Tree_node@U?$pair@QAVCUser@@H@std@@PAX@std@@@std@@QAE@XZ 005e2cc0 f i Npc.obj
 0002:00082d00       ??0?$map@GPAVCUser@@U?$less@G@std@@V?$allocator@U?$pair@$$CBGPAVCUser@@@std@@@3@@std@@QAE@XZ 005e2d00 f i Npc.obj
 0002:00082d60       ??0?$map@PAVCUser@@HU?$less@PAVCUser@@@std@@V?$allocator@U?$pair@QAVCUser@@H@std@@@3@@std@@QAE@XZ 005e2d60 f i Npc.obj
 0002:00082dc0       ??0?$tuple@ABQAVCUser@@@std@@QAE@$$QAV01@@Z 005e2dc0 f i Npc.obj
 0002:00082e30       ??0?$vector@IV?$allocator@I@std@@@std@@QAE@XZ 005e2e30 f i Npc.obj
 0002:00082ec0       ??0CNpc@@QAE@XZ            005e2ec0 f   Npc.obj
 0002:000833b0       ??0CPoint@@QAE@XZ          005e33b0 f i Npc.obj
 0002:000833f0       ??0__Matrix44@@QAE@XZ      005e33f0 f i Npc.obj
 0002:00083430       ??1?$_Compressed_pair@U?$less@G@std@@V?$_Compressed_pair@V?$allocator@U?$_Tree_node@U?$pair@$$CBGPAVCUser@@@std@@PAX@std@@@std@@V?$_Tree_val@U?$_Tree_simple_types@U?$pair@$$CBGPAVCUser@@@std@@@std@@@2@$00@2@$00@std@@QAE@XZ 005e3430 f i Npc.obj
 0002:00083480       ??1?$_Compressed_pair@U?$less@PAVCUser@@@std@@V?$_Compressed_pair@V?$allocator@U?$_Tree_node@U?$pair@QAVCUser@@H@std@@PAX@std@@@std@@V?$_Tree_val@U?$_Tree_simple_types@U?$pair@QAVCUser@@H@std@@@std@@@2@$00@2@$00@std@@QAE@XZ 005e3480 f i Npc.obj
 0002:000834d0       ??1?$_Compressed_pair@V?$allocator@I@std@@V?$_Vector_val@U?$_Simple_types@I@std@@@2@$00@std@@QAE@XZ 005e34d0 f i Npc.obj
 0002:00083520       ??1?$_Compressed_pair@V?$allocator@U?$_Tree_node@U?$pair@$$CBGPAVCUser@@@std@@PAX@std@@@std@@V?$_Tree_val@U?$_Tree_simple_types@U?$pair@$$CBGPAVCUser@@@std@@@std@@@2@$00@std@@QAE@XZ 005e3520 f i Npc.obj
 0002:00083570       ??1?$_Compressed_pair@V?$allocator@U?$_Tree_node@U?$pair@QAVCUser@@H@std@@PAX@std@@@std@@V?$_Tree_val@U?$_Tree_simple_types@U?$pair@QAVCUser@@H@std@@@std@@@2@$00@std@@QAE@XZ 005e3570 f i Npc.obj
 0002:000835c0       ??1?$_Tree@V?$_Tmap_traits@GPAVCUser@@U?$less@G@std@@V?$allocator@U?$pair@$$CBGPAVCUser@@@std@@@3@$0A@@std@@@std@@QAE@XZ 005e35c0 f i Npc.obj
 0002:00083650       ??1?$_Tree@V?$_Tmap_traits@PAVCUser@@HU?$less@PAVCUser@@@std@@V?$allocator@U?$pair@QAVCUser@@H@std@@@3@$0A@@std@@@std@@QAE@XZ 005e3650 f i Npc.obj
 0002:000836e0       ??1?$_Tree_comp_alloc@V?$_Tmap_traits@GPAVCUser@@U?$less@G@std@@V?$allocator@U?$pair@$$CBGPAVCUser@@@std@@@3@$0A@@std@@@std@@QAE@XZ 005e36e0 f i Npc.obj
 0002:00083790       ??1?$_Tree_comp_alloc@V?$_Tmap_traits@PAVCUser@@HU?$less@PAVCUser@@@std@@V?$allocator@U?$pair@QAVCUser@@H@std@@@3@$0A@@std@@@std@@QAE@XZ 005e3790 f i Npc.obj
 0002:00083840       ??1?$_Tree_const_iterator@V?$_Tree_val@U?$_Tree_simple_types@U?$pair@$$CBGPAVCUser@@@std@@@std@@@std@@@std@@QAE@XZ 005e3840 f i Npc.obj
 0002:00083890       ??1?$_Tree_const_iterator@V?$_Tree_val@U?$_Tree_simple_types@U?$pair@$$CBIPAU_K_MONSTER_ITEM@@@std@@@std@@@std@@@std@@QAE@XZ 005e3890 f i Npc.obj
 0002:000838e0       ??1?$_Tree_const_iterator@V?$_Tree_val@U?$_Tree_simple_types@U?$pair@$$CBIPAU_MAKE_ITEM_GRADE_CODE@@@std@@@std@@@std@@@std@@QAE@XZ 005e38e0 f i Npc.obj
 0002:00083930       ??1?$_Tree_const_iterator@V?$_Tree_val@U?$_Tree_simple_types@U?$pair@$$CBIPAU_MAKE_ITEM_GROUP@@@std@@@std@@@std@@@std@@QAE@XZ 005e3930 f i Npc.obj
 0002:00083980       ??1?$_Tree_const_iterator@V?$_Tree_val@U?$_Tree_simple_types@U?$pair@$$CBIPAU_MAKE_ITEM_LARE_CODE@@@std@@@std@@@std@@@std@@QAE@XZ 005e3980 f i Npc.obj
 0002:000839d0       ??1?$_Tree_const_iterator@V?$_Tree_val@U?$_Tree_simple_types@U?$pair@$$CBIPAU_MAKE_WEAPON@@@std@@@std@@@std@@@std@@QAE@XZ 005e39d0 f i Npc.obj
 0002:00083a20       ??1?$_Tree_const_iterator@V?$_Tree_val@U?$_Tree_simple_types@U?$pair@QAVCUser@@H@std@@@std@@@std@@@std@@QAE@XZ 005e3a20 f i Npc.obj
 0002:00083a70       ??1?$_Tree_iterator@V?$_Tree_val@U?$_Tree_simple_types@U?$pair@$$CBGPAVCUser@@@std@@@std@@@std@@@std@@QAE@XZ 005e3a70 f i Npc.obj
 0002:00083ac0       ??1?$_Tree_iterator@V?$_Tree_val@U?$_Tree_simple_types@U?$pair@$$CBIPAU_K_MONSTER_ITEM@@@std@@@std@@@std@@@std@@QAE@XZ 005e3ac0 f i Npc.obj
 0002:00083b10       ??1?$_Tree_iterator@V?$_Tree_val@U?$_Tree_simple_types@U?$pair@$$CBIPAU_MAKE_ITEM_GRADE_CODE@@@std@@@std@@@std@@@std@@QAE@XZ 005e3b10 f i Npc.obj
 0002:00083b60       ??1?$_Tree_iterator@V?$_Tree_val@U?$_Tree_simple_types@U?$pair@$$CBIPAU_MAKE_ITEM_GROUP@@@std@@@std@@@std@@@std@@QAE@XZ 005e3b60 f i Npc.obj
 0002:00083bb0       ??1?$_Tree_iterator@V?$_Tree_val@U?$_Tree_simple_types@U?$pair@$$CBIPAU_MAKE_ITEM_LARE_CODE@@@std@@@std@@@std@@@std@@QAE@XZ 005e3bb0 f i Npc.obj
 0002:00083c00       ??1?$_Tree_iterator@V?$_Tree_val@U?$_Tree_simple_types@U?$pair@$$CBIPAU_MAKE_WEAPON@@@std@@@std@@@std@@@std@@QAE@XZ 005e3c00 f i Npc.obj
 0002:00083c50       ??1?$_Tree_iterator@V?$_Tree_val@U?$_Tree_simple_types@U?$pair@QAVCUser@@H@std@@@std@@@std@@@std@@QAE@XZ 005e3c50 f i Npc.obj
 0002:00083ca0       ??1?$_Tree_unchecked_const_iterator@V?$_Tree_val@U?$_Tree_simple_types@U?$pair@$$CBGPAVCUser@@@std@@@std@@@std@@U_Iterator_base12@2@@std@@QAE@XZ 005e3ca0 f i Npc.obj
 0002:00083cf0       ??1?$_Tree_unchecked_const_iterator@V?$_Tree_val@U?$_Tree_simple_types@U?$pair@$$CBIPAU_K_MONSTER_ITEM@@@std@@@std@@@std@@U_Iterator_base12@2@@std@@QAE@XZ 005e3cf0 f i Npc.obj
 0002:00083d40       ??1?$_Tree_unchecked_const_iterator@V?$_Tree_val@U?$_Tree_simple_types@U?$pair@$$CBIPAU_MAKE_ITEM_GRADE_CODE@@@std@@@std@@@std@@U_Iterator_base12@2@@std@@QAE@XZ 005e3d40 f i Npc.obj
 0002:00083d90       ??1?$_Tree_unchecked_const_iterator@V?$_Tree_val@U?$_Tree_simple_types@U?$pair@$$CBIPAU_MAKE_ITEM_GROUP@@@std@@@std@@@std@@U_Iterator_base12@2@@std@@QAE@XZ 005e3d90 f i Npc.obj
 0002:00083de0       ??1?$_Tree_unchecked_const_iterator@V?$_Tree_val@U?$_Tree_simple_types@U?$pair@$$CBIPAU_MAKE_ITEM_LARE_CODE@@@std@@@std@@@std@@U_Iterator_base12@2@@std@@QAE@XZ 005e3de0 f i Npc.obj
 0002:00083e30       ??1?$_Tree_unchecked_const_iterator@V?$_Tree_val@U?$_Tree_simple_types@U?$pair@$$CBIPAU_MAKE_WEAPON@@@std@@@std@@@std@@U_Iterator_base12@2@@std@@QAE@XZ 005e3e30 f i Npc.obj
 0002:00083e80       ??1?$_Tree_unchecked_const_iterator@V?$_Tree_val@U?$_Tree_simple_types@U?$pair@QAVCUser@@H@std@@@std@@@std@@U_Iterator_base12@2@@std@@QAE@XZ 005e3e80 f i Npc.obj
 0002:00083ed0       ??1?$_Tree_val@U?$_Tree_simple_types@U?$pair@$$CBGPAVCUser@@@std@@@std@@@std@@QAE@XZ 005e3ed0 f i Npc.obj
 0002:00083f20       ??1?$_Tree_val@U?$_Tree_simple_types@U?$pair@QAVCUser@@H@std@@@std@@@std@@QAE@XZ 005e3f20 f i Npc.obj
 0002:00083f70       ??1?$_Vector_alloc@U?$_Vec_base_types@IV?$allocator@I@std@@@std@@@std@@QAE@XZ 005e3f70 f i Npc.obj
 0002:00084000       ??1?$_Vector_val@U?$_Simple_types@I@std@@@std@@QAE@XZ 005e4000 f i Npc.obj
 0002:00084050       ??1?$map@GPAVCUser@@U?$less@G@std@@V?$allocator@U?$pair@$$CBGPAVCUser@@@std@@@3@@std@@QAE@XZ 005e4050 f i Npc.obj
 0002:000840a0       ??1?$map@PAVCUser@@HU?$less@PAVCUser@@@std@@V?$allocator@U?$pair@QAVCUser@@H@std@@@3@@std@@QAE@XZ 005e40a0 f i Npc.obj
 0002:000840f0       ??1?$pair@V?$_Tree_iterator@V?$_Tree_val@U?$_Tree_simple_types@U?$pair@$$CBGPAVCUser@@@std@@@std@@@std@@@std@@_N@std@@QAE@XZ 005e40f0 f i Npc.obj
 0002:00084140       ??1?$pair@V?$_Tree_iterator@V?$_Tree_val@U?$_Tree_simple_types@U?$pair@QAVCUser@@H@std@@@std@@@std@@@std@@_N@std@@QAE@XZ 005e4140 f i Npc.obj
 0002:00084190       ??1?$vector@IV?$allocator@I@std@@@std@@QAE@XZ 005e4190 f i Npc.obj
 0002:00084220       ??1CNpc@@UAE@XZ            005e4220 f   Npc.obj
 0002:00084310       ??4?$_Tree_const_iterator@V?$_Tree_val@U?$_Tree_simple_types@U?$pair@QAVCUser@@H@std@@@std@@@std@@@std@@QAEAAV01@ABV01@@Z 005e4310 f i Npc.obj
 0002:00084370       ??4?$_Tree_unchecked_const_iterator@V?$_Tree_val@U?$_Tree_simple_types@U?$pair@QAVCUser@@H@std@@@std@@@std@@U_Iterator_base12@2@@std@@QAEAAV01@ABV01@@Z 005e4370 f i Npc.obj
 0002:000843e0       ??4?$basic_string@DU?$char_traits@D@std@@V?$allocator@D@2@@std@@QAEAAV01@ABV01@@Z 005e43e0 f i Npc.obj
 0002:00084490       ??4?$basic_string@DU?$char_traits@D@std@@V?$allocator@D@2@@std@@QAEAAV01@QBD@Z 005e4490 f i Npc.obj
 0002:000844f0       ??4__Vector3@@QAEABU0@ABU0@@Z 005e44f0 f i Npc.obj
 0002:00084560       ??6ByteBuffer@@QAEAAV0@AAV?$basic_string@DU?$char_traits@D@std@@V?$allocator@D@2@@std@@@Z 005e4560 f i Npc.obj
 0002:000845c0       ??6ByteBuffer@@QAEAAV0@H@Z 005e45c0 f i Npc.obj
 0002:00084620       ??6ByteBuffer@@QAEAAV0@I@Z 005e4620 f i Npc.obj
 0002:00084680       ??6ByteBuffer@@QAEAAV0@M@Z 005e4680 f i Npc.obj
 0002:000846f0       ??6ByteBuffer@@QAEAAV0@PBD@Z 005e46f0 f i Npc.obj
 0002:000847d0       ??6ByteBuffer@@QAEAAV0@_K@Z 005e47d0 f i Npc.obj
 0002:00084830       ??6ByteBuffer@@QAEAAV0@_N@Z 005e4830 f i Npc.obj
 0002:00084890       ??8?$_Tree_const_iterator@V?$_Tree_val@U?$_Tree_simple_types@U?$pair@$$CBGPAVCUser@@@std@@@std@@@std@@@std@@QBE_NABV01@@Z 005e4890 f i Npc.obj
 0002:00084970       ??8?$_Tree_const_iterator@V?$_Tree_val@U?$_Tree_simple_types@U?$pair@$$CBIPAU_K_MONSTER_ITEM@@@std@@@std@@@std@@@std@@QBE_NABV01@@Z 005e4970 f i Npc.obj
 0002:00084a50       ??8?$_Tree_const_iterator@V?$_Tree_val@U?$_Tree_simple_types@U?$pair@$$CBIPAU_MAKE_ITEM_GRADE_CODE@@@std@@@std@@@std@@@std@@QBE_NABV01@@Z 005e4a50 f i Npc.obj
 0002:00084b30       ??8?$_Tree_const_iterator@V?$_Tree_val@U?$_Tree_simple_types@U?$pair@$$CBIPAU_MAKE_ITEM_GROUP@@@std@@@std@@@std@@@std@@QBE_NABV01@@Z 005e4b30 f i Npc.obj
 0002:00084c10       ??8?$_Tree_const_iterator@V?$_Tree_val@U?$_Tree_simple_types@U?$pair@$$CBIPAU_MAKE_ITEM_LARE_CODE@@@std@@@std@@@std@@@std@@QBE_NABV01@@Z 005e4c10 f i Npc.obj
 0002:00084cf0       ??8?$_Tree_const_iterator@V?$_Tree_val@U?$_Tree_simple_types@U?$pair@$$CBIPAU_MAKE_WEAPON@@@std@@@std@@@std@@@std@@QBE_NABV01@@Z 005e4cf0 f i Npc.obj
 0002:00084dd0       ??8?$_Tree_const_iterator@V?$_Tree_val@U?$_Tree_simple_types@U?$pair@QAVCUser@@H@std@@@std@@@std@@@std@@QBE_NABV01@@Z 005e4dd0 f i Npc.obj
 0002:00084eb0       ??9?$_Tree_const_iterator@V?$_Tree_val@U?$_Tree_simple_types@U?$pair@$$CBGPAVCUser@@@std@@@std@@@std@@@std@@QBE_NABV01@@Z 005e4eb0 f i Npc.obj
 0002:00084f40       ??9?$_Tree_const_iterator@V?$_Tree_val@U?$_Tree_simple_types@U?$pair@$$CBIPAU_K_MONSTER_ITEM@@@std@@@std@@@std@@@std@@QBE_NABV01@@Z 005e4f40 f i Npc.obj
 0002:00084fd0       ??9?$_Tree_const_iterator@V?$_Tree_val@U?$_Tree_simple_types@U?$pair@$$CBIPAU_MAKE_ITEM_GRADE_CODE@@@std@@@std@@@std@@@std@@QBE_NABV01@@Z 005e4fd0 f i Npc.obj
 0002:00085060       ??9?$_Tree_const_iterator@V?$_Tree_val@U?$_Tree_simple_types@U?$pair@$$CBIPAU_MAKE_ITEM_GROUP@@@std@@@std@@@std@@@std@@QBE_NABV01@@Z 005e5060 f i Npc.obj
 0002:000850f0       ??9?$_Tree_const_iterator@V?$_Tree_val@U?$_Tree_simple_types@U?$pair@$$CBIPAU_MAKE_ITEM_LARE_CODE@@@std@@@std@@@std@@@std@@QBE_NABV01@@Z 005e50f0 f i Npc.obj
 0002:00085180       ??9?$_Tree_const_iterator@V?$_Tree_val@U?$_Tree_simple_types@U?$pair@$$CBIPAU_MAKE_WEAPON@@@std@@@std@@@std@@@std@@QBE_NABV01@@Z 005e5180 f i Npc.obj
 0002:00085210       ??9?$_Tree_const_iterator@V?$_Tree_val@U?$_Tree_simple_types@U?$pair@QAVCUser@@H@std@@@std@@@std@@@std@@QBE_NABV01@@Z 005e5210 f i Npc.obj
 0002:000852a0       ??A?$map@PAVCUser@@HU?$less@PAVCUser@@@std@@V?$allocator@U?$pair@QAVCUser@@H@std@@@3@@std@@QAEAAHABQAVCUser@@@Z 005e52a0 f i Npc.obj
 0002:00085390       ??A?$vector@IV?$allocator@I@std@@@std@@QAEAAII@Z 005e5390 f i Npc.obj
 0002:00085440       ??B?$Atomic@G@@QAEGXZ      005e5440 f i Npc.obj
 0002:00085490       ??B_Atomic_ushort@std@@QBEGXZ 005e5490 f i Npc.obj
 0002:000854f0       ??C?$_Tree_iterator@V?$_Tree_val@U?$_Tree_simple_types@U?$pair@$$CBGPAVCUser@@@std@@@std@@@std@@@std@@QBEPAU?$pair@$$CBGPAVCUser@@@1@XZ 005e54f0 f i Npc.obj
 0002:00085550       ??C?$_Tree_iterator@V?$_Tree_val@U?$_Tree_simple_types@U?$pair@$$CBIPAU_K_MONSTER_ITEM@@@std@@@std@@@std@@@std@@QBEPAU?$pair@$$CBIPAU_K_MONSTER_ITEM@@@1@XZ 005e5550 f i Npc.obj
 0002:000855b0       ??C?$_Tree_iterator@V?$_Tree_val@U?$_Tree_simple_types@U?$pair@$$CBIPAU_MAKE_ITEM_GRADE_CODE@@@std@@@std@@@std@@@std@@QBEPAU?$pair@$$CBIPAU_MAKE_ITEM_GRADE_CODE@@@1@XZ 005e55b0 f i Npc.obj
 0002:00085610       ??C?$_Tree_iterator@V?$_Tree_val@U?$_Tree_simple_types@U?$pair@$$CBIPAU_MAKE_ITEM_GROUP@@@std@@@std@@@std@@@std@@QBEPAU?$pair@$$CBIPAU_MAKE_ITEM_GROUP@@@1@XZ 005e5610 f i Npc.obj
 0002:00085670       ??C?$_Tree_iterator@V?$_Tree_val@U?$_Tree_simple_types@U?$pair@$$CBIPAU_MAKE_ITEM_LARE_CODE@@@std@@@std@@@std@@@std@@QBEPAU?$pair@$$CBIPAU_MAKE_ITEM_LARE_CODE@@@1@XZ 005e5670 f i Npc.obj
 0002:000856d0       ??C?$_Tree_iterator@V?$_Tree_val@U?$_Tree_simple_types@U?$pair@$$CBIPAU_MAKE_WEAPON@@@std@@@std@@@std@@@std@@QBEPAU?$pair@$$CBIPAU_MAKE_WEAPON@@@1@XZ 005e56d0 f i Npc.obj
 0002:00085730       ??C?$_Tree_iterator@V?$_Tree_val@U?$_Tree_simple_types@U?$pair@QAVCUser@@H@std@@@std@@@std@@@std@@QBEPAU?$pair@QAVCUser@@H@1@XZ 005e5730 f i Npc.obj
 0002:00085790       ??D?$_Tree_const_iterator@V?$_Tree_val@U?$_Tree_simple_types@U?$pair@$$CBGPAVCUser@@@std@@@std@@@std@@@std@@QBEABU?$pair@$$CBGPAVCUser@@@1@XZ 005e5790 f i Npc.obj
 0002:00085860       ??D?$_Tree_const_iterator@V?$_Tree_val@U?$_Tree_simple_types@U?$pair@$$CBIPAU_K_MONSTER_ITEM@@@std@@@std@@@std@@@std@@QBEABU?$pair@$$CBIPAU_K_MONSTER_ITEM@@@1@XZ 005e5860 f i Npc.obj
 0002:00085930       ??D?$_Tree_const_iterator@V?$_Tree_val@U?$_Tree_simple_types@U?$pair@$$CBIPAU_MAKE_ITEM_GRADE_CODE@@@std@@@std@@@std@@@std@@QBEABU?$pair@$$CBIPAU_MAKE_ITEM_GRADE_CODE@@@1@XZ 005e5930 f i Npc.obj
 0002:00085a00       ??D?$_Tree_const_iterator@V?$_Tree_val@U?$_Tree_simple_types@U?$pair@$$CBIPAU_MAKE_ITEM_GROUP@@@std@@@std@@@std@@@std@@QBEABU?$pair@$$CBIPAU_MAKE_ITEM_GROUP@@@1@XZ 005e5a00 f i Npc.obj
 0002:00085ad0       ??D?$_Tree_const_iterator@V?$_Tree_val@U?$_Tree_simple_types@U?$pair@$$CBIPAU_MAKE_ITEM_LARE_CODE@@@std@@@std@@@std@@@std@@QBEABU?$pair@$$CBIPAU_MAKE_ITEM_LARE_CODE@@@1@XZ 005e5ad0 f i Npc.obj
 0002:00085ba0       ??D?$_Tree_const_iterator@V?$_Tree_val@U?$_Tree_simple_types@U?$pair@$$CBIPAU_MAKE_WEAPON@@@std@@@std@@@std@@@std@@QBEABU?$pair@$$CBIPAU_MAKE_WEAPON@@@1@XZ 005e5ba0 f i Npc.obj
 0002:00085c70       ??D?$_Tree_const_iterator@V?$_Tree_val@U?$_Tree_simple_types@U?$pair@QAVCUser@@H@std@@@std@@@std@@@std@@QBEABU?$pair@QAVCUser@@H@1@XZ 005e5c70 f i Npc.obj
 0002:00085d40       ??D?$_Tree_iterator@V?$_Tree_val@U?$_Tree_simple_types@U?$pair@$$CBGPAVCUser@@@std@@@std@@@std@@@std@@QBEAAU?$pair@$$CBGPAVCUser@@@1@XZ 005e5d40 f i Npc.obj
 0002:00085d90       ??D?$_Tree_iterator@V?$_Tree_val@U?$_Tree_simple_types@U?$pair@$$CBIPAU_K_MONSTER_ITEM@@@std@@@std@@@std@@@std@@QBEAAU?$pair@$$CBIPAU_K_MONSTER_ITEM@@@1@XZ 005e5d90 f i Npc.obj
 0002:00085de0       ??D?$_Tree_iterator@V?$_Tree_val@U?$_Tree_simple_types@U?$pair@$$CBIPAU_MAKE_ITEM_GRADE_CODE@@@std@@@std@@@std@@@std@@QBEAAU?$pair@$$CBIPAU_MAKE_ITEM_GRADE_CODE@@@1@XZ 005e5de0 f i Npc.obj
 0002:00085e30       ??D?$_Tree_iterator@V?$_Tree_val@U?$_Tree_simple_types@U?$pair@$$CBIPAU_MAKE_ITEM_GROUP@@@std@@@std@@@std@@@std@@QBEAAU?$pair@$$CBIPAU_MAKE_ITEM_GROUP@@@1@XZ 005e5e30 f i Npc.obj
 0002:00085e80       ??D?$_Tree_iterator@V?$_Tree_val@U?$_Tree_simple_types@U?$pair@$$CBIPAU_MAKE_ITEM_LARE_CODE@@@std@@@std@@@std@@@std@@QBEAAU?$pair@$$CBIPAU_MAKE_ITEM_LARE_CODE@@@1@XZ 005e5e80 f i Npc.obj
 0002:00085ed0       ??D?$_Tree_iterator@V?$_Tree_val@U?$_Tree_simple_types@U?$pair@$$CBIPAU_MAKE_WEAPON@@@std@@@std@@@std@@@std@@QBEAAU?$pair@$$CBIPAU_MAKE_WEAPON@@@1@XZ 005e5ed0 f i Npc.obj
 0002:00085f20       ??D?$_Tree_iterator@V?$_Tree_val@U?$_Tree_simple_types@U?$pair@QAVCUser@@H@std@@@std@@@std@@@std@@QBEAAU?$pair@QAVCUser@@H@1@XZ 005e5f20 f i Npc.obj
 0002:00085f70       ??E?$_Tree_const_iterator@V?$_Tree_val@U?$_Tree_simple_types@U?$pair@$$CBGPAVCUser@@@std@@@std@@@std@@@std@@QAE?AV01@H@Z 005e5f70 f i Npc.obj
 0002:00086090       ??E?$_Tree_const_iterator@V?$_Tree_val@U?$_Tree_simple_types@U?$pair@$$CBGPAVCUser@@@std@@@std@@@std@@@std@@QAEAAV01@XZ 005e6090 f i Npc.obj
 0002:00086150       ??E?$_Tree_const_iterator@V?$_Tree_val@U?$_Tree_simple_types@U?$pair@QAVCUser@@H@std@@@std@@@std@@@std@@QAE?AV01@H@Z 005e6150 f i Npc.obj
 0002:00086270       ??E?$_Tree_const_iterator@V?$_Tree_val@U?$_Tree_simple_types@U?$pair@QAVCUser@@H@std@@@std@@@std@@@std@@QAEAAV01@XZ 005e6270 f i Npc.obj
 0002:00086330       ??E?$_Tree_iterator@V?$_Tree_val@U?$_Tree_simple_types@U?$pair@QAVCUser@@H@std@@@std@@@std@@@std@@QAE?AV01@H@Z 005e6330 f i Npc.obj
 0002:00086450       ??E?$_Tree_iterator@V?$_Tree_val@U?$_Tree_simple_types@U?$pair@QAVCUser@@H@std@@@std@@@std@@@std@@QAEAAV01@XZ 005e6450 f i Npc.obj
 0002:000864b0       ??E?$_Tree_unchecked_const_iterator@V?$_Tree_val@U?$_Tree_simple_types@U?$pair@$$CBGPAVCUser@@@std@@@std@@@std@@U_Iterator_base12@2@@std@@QAEAAV01@XZ 005e64b0 f i Npc.obj
 0002:00086590       ??E?$_Tree_unchecked_const_iterator@V?$_Tree_val@U?$_Tree_simple_types@U?$pair@QAVCUser@@H@std@@@std@@@std@@U_Iterator_base12@2@@std@@QAEAAV01@XZ 005e6590 f i Npc.obj
 0002:00086670       ??E_Atomic_ushort@std@@QAEGXZ 005e6670 f i Npc.obj
 0002:000866d0       ??F?$_Tree_const_iterator@V?$_Tree_val@U?$_Tree_simple_types@U?$pair@$$CBGPAVCUser@@@std@@@std@@@std@@@std@@QAEAAV01@XZ 005e66d0 f i Npc.obj
 0002:000867e0       ??F?$_Tree_const_iterator@V?$_Tree_val@U?$_Tree_simple_types@U?$pair@QAVCUser@@H@std@@@std@@@std@@@std@@QAEAAV01@XZ 005e67e0 f i Npc.obj
 0002:000868f0       ??F?$_Tree_iterator@V?$_Tree_val@U?$_Tree_simple_types@U?$pair@$$CBGPAVCUser@@@std@@@std@@@std@@@std@@QAEAAV01@XZ 005e68f0 f i Npc.obj
 0002:00086950       ??F?$_Tree_iterator@V?$_Tree_val@U?$_Tree_simple_types@U?$pair@QAVCUser@@H@std@@@std@@@std@@@std@@QAEAAV01@XZ 005e6950 f i Npc.obj
 0002:000869b0       ??F?$_Tree_unchecked_const_iterator@V?$_Tree_val@U?$_Tree_simple_types@U?$pair@$$CBGPAVCUser@@@std@@@std@@@std@@U_Iterator_base12@2@@std@@QAEAAV01@XZ 005e69b0 f i Npc.obj
 0002:00086ab0       ??F?$_Tree_unchecked_const_iterator@V?$_Tree_val@U?$_Tree_simple_types@U?$pair@QAVCUser@@H@std@@@std@@@std@@U_Iterator_base12@2@@std@@QAEAAV01@XZ 005e6ab0 f i Npc.obj
 0002:00086bb0       ??G__Vector3@@QBE?AU0@ABU_D3DVECTOR@@@Z 005e6bb0 f i Npc.obj
 0002:00086e10       ??R?$less@G@std@@QBE_NABG0@Z 005e6e10 f i Npc.obj
 0002:00086e80       ??R?$less@PAVCUser@@@std@@QBE_NABQAVCUser@@0@Z 005e6e80 f i Npc.obj
 0002:00086ef0       ??X__Vector3@@QAEXABU_D3DMATRIX@@@Z 005e6ef0 f i Npc.obj
 0002:00087130       ??X__Vector3@@QAEXM@Z      005e7130 f i Npc.obj
 0002:000871c0       ??Y__Vector3@@QAEXABU_D3DVECTOR@@@Z 005e71c0 f i Npc.obj
 0002:00087250       ??_GCNpc@@UAEPAXI@Z        005e7250 f i Npc.obj
 0002:00087250       ??_ECNpc@@UAEPAXI@Z        005e7250 f i Npc.obj
 0002:000872d0       ?AddToRegion@CNpc@@UAEXFF@Z 005e72d0 f i Npc.obj
 0002:00087310       ?Attack@CNpc@@QAE_JXZ      005e7310 f   Npc.obj
 0002:00088160       ?CalcAdaptivePosition@CNpc@@QAEXAAU__Vector3@@0MPAU2@@Z 005e8160 f   Npc.obj
 0002:00088220       ?ChangeAbility@CNpc@@QAEXH@Z 005e8220 f   Npc.obj
 0002:00088570       ?ChangeNTarget@CNpc@@QAEXPAV1@@Z 005e8570 f   Npc.obj
 0002:00088a30       ?ChangeTarget@CNpc@@QAEXHPAVCUser@@@Z 005e8a30 f   Npc.obj
 0002:00089100       ?ChaosCubeControl@CNpc@@QAEXXZ 005e9100 f   Npc.obj
 0002:000892d0       ?CheckFindEnemy@CNpc@@QAE_NXZ 005e92d0 f   Npc.obj
 0002:00089390       ?ClearPathFindData@CNpc@@IAEXXZ 005e9390 f   Npc.obj
 0002:000894b0       ?ComputeDestPos@CNpc@@QAEXAAU__Vector3@@MMPAU2@@Z 005e94b0 f   Npc.obj
 0002:000895e0       ?Dead@CNpc@@QAEXPAVUnit@@_N@Z 005e95e0 f   Npc.obj
 0002:000897c0       ?FillNpcInfo@CNpc@@QAEXAAVPacket@@@Z 005e97c0 f   Npc.obj
 0002:00089bf0       ?FindEnemy@CNpc@@QAE_NXZ   005e9bf0 f   Npc.obj
 0002:0008a2d0       ?FindEnemyExpand@CNpc@@QAEMHHMW4UnitType@@@Z 005ea2d0 f   Npc.obj
 0002:0008ad10       ?FindEnemyRegion@CNpc@@QAEHXZ 005ead10 f   Npc.obj
 0002:0008b920       ?FindFriend@CNpc@@QAEHW4MonSearchType@@@Z 005eb920 f   Npc.obj
 0002:0008bd40       ?FindFriendRegion@CNpc@@QAEXHHPAVMAP@@PAU_TargetHealer@@W4MonSearchType@@@Z 005ebd40 f   Npc.obj
 0002:0008c560       ?GetData@?$CSTLMapOnlyLoad@U_K_MONSTER_ITEM@@@@QAEPAU_K_MONSTER_ITEM@@I@Z 005ec560 f i Npc.obj
 0002:0008c720       ?GetData@?$CSTLMapOnlyLoad@U_MAKE_ITEM_GRADE_CODE@@@@QAEPAU_MAKE_ITEM_GRADE_CODE@@I@Z 005ec720 f i Npc.obj
 0002:0008c8e0       ?GetData@?$CSTLMapOnlyLoad@U_MAKE_ITEM_GROUP@@@@QAEPAU_MAKE_ITEM_GROUP@@I@Z 005ec8e0 f i Npc.obj
 0002:0008caa0       ?GetData@?$CSTLMapOnlyLoad@U_MAKE_ITEM_LARE_CODE@@@@QAEPAU_MAKE_ITEM_LARE_CODE@@I@Z 005ecaa0 f i Npc.obj
 0002:0008cc60       ?GetData@?$CSTLMapOnlyLoad@U_MAKE_WEAPON@@@@QAEPAU_MAKE_WEAPON@@I@Z 005ecc60 f i Npc.obj
 0002:0008ce20       ?GetDir@CNpc@@QAEHMMMM@Z   005ece20 f   Npc.obj
 0002:0008d1d0       ?GetDistance@CNpc@@QAEMAAU__Vector3@@0@Z 005ed1d0 f   Npc.obj
 0002:0008d250       ?GetHealth@CNpc@@UAEHXZ    005ed250 f i Npc.obj
 0002:0008d290       ?GetID@CNpc@@UAEGXZ        005ed290 f i Npc.obj
 0002:0008d2e0       ?GetInOut@CNpc@@UAEXAAVPacket@@E@Z 005ed2e0 f i Npc.obj
 0002:0008d320       ?GetItemCodeNumber@CNpc@@QAEHHH@Z 005ed320 f   Npc.obj
 0002:0008d610       ?GetItemGrade@CNpc@@QAEHH@Z 005ed610 f   Npc.obj
 0002:0008d7e0       ?GetMana@CNpc@@UAEHXZ      005ed7e0 f i Npc.obj
 0002:0008d830       ?GetMaxHealth@CNpc@@UAEHXZ 005ed830 f i Npc.obj
 0002:0008d890       ?GetMaxMana@CNpc@@UAEHXZ   005ed890 f i Npc.obj
 0002:0008d8f0       ?GetMyField@CNpc@@QAEHXZ   005ed8f0 f   Npc.obj
 0002:0008daa0       ?GetMyPath@CNpc@@QAEHXZ    005edaa0 f i Npc.obj
 0002:0008db20       ?GetName@CNpc@@UAEAAV?$basic_string@DU?$char_traits@D@std@@V?$allocator@D@2@@std@@XZ 005edb20 f i Npc.obj
 0002:0008db80       ?GetNearPathPoint@CNpc@@QAEHXZ 005edb80 f   Npc.obj
 0002:0008ddc0       ?GetPartyExp@CNpc@@QAEHHHH@Z 005eddc0 f   Npc.obj
 0002:0008df20       ?GetProtoID@CNpc@@QAEGXZ   005edf20 f i Npc.obj
 0002:0008df80       ?GetRegionX@Unit@@QAEGXZ   005edf80 f i Npc.obj
 0002:0008dfc0       ?GetRegionZ@Unit@@QAEGXZ   005edfc0 f i Npc.obj
 0002:0008e000       ?GetTargetPath@CNpc@@QAEHH@Z 005ee000 f   Npc.obj
 0002:0008efa0       ?GetTargetPos@CNpc@@QAE_NAAM0@Z 005eefa0 f   Npc.obj
 0002:0008f050       ?GetUserInView@CNpc@@QAE_NXZ 005ef050 f   Npc.obj
 0002:0008f290       ?GetUserInViewRange@CNpc@@QAE_NHH@Z 005ef290 f   Npc.obj
 0002:0008f620       ?GetVectorPosition@CNpc@@QAEXAAU__Vector3@@0MPAU2@@Z 005ef620 f   Npc.obj
 0002:0008f6e0       ?GetWeaponItemCodeNumber@CNpc@@QAEH_N@Z 005ef6e0 f   Npc.obj
 0002:0008f860       ?GetY@Unit@@QAEMXZ         005ef860 f i Npc.obj
 0002:0008f8a0       ?GiveNpcHaveItem@CNpc@@QAEXXZ 005ef8a0 f   Npc.obj
 0002:0008ff10       ?HpChange@CNpc@@QAEXXZ     005eff10 f   Npc.obj
 0002:00090010       ?HpChange@CNpc@@UAEXHPAVUnit@@_N@Z 005f0010 f   Npc.obj
 0002:00090290       ?Identity@__Matrix44@@QAEXXZ 005f0290 f i Npc.obj
 0002:000903c0       ?Init@CNpc@@QAEXXZ         005f03c0 f   Npc.obj
 0002:000904c0       ?InitPos@CNpc@@QAEXXZ      005f04c0 f   Npc.obj
 0002:00090570       ?InitTarget@CNpc@@QAEXXZ   005f0570 f   Npc.obj
 0002:000906d0       ?InitUserList@CNpc@@QAEXXZ 005f06d0 f   Npc.obj
 0002:00090780       ?IsChangePath@CNpc@@QAE_NXZ 005f0780 f   Npc.obj
 0002:00090950       ?IsCloseTarget@CNpc@@QAE?AW4CloseTargetResult@@HW4AttackType@@@Z 005f0950 f   Npc.obj
 0002:00091030       ?IsCloseTarget@CNpc@@QAE_NPAVCUser@@H@Z 005f1030 f   Npc.obj
 0002:00091150       ?IsDamagedUserList@CNpc@@QAE_NPAVCUser@@@Z 005f1150 f   Npc.obj
 0002:00091220       ?IsInPathRange@CNpc@@QAE_NXZ 005f1220 f   Npc.obj
 0002:000912f0       ?IsMovingEnd@CNpc@@QAE_NXZ 005f12f0 f   Npc.obj
 0002:00091380       ?IsNoPathFind@CNpc@@QAEXM@Z 005f1380 f   Npc.obj
 0002:000918b0       ?IsPathFindCheck@CNpc@@QAE_NM@Z 005f18b0 f   Npc.obj
 0002:00091d00       ?IsSurround@CNpc@@QAEHPAVCUser@@@Z 005f1d00 f   Npc.obj
 0002:00091df0       ?ItemProdution@CNpc@@QAEHH@Z 005f1df0 f   Npc.obj
 0002:000927b0       ?Load@CNpc@@QAEXGPAVCNpcTable@@_NE@Z 005f27b0 f   Npc.obj
 0002:00092ca0       ?LongAndMagicAttack@CNpc@@QAE_JXZ 005f2ca0 f   Npc.obj
 0002:00092f80       ?MSpChange@CNpc@@UAEXH@Z   005f2f80 f i Npc.obj
 0002:00092fc0       ?Magnitude@__Vector3@@QBEMXZ 005f2fc0 f i Npc.obj
 0002:00093060       ?MoveAttack@CNpc@@QAEXXZ   005f3060 f   Npc.obj
 0002:00093650       ?Normalize@__Vector3@@QAEXXZ 005f3650 f i Npc.obj
 0002:00093760       ?NpcAttacking@CNpc@@QAE_JXZ 005f3760 f   Npc.obj
 0002:00093930       ?NpcBack@CNpc@@QAE_JXZ     005f3930 f   Npc.obj
 0002:00093d30       ?NpcCalling@CNpc@@QAEXMMU__Vector3@@0@Z 005f3d30 f   Npc.obj
 0002:00093ff0       ?NpcCasting@CNpc@@QAE_JXZ  005f3ff0 f   Npc.obj
 0002:00094130       ?NpcFainting@CNpc@@QAE_JXZ 005f4130 f   Npc.obj
 0002:000941f0       ?NpcHealing@CNpc@@QAE_JXZ  005f41f0 f   Npc.obj
 0002:00094560       ?NpcLive@CNpc@@QAE_JXZ     005f4560 f   Npc.obj
 0002:000946d0       ?NpcMoveEnd@CNpc@@QAEXXZ   005f46d0 f   Npc.obj
 0002:000947a0       ?NpcMoving@CNpc@@QAE_JXZ   005f47a0 f   Npc.obj
 0002:00094b40       ?NpcSleeping@CNpc@@QAE_JXZ 005f4b40 f   Npc.obj
 0002:00094bd0       ?NpcStanding@CNpc@@QAE_JXZ 005f4bd0 f   Npc.obj
 0002:00095100       ?NpcStrategy@CNpc@@QAEXE@Z 005f5100 f   Npc.obj
 0002:000951b0       ?NpcTracing@CNpc@@QAE_JXZ  005f51b0 f   Npc.obj
 0002:000956f0       ?PathFind@CNpc@@QAEHUCPoint@@0M@Z 005f56f0 f   Npc.obj
 0002:00095b40       ?RandomBackMove@CNpc@@QAE_NXZ 005f5b40 f   Npc.obj
 0002:00096760       ?RandomMove@CNpc@@QAE_NXZ  005f6760 f   Npc.obj
 0002:00097d10       ?RecvAttackReq@CNpc@@QAEXHGW4AttributeType@@@Z 005f7d10 f   Npc.obj
 0002:000983b0       ?RegisterRegion@CNpc@@QAE_NMM@Z 005f83b0 f   Npc.obj
 0002:000986c0       ?Reset@_NpcDamagedList@@QAEXXZ 005f86c0 f i Npc.obj
 0002:00098720       ?ResetPath@CNpc@@QAE_NXZ   005f8720 f   Npc.obj
 0002:000988a0       ?RotationY@__Matrix44@@QAEXM@Z 005f88a0 f i Npc.obj
 0002:00098980       ?SendAttackRequest@CNpc@@QAEXF@Z 005f8980 f   Npc.obj
 0002:00098ab0       ?SendExpToUserList@CNpc@@QAEXXZ 005f8ab0 f   Npc.obj
 0002:000997a0       ?SendInOut@CNpc@@QAEXW4InOutType@@@Z 005f97a0 f   Npc.obj
 0002:00099910       ?SendMoveResult@CNpc@@QAEXMMMM@Z 005f9910 f   Npc.obj
 0002:00099af0       ?SendNpcInfo@CNpc@@QAEXXZ  005f9af0 f   Npc.obj
 0002:00099c00       ?SendRegionUpdate@CNpc@@QAEXXZ 005f9c00 f   Npc.obj
 0002:00099d60       ?Set@__Vector3@@QAEXMMM@Z  005f9d60 f i Npc.obj
 0002:00099dd0       ?SetLive@CNpc@@QAE_NXZ     005f9dd0 f   Npc.obj
 0002:0009aa80       ?StepMove@CNpc@@QAE_NXZ    005faa80 f   Npc.obj
 0002:0009b2e0       ?StepNoPathMove@CNpc@@QAE_NXZ 005fb2e0 f   Npc.obj
 0002:0009b7f0       ?TracingAttack@CNpc@@QAEXXZ 005fb7f0 f   Npc.obj
 0002:0009b970       ?Yaw2D@CNpc@@QAEXMMAAM@Z   005fb970 f   Npc.obj
 0002:0009bae0       ?_Alloc_proxy@?$_Tree_comp_alloc@V?$_Tmap_traits@GPAVCUser@@U?$less@G@std@@V?$allocator@U?$pair@$$CBGPAVCUser@@@std@@@3@$0A@@std@@@std@@QAEXXZ 005fbae0 f i Npc.obj
 0002:0009bc00       ?_Alloc_proxy@?$_Tree_comp_alloc@V?$_Tmap_traits@PAVCUser@@HU?$less@PAVCUser@@@std@@V?$allocator@U?$pair@QAVCUser@@H@std@@@3@$0A@@std@@@std@@QAEXXZ 005fbc00 f i Npc.obj
 0002:0009bd20       ?_Alloc_proxy@?$_Vector_alloc@U?$_Vec_base_types@IV?$allocator@I@std@@@std@@@std@@QAEXXZ 005fbd20 f i Npc.obj
 0002:0009be40       ?_Atomic_fetch_add_2@std@@YAGPCGGW4memory_order@1@@Z 005fbe40 f i Npc.obj
 0002:0009bf80       ?_Atomic_load_2@std@@YAGPCGW4memory_order@1@@Z 005fbf80 f i Npc.obj
 0002:0009c090       ?_Buyheadnode@?$_Tree_comp_alloc@V?$_Tmap_traits@GPAVCUser@@U?$less@G@std@@V?$allocator@U?$pair@$$CBGPAVCUser@@@std@@@3@$0A@@std@@@std@@QAEPAU?$_Tree_node@U?$pair@$$CBGPAVCUser@@@std@@PAX@2@XZ 005fc090 f i Npc.obj
 0002:0009c240       ?_Buyheadnode@?$_Tree_comp_alloc@V?$_Tmap_traits@PAVCUser@@HU?$less@PAVCUser@@@std@@V?$allocator@U?$pair@QAVCUser@@H@std@@@3@$0A@@std@@@std@@QAEPAU?$_Tree_node@U?$pair@QAVCUser@@H@std@@PAX@2@XZ 005fc240 f i Npc.obj
 0002:0009c3f0       ?_Buynode0@?$_Tree_comp_alloc@V?$_Tmap_traits@GPAVCUser@@U?$less@G@std@@V?$allocator@U?$pair@$$CBGPAVCUser@@@std@@@3@$0A@@std@@@std@@QAEPAU?$_Tree_node@U?$pair@$$CBGPAVCUser@@@std@@PAX@2@XZ 005fc3f0 f i Npc.obj
 0002:0009c560       ?_Buynode0@?$_Tree_comp_alloc@V?$_Tmap_traits@PAVCUser@@HU?$less@PAVCUser@@@std@@V?$allocator@U?$pair@QAVCUser@@H@std@@@3@$0A@@std@@@std@@QAEPAU?$_Tree_node@U?$pair@QAVCUser@@H@std@@PAX@2@XZ 005fc560 f i Npc.obj
 0002:0009c6d0       ?_Calculate_growth@?$vector@IV?$allocator@I@std@@@std@@ABEII@Z 005fc6d0 f i Npc.obj
 0002:0009c770       ?_Change_array@?$vector@IV?$allocator@I@std@@@std@@AAEXQAIII@Z 005fc770 f i Npc.obj
 0002:0009c870       ?_Compare@?$_Tree@V?$_Tmap_traits@GPAVCUser@@U?$less@G@std@@V?$allocator@U?$pair@$$CBGPAVCUser@@@std@@@3@$0A@@std@@@std@@IBE_NABG0@Z 005fc870 f i Npc.obj
 0002:0009c8f0       ?_Compare@?$_Tree@V?$_Tmap_traits@IPAU_K_MONSTER_ITEM@@U?$less@I@std@@V?$allocator@U?$pair@$$CBIPAU_K_MONSTER_ITEM@@@std@@@3@$0A@@std@@@std@@IBE_NABI0@Z 005fc8f0 f i Npc.obj
 0002:0009c970       ?_Compare@?$_Tree@V?$_Tmap_traits@IPAU_MAKE_ITEM_GRADE_CODE@@U?$less@I@std@@V?$allocator@U?$pair@$$CBIPAU_MAKE_ITEM_GRADE_CODE@@@std@@@3@$0A@@std@@@std@@IBE_NABI0@Z 005fc970 f i Npc.obj
 0002:0009c9f0       ?_Compare@?$_Tree@V?$_Tmap_traits@IPAU_MAKE_ITEM_GROUP@@U?$less@I@std@@V?$allocator@U?$pair@$$CBIPAU_MAKE_ITEM_GROUP@@@std@@@3@$0A@@std@@@std@@IBE_NABI0@Z 005fc9f0 f i Npc.obj
 0002:0009ca70       ?_Compare@?$_Tree@V?$_Tmap_traits@IPAU_MAKE_ITEM_LARE_CODE@@U?$less@I@std@@V?$allocator@U?$pair@$$CBIPAU_MAKE_ITEM_LARE_CODE@@@std@@@3@$0A@@std@@@std@@IBE_NABI0@Z 005fca70 f i Npc.obj
 0002:0009caf0       ?_Compare@?$_Tree@V?$_Tmap_traits@IPAU_MAKE_WEAPON@@U?$less@I@std@@V?$allocator@U?$pair@$$CBIPAU_MAKE_WEAPON@@@std@@@3@$0A@@std@@@std@@IBE_NABI0@Z 005fcaf0 f i Npc.obj
 0002:0009cb70       ?_Compare@?$_Tree@V?$_Tmap_traits@PAVCUser@@HU?$less@PAVCUser@@@std@@V?$allocator@U?$pair@QAVCUser@@H@std@@@3@$0A@@std@@@std@@IBE_NABQAVCUser@@0@Z 005fcb70 f i Npc.obj
 0002:0009cbf0       ?_Construct@?$_Tree_comp_alloc@V?$_Tmap_traits@GPAVCUser@@U?$less@G@std@@V?$allocator@U?$pair@$$CBGPAVCUser@@@std@@@3@$0A@@std@@@std@@QAEXXZ 005fcbf0 f i Npc.obj
 0002:0009cce0       ?_Construct@?$_Tree_comp_alloc@V?$_Tmap_traits@PAVCUser@@HU?$less@PAVCUser@@@std@@V?$allocator@U?$pair@QAVCUser@@H@std@@@3@$0A@@std@@@std@@QAEXXZ 005fcce0 f i Npc.obj
 0002:0009cdd0       ?_Copy_alloc@?$_String_alloc@U?$_String_base_types@DV?$allocator@D@std@@@std@@@std@@QAEXABV?$allocator@D@2@@Z 005fcdd0 f i Npc.obj
 0002:0009ce60       ?_Destroy@?$vector@IV?$allocator@I@std@@@std@@AAEXPAI0@Z 005fce60 f i Npc.obj
 0002:0009ced0       ?_Destroy_if_not_nil@?$_Tree@V?$_Tmap_traits@GPAVCUser@@U?$less@G@std@@V?$allocator@U?$pair@$$CBGPAVCUser@@@std@@@3@$0A@@std@@@std@@IAEXPAU?$_Tree_node@U?$pair@$$CBGPAVCUser@@@std@@PAX@2@@Z 005fced0 f i Npc.obj
 0002:0009cf60       ?_Destroy_if_not_nil@?$_Tree@V?$_Tmap_traits@PAVCUser@@HU?$less@PAVCUser@@@std@@V?$allocator@U?$pair@QAVCUser@@H@std@@@3@$0A@@std@@@std@@IAEXPAU?$_Tree_node@U?$pair@QAVCUser@@H@std@@PAX@2@@Z 005fcf60 f i Npc.obj
 0002:0009cff0       ?_Erase@?$_Tree@V?$_Tmap_traits@GPAVCUser@@U?$less@G@std@@V?$allocator@U?$pair@$$CBGPAVCUser@@@std@@@3@$0A@@std@@@std@@IAEXPAU?$_Tree_node@U?$pair@$$CBGPAVCUser@@@std@@PAX@2@@Z 005fcff0 f i Npc.obj
 0002:0009d0c0       ?_Erase@?$_Tree@V?$_Tmap_traits@PAVCUser@@HU?$less@PAVCUser@@@std@@V?$allocator@U?$pair@QAVCUser@@H@std@@@3@$0A@@std@@@std@@IAEXPAU?$_Tree_node@U?$pair@QAVCUser@@H@std@@PAX@2@@Z 005fd0c0 f i Npc.obj
 0002:0009d190       ?_Fetch_add_acquire_2@std@@YAGPCGG@Z 005fd190 f i Npc.obj
 0002:0009d1d0       ?_Fetch_add_relaxed_2@std@@YAGPCGG@Z 005fd1d0 f i Npc.obj
 0002:0009d210       ?_Fetch_add_release_2@std@@YAGPCGG@Z 005fd210 f i Npc.obj
 0002:0009d250       ?_Fetch_add_seq_cst_2@std@@YAGPCGG@Z 005fd250 f i Npc.obj
 0002:0009d290       ?_Free_proxy@?$_Tree_comp_alloc@V?$_Tmap_traits@GPAVCUser@@U?$less@G@std@@V?$allocator@U?$pair@$$CBGPAVCUser@@@std@@@3@$0A@@std@@@std@@QAEXXZ 005fd290 f i Npc.obj
 0002:0009d390       ?_Free_proxy@?$_Tree_comp_alloc@V?$_Tmap_traits@PAVCUser@@HU?$less@PAVCUser@@@std@@V?$allocator@U?$pair@QAVCUser@@H@std@@@3@$0A@@std@@@std@@QAEXXZ 005fd390 f i Npc.obj
 0002:0009d490       ?_Free_proxy@?$_Vector_alloc@U?$_Vec_base_types@IV?$allocator@I@std@@@std@@@std@@QAEXXZ 005fd490 f i Npc.obj
 0002:0009d590       ?_Freeheadnode@?$_Tree_comp_alloc@V?$_Tmap_traits@GPAVCUser@@U?$less@G@std@@V?$allocator@U?$pair@$$CBGPAVCUser@@@std@@@3@$0A@@std@@@std@@QAEXPAU?$_Tree_node@U?$pair@$$CBGPAVCUser@@@std@@PAX@2@@Z 005fd590 f i Npc.obj
 0002:0009d660       ?_Freeheadnode@?$_Tree_comp_alloc@V?$_Tmap_traits@PAVCUser@@HU?$less@PAVCUser@@@std@@V?$allocator@U?$pair@QAVCUser@@H@std@@@3@$0A@@std@@@std@@QAEXPAU?$_Tree_node@U?$pair@QAVCUser@@H@std@@PAX@2@@Z 005fd660 f i Npc.obj
 0002:0009d730       ?_Freenode0@?$_Tree_comp_alloc@V?$_Tmap_traits@GPAVCUser@@U?$less@G@std@@V?$allocator@U?$pair@$$CBGPAVCUser@@@std@@@3@$0A@@std@@@std@@QAEXPAU?$_Tree_node@U?$pair@$$CBGPAVCUser@@@std@@PAX@2@@Z 005fd730 f i Npc.obj
 0002:0009d800       ?_Freenode0@?$_Tree_comp_alloc@V?$_Tmap_traits@PAVCUser@@HU?$less@PAVCUser@@@std@@V?$allocator@U?$pair@QAVCUser@@H@std@@@3@$0A@@std@@@std@@QAEXPAU?$_Tree_node@U?$pair@QAVCUser@@H@std@@PAX@2@@Z 005fd800 f i Npc.obj
 0002:0009d8d0       ?_Get_data@?$_Tree_comp_alloc@V?$_Tmap_traits@GPAVCUser@@U?$less@G@std@@V?$allocator@U?$pair@$$CBGPAVCUser@@@std@@@3@$0A@@std@@@std@@QAEAAV?$_Tree_val@U?$_Tree_simple_types@U?$pair@$$CBGPAVCUser@@@std@@@std@@@2@XZ 005fd8d0 f i Npc.obj
 0002:0009d930       ?_Get_data@?$_Tree_comp_alloc@V?$_Tmap_traits@GPAVCUser@@U?$less@G@std@@V?$allocator@U?$pair@$$CBGPAVCUser@@@std@@@3@$0A@@std@@@std@@QBEABV?$_Tree_val@U?$_Tree_simple_types@U?$pair@$$CBGPAVCUser@@@std@@@std@@@2@XZ 005fd930 f i Npc.obj
 0002:0009d990       ?_Get_data@?$_Tree_comp_alloc@V?$_Tmap_traits@IPAU_K_MONSTER_ITEM@@U?$less@I@std@@V?$allocator@U?$pair@$$CBIPAU_K_MONSTER_ITEM@@@std@@@3@$0A@@std@@@std@@QAEAAV?$_Tree_val@U?$_Tree_simple_types@U?$pair@$$CBIPAU_K_MONSTER_ITEM@@@std@@@std@@@2@XZ 005fd990 f i Npc.obj
 0002:0009d9f0       ?_Get_data@?$_Tree_comp_alloc@V?$_Tmap_traits@IPAU_K_MONSTER_ITEM@@U?$less@I@std@@V?$allocator@U?$pair@$$CBIPAU_K_MONSTER_ITEM@@@std@@@3@$0A@@std@@@std@@QBEABV?$_Tree_val@U?$_Tree_simple_types@U?$pair@$$CBIPAU_K_MONSTER_ITEM@@@std@@@std@@@2@XZ 005fd9f0 f i Npc.obj
 0002:0009da50       ?_Get_data@?$_Tree_comp_alloc@V?$_Tmap_traits@IPAU_MAKE_ITEM_GRADE_CODE@@U?$less@I@std@@V?$allocator@U?$pair@$$CBIPAU_MAKE_ITEM_GRADE_CODE@@@std@@@3@$0A@@std@@@std@@QAEAAV?$_Tree_val@U?$_Tree_simple_types@U?$pair@$$CBIPAU_MAKE_ITEM_GRADE_CODE@@@std@@@std@@@2@XZ 005fda50 f i Npc.obj
 0002:0009dab0       ?_Get_data@?$_Tree_comp_alloc@V?$_Tmap_traits@IPAU_MAKE_ITEM_GRADE_CODE@@U?$less@I@std@@V?$allocator@U?$pair@$$CBIPAU_MAKE_ITEM_GRADE_CODE@@@std@@@3@$0A@@std@@@std@@QBEABV?$_Tree_val@U?$_Tree_simple_types@U?$pair@$$CBIPAU_MAKE_ITEM_GRADE_CODE@@@std@@@std@@@2@XZ 005fdab0 f i Npc.obj
 0002:0009db10       ?_Get_data@?$_Tree_comp_alloc@V?$_Tmap_traits@IPAU_MAKE_ITEM_GROUP@@U?$less@I@std@@V?$allocator@U?$pair@$$CBIPAU_MAKE_ITEM_GROUP@@@std@@@3@$0A@@std@@@std@@QAEAAV?$_Tree_val@U?$_Tree_simple_types@U?$pair@$$CBIPAU_MAKE_ITEM_GROUP@@@std@@@std@@@2@XZ 005fdb10 f i Npc.obj
 0002:0009db70       ?_Get_data@?$_Tree_comp_alloc@V?$_Tmap_traits@IPAU_MAKE_ITEM_GROUP@@U?$less@I@std@@V?$allocator@U?$pair@$$CBIPAU_MAKE_ITEM_GROUP@@@std@@@3@$0A@@std@@@std@@QBEABV?$_Tree_val@U?$_Tree_simple_types@U?$pair@$$CBIPAU_MAKE_ITEM_GROUP@@@std@@@std@@@2@XZ 005fdb70 f i Npc.obj
 0002:0009dbd0       ?_Get_data@?$_Tree_comp_alloc@V?$_Tmap_traits@IPAU_MAKE_ITEM_LARE_CODE@@U?$less@I@std@@V?$allocator@U?$pair@$$CBIPAU_MAKE_ITEM_LARE_CODE@@@std@@@3@$0A@@std@@@std@@QAEAAV?$_Tree_val@U?$_Tree_simple_types@U?$pair@$$CBIPAU_MAKE_ITEM_LARE_CODE@@@std@@@std@@@2@XZ 005fdbd0 f i Npc.obj
 0002:0009dc30       ?_Get_data@?$_Tree_comp_alloc@V?$_Tmap_traits@IPAU_MAKE_ITEM_LARE_CODE@@U?$less@I@std@@V?$allocator@U?$pair@$$CBIPAU_MAKE_ITEM_LARE_CODE@@@std@@@3@$0A@@std@@@std@@QBEABV?$_Tree_val@U?$_Tree_simple_types@U?$pair@$$CBIPAU_MAKE_ITEM_LARE_CODE@@@std@@@std@@@2@XZ 005fdc30 f i Npc.obj
 0002:0009dc90       ?_Get_data@?$_Tree_comp_alloc@V?$_Tmap_traits@IPAU_MAKE_WEAPON@@U?$less@I@std@@V?$allocator@U?$pair@$$CBIPAU_MAKE_WEAPON@@@std@@@3@$0A@@std@@@std@@QAEAAV?$_Tree_val@U?$_Tree_simple_types@U?$pair@$$CBIPAU_MAKE_WEAPON@@@std@@@std@@@2@XZ 005fdc90 f i Npc.obj
 0002:0009dcf0       ?_Get_data@?$_Tree_comp_alloc@V?$_Tmap_traits@IPAU_MAKE_WEAPON@@U?$less@I@std@@V?$allocator@U?$pair@$$CBIPAU_MAKE_WEAPON@@@std@@@3@$0A@@std@@@std@@QBEABV?$_Tree_val@U?$_Tree_simple_types@U?$pair@$$CBIPAU_MAKE_WEAPON@@@std@@@std@@@2@XZ 005fdcf0 f i Npc.obj
 0002:0009dd50       ?_Get_data@?$_Tree_comp_alloc@V?$_Tmap_traits@PAVCUser@@HU?$less@PAVCUser@@@std@@V?$allocator@U?$pair@QAVCUser@@H@std@@@3@$0A@@std@@@std@@QAEAAV?$_Tree_val@U?$_Tree_simple_types@U?$pair@QAVCUser@@H@std@@@std@@@2@XZ 005fdd50 f i Npc.obj
 0002:0009ddb0       ?_Get_data@?$_Tree_comp_alloc@V?$_Tmap_traits@PAVCUser@@HU?$less@PAVCUser@@@std@@V?$allocator@U?$pair@QAVCUser@@H@std@@@3@$0A@@std@@@std@@QBEABV?$_Tree_val@U?$_Tree_simple_types@U?$pair@QAVCUser@@H@std@@@std@@@2@XZ 005fddb0 f i Npc.obj
 0002:0009de10       ?_Get_data@?$_Vector_alloc@U?$_Vec_base_types@IV?$allocator@I@std@@@std@@@std@@QAEAAV?$_Vector_val@U?$_Simple_types@I@std@@@2@XZ 005fde10 f i Npc.obj
 0002:0009de60       ?_Get_data@?$_Vector_alloc@U?$_Vec_base_types@IV?$allocator@I@std@@@std@@@std@@QBEABV?$_Vector_val@U?$_Simple_types@I@std@@@2@XZ 005fde60 f i Npc.obj
 0002:0009deb0       ?_Get_first@?$_Compressed_pair@U?$less@G@std@@V?$_Compressed_pair@V?$allocator@U?$_Tree_node@U?$pair@$$CBGPAVCUser@@@std@@PAX@std@@@std@@V?$_Tree_val@U?$_Tree_simple_types@U?$pair@$$CBGPAVCUser@@@std@@@std@@@2@$00@2@$00@std@@QAEAAU?$less@G@2@XZ 005fdeb0 f i Npc.obj
 0002:0009def0       ?_Get_first@?$_Compressed_pair@U?$less@G@std@@V?$_Compressed_pair@V?$allocator@U?$_Tree_node@U?$pair@$$CBGPAVCUser@@@std@@PAX@std@@@std@@V?$_Tree_val@U?$_Tree_simple_types@U?$pair@$$CBGPAVCUser@@@std@@@std@@@2@$00@2@$00@std@@QBEABU?$less@G@2@XZ 005fdef0 f i Npc.obj
 0002:0009df30       ?_Get_first@?$_Compressed_pair@U?$less@I@std@@V?$_Compressed_pair@V?$allocator@U?$_Tree_node@U?$pair@$$CBIPAU_K_MONSTER_ITEM@@@std@@PAX@std@@@std@@V?$_Tree_val@U?$_Tree_simple_types@U?$pair@$$CBIPAU_K_MONSTER_ITEM@@@std@@@std@@@2@$00@2@$00@std@@QAEAAU?$less@I@2@XZ 005fdf30 f i Npc.obj
 0002:0009df70       ?_Get_first@?$_Compressed_pair@U?$less@I@std@@V?$_Compressed_pair@V?$allocator@U?$_Tree_node@U?$pair@$$CBIPAU_K_MONSTER_ITEM@@@std@@PAX@std@@@std@@V?$_Tree_val@U?$_Tree_simple_types@U?$pair@$$CBIPAU_K_MONSTER_ITEM@@@std@@@std@@@2@$00@2@$00@std@@QBEABU?$less@I@2@XZ 005fdf70 f i Npc.obj
 0002:0009dfb0       ?_Get_first@?$_Compressed_pair@U?$less@I@std@@V?$_Compressed_pair@V?$allocator@U?$_Tree_node@U?$pair@$$CBIPAU_MAKE_ITEM_GRADE_CODE@@@std@@PAX@std@@@std@@V?$_Tree_val@U?$_Tree_simple_types@U?$pair@$$CBIPAU_MAKE_ITEM_GRADE_CODE@@@std@@@std@@@2@$00@2@$00@std@@QAEAAU?$less@I@2@XZ 005fdfb0 f i Npc.obj
 0002:0009dff0       ?_Get_first@?$_Compressed_pair@U?$less@I@std@@V?$_Compressed_pair@V?$allocator@U?$_Tree_node@U?$pair@$$CBIPAU_MAKE_ITEM_GRADE_CODE@@@std@@PAX@std@@@std@@V?$_Tree_val@U?$_Tree_simple_types@U?$pair@$$CBIPAU_MAKE_ITEM_GRADE_CODE@@@std@@@std@@@2@$00@2@$00@std@@QBEABU?$less@I@2@XZ 005fdff0 f i Npc.obj
 0002:0009e030       ?_Get_first@?$_Compressed_pair@U?$less@I@std@@V?$_Compressed_pair@V?$allocator@U?$_Tree_node@U?$pair@$$CBIPAU_MAKE_ITEM_GROUP@@@std@@PAX@std@@@std@@V?$_Tree_val@U?$_Tree_simple_types@U?$pair@$$CBIPAU_MAKE_ITEM_GROUP@@@std@@@std@@@2@$00@2@$00@std@@QAEAAU?$less@I@2@XZ 005fe030 f i Npc.obj
 0002:0009e070       ?_Get_first@?$_Compressed_pair@U?$less@I@std@@V?$_Compressed_pair@V?$allocator@U?$_Tree_node@U?$pair@$$CBIPAU_MAKE_ITEM_GROUP@@@std@@PAX@std@@@std@@V?$_Tree_val@U?$_Tree_simple_types@U?$pair@$$CBIPAU_MAKE_ITEM_GROUP@@@std@@@std@@@2@$00@2@$00@std@@QBEABU?$less@I@2@XZ 005fe070 f i Npc.obj
 0002:0009e0b0       ?_Get_first@?$_Compressed_pair@U?$less@I@std@@V?$_Compressed_pair@V?$allocator@U?$_Tree_node@U?$pair@$$CBIPAU_MAKE_ITEM_LARE_CODE@@@std@@PAX@std@@@std@@V?$_Tree_val@U?$_Tree_simple_types@U?$pair@$$CBIPAU_MAKE_ITEM_LARE_CODE@@@std@@@std@@@2@$00@2@$00@std@@QAEAAU?$less@I@2@XZ 005fe0b0 f i Npc.obj
 0002:0009e0f0       ?_Get_first@?$_Compressed_pair@U?$less@I@std@@V?$_Compressed_pair@V?$allocator@U?$_Tree_node@U?$pair@$$CBIPAU_MAKE_ITEM_LARE_CODE@@@std@@PAX@std@@@std@@V?$_Tree_val@U?$_Tree_simple_types@U?$pair@$$CBIPAU_MAKE_ITEM_LARE_CODE@@@std@@@std@@@2@$00@2@$00@std@@QBEABU?$less@I@2@XZ 005fe0f0 f i Npc.obj
 0002:0009e130       ?_Get_first@?$_Compressed_pair@U?$less@I@std@@V?$_Compressed_pair@V?$allocator@U?$_Tree_node@U?$pair@$$CBIPAU_MAKE_WEAPON@@@std@@PAX@std@@@std@@V?$_Tree_val@U?$_Tree_simple_types@U?$pair@$$CBIPAU_MAKE_WEAPON@@@std@@@std@@@2@$00@2@$00@std@@QAEAAU?$less@I@2@XZ 005fe130 f i Npc.obj
 0002:0009e170       ?_Get_first@?$_Compressed_pair@U?$less@I@std@@V?$_Compressed_pair@V?$allocator@U?$_Tree_node@U?$pair@$$CBIPAU_MAKE_WEAPON@@@std@@PAX@std@@@std@@V?$_Tree_val@U?$_Tree_simple_types@U?$pair@$$CBIPAU_MAKE_WEAPON@@@std@@@std@@@2@$00@2@$00@std@@QBEABU?$less@I@2@XZ 005fe170 f i Npc.obj
 0002:0009e1b0       ?_Get_first@?$_Compressed_pair@U?$less@PAVCUser@@@std@@V?$_Compressed_pair@V?$allocator@U?$_Tree_node@U?$pair@QAVCUser@@H@std@@PAX@std@@@std@@V?$_Tree_val@U?$_Tree_simple_types@U?$pair@QAVCUser@@H@std@@@std@@@2@$00@2@$00@std@@QAEAAU?$less@PAVCUser@@@2@XZ 005fe1b0 f i Npc.obj
 0002:0009e1f0       ?_Get_first@?$_Compressed_pair@U?$less@PAVCUser@@@std@@V?$_Compressed_pair@V?$allocator@U?$_Tree_node@U?$pair@QAVCUser@@H@std@@PAX@std@@@std@@V?$_Tree_val@U?$_Tree_simple_types@U?$pair@QAVCUser@@H@std@@@std@@@2@$00@2@$00@std@@QBEABU?$less@PAVCUser@@@2@XZ 005fe1f0 f i Npc.obj
 0002:0009e230       ?_Get_first@?$_Compressed_pair@V?$allocator@I@std@@V?$_Vector_val@U?$_Simple_types@I@std@@@2@$00@std@@QAEAAV?$allocator@I@2@XZ 005fe230 f i Npc.obj
 0002:0009e270       ?_Get_first@?$_Compressed_pair@V?$allocator@I@std@@V?$_Vector_val@U?$_Simple_types@I@std@@@2@$00@std@@QBEABV?$allocator@I@2@XZ 005fe270 f i Npc.obj
 0002:0009e2b0       ?_Get_first@?$_Compressed_pair@V?$allocator@U?$_Tree_node@U?$pair@$$CBGPAVCUser@@@std@@PAX@std@@@std@@V?$_Tree_val@U?$_Tree_simple_types@U?$pair@$$CBGPAVCUser@@@std@@@std@@@2@$00@std@@QAEAAV?$allocator@U?$_Tree_node@U?$pair@$$CBGPAVCUser@@@std@@PAX@std@@@2@XZ 005fe2b0 f i Npc.obj
 0002:0009e2f0       ?_Get_first@?$_Compressed_pair@V?$allocator@U?$_Tree_node@U?$pair@$$CBGPAVCUser@@@std@@PAX@std@@@std@@V?$_Tree_val@U?$_Tree_simple_types@U?$pair@$$CBGPAVCUser@@@std@@@std@@@2@$00@std@@QBEABV?$allocator@U?$_Tree_node@U?$pair@$$CBGPAVCUser@@@std@@PAX@std@@@2@XZ 005fe2f0 f i Npc.obj
 0002:0009e330       ?_Get_first@?$_Compressed_pair@V?$allocator@U?$_Tree_node@U?$pair@QAVCUser@@H@std@@PAX@std@@@std@@V?$_Tree_val@U?$_Tree_simple_types@U?$pair@QAVCUser@@H@std@@@std@@@2@$00@std@@QAEAAV?$allocator@U?$_Tree_node@U?$pair@QAVCUser@@H@std@@PAX@std@@@2@XZ 005fe330 f i Npc.obj
 0002:0009e370       ?_Get_first@?$_Compressed_pair@V?$allocator@U?$_Tree_node@U?$pair@QAVCUser@@H@std@@PAX@std@@@std@@V?$_Tree_val@U?$_Tree_simple_types@U?$pair@QAVCUser@@H@std@@@std@@@2@$00@std@@QBEABV?$allocator@U?$_Tree_node@U?$pair@QAVCUser@@H@std@@PAX@std@@@2@XZ 005fe370 f i Npc.obj
 0002:0009e3b0       ?_Get_second@?$_Compressed_pair@U?$less@G@std@@V?$_Compressed_pair@V?$allocator@U?$_Tree_node@U?$pair@$$CBGPAVCUser@@@std@@PAX@std@@@std@@V?$_Tree_val@U?$_Tree_simple_types@U?$pair@$$CBGPAVCUser@@@std@@@std@@@2@$00@2@$00@std@@QAEAAV?$_Compressed_pair@V?$allocator@U?$_Tree_node@U?$pair@$$CBGPAVCUser@@@std@@PAX@std@@@std@@V?$_Tree_val@U?$_Tree_simple_types@U?$pair@$$CBGPAVCUser@@@std@@@std@@@2@$00@2@XZ 005fe3b0 f i Npc.obj
 0002:0009e3f0       ?_Get_second@?$_Compressed_pair@U?$less@G@std@@V?$_Compressed_pair@V?$allocator@U?$_Tree_node@U?$pair@$$CBGPAVCUser@@@std@@PAX@std@@@std@@V?$_Tree_val@U?$_Tree_simple_types@U?$pair@$$CBGPAVCUser@@@std@@@std@@@2@$00@2@$00@std@@QBEABV?$_Compressed_pair@V?$allocator@U?$_Tree_node@U?$pair@$$CBGPAVCUser@@@std@@PAX@std@@@std@@V?$_Tree_val@U?$_Tree_simple_types@U?$pair@$$CBGPAVCUser@@@std@@@std@@@2@$00@2@XZ 005fe3f0 f i Npc.obj
 0002:0009e430       ?_Get_second@?$_Compressed_pair@U?$less@I@std@@V?$_Compressed_pair@V?$allocator@U?$_Tree_node@U?$pair@$$CBIPAU_K_MONSTER_ITEM@@@std@@PAX@std@@@std@@V?$_Tree_val@U?$_Tree_simple_types@U?$pair@$$CBIPAU_K_MONSTER_ITEM@@@std@@@std@@@2@$00@2@$00@std@@QAEAAV?$_Compressed_pair@V?$allocator@U?$_Tree_node@U?$pair@$$CBIPAU_K_MONSTER_ITEM@@@std@@PAX@std@@@std@@V?$_Tree_val@U?$_Tree_simple_types@U?$pair@$$CBIPAU_K_MONSTER_ITEM@@@std@@@std@@@2@$00@2@XZ 005fe430 f i Npc.obj
 0002:0009e470       ?_Get_second@?$_Compressed_pair@U?$less@I@std@@V?$_Compressed_pair@V?$allocator@U?$_Tree_node@U?$pair@$$CBIPAU_K_MONSTER_ITEM@@@std@@PAX@std@@@std@@V?$_Tree_val@U?$_Tree_simple_types@U?$pair@$$CBIPAU_K_MONSTER_ITEM@@@std@@@std@@@2@$00@2@$00@std@@QBEABV?$_Compressed_pair@V?$allocator@U?$_Tree_node@U?$pair@$$CBIPAU_K_MONSTER_ITEM@@@std@@PAX@std@@@std@@V?$_Tree_val@U?$_Tree_simple_types@U?$pair@$$CBIPAU_K_MONSTER_ITEM@@@std@@@std@@@2@$00@2@XZ 005fe470 f i Npc.obj
 0002:0009e4b0       ?_Get_second@?$_Compressed_pair@U?$less@I@std@@V?$_Compressed_pair@V?$allocator@U?$_Tree_node@U?$pair@$$CBIPAU_MAKE_ITEM_GRADE_CODE@@@std@@PAX@std@@@std@@V?$_Tree_val@U?$_Tree_simple_types@U?$pair@$$CBIPAU_MAKE_ITEM_GRADE_CODE@@@std@@@std@@@2@$00@2@$00@std@@QAEAAV?$_Compressed_pair@V?$allocator@U?$_Tree_node@U?$pair@$$CBIPAU_MAKE_ITEM_GRADE_CODE@@@std@@PAX@std@@@std@@V?$_Tree_val@U?$_Tree_simple_types@U?$pair@$$CBIPAU_MAKE_ITEM_GRADE_CODE@@@std@@@std@@@2@$00@2@XZ 005fe4b0 f i Npc.obj
 0002:0009e4f0       ?_Get_second@?$_Compressed_pair@U?$less@I@std@@V?$_Compressed_pair@V?$allocator@U?$_Tree_node@U?$pair@$$CBIPAU_MAKE_ITEM_GRADE_CODE@@@std@@PAX@std@@@std@@V?$_Tree_val@U?$_Tree_simple_types@U?$pair@$$CBIPAU_MAKE_ITEM_GRADE_CODE@@@std@@@std@@@2@$00@2@$00@std@@QBEABV?$_Compressed_pair@V?$allocator@U?$_Tree_node@U?$pair@$$CBIPAU_MAKE_ITEM_GRADE_CODE@@@std@@PAX@std@@@std@@V?$_Tree_val@U?$_Tree_simple_types@U?$pair@$$CBIPAU_MAKE_ITEM_GRADE_CODE@@@std@@@std@@@2@$00@2@XZ 005fe4f0 f i Npc.obj
 0002:0009e530       ?_Get_second@?$_Compressed_pair@U?$less@I@std@@V?$_Compressed_pair@V?$allocator@U?$_Tree_node@U?$pair@$$CBIPAU_MAKE_ITEM_GROUP@@@std@@PAX@std@@@std@@V?$_Tree_val@U?$_Tree_simple_types@U?$pair@$$CBIPAU_MAKE_ITEM_GROUP@@@std@@@std@@@2@$00@2@$00@std@@QAEAAV?$_Compressed_pair@V?$allocator@U?$_Tree_node@U?$pair@$$CBIPAU_MAKE_ITEM_GROUP@@@std@@PAX@std@@@std@@V?$_Tree_val@U?$_Tree_simple_types@U?$pair@$$CBIPAU_MAKE_ITEM_GROUP@@@std@@@std@@@2@$00@2@XZ 005fe530 f i Npc.obj
 0002:0009e570       ?_Get_second@?$_Compressed_pair@U?$less@I@std@@V?$_Compressed_pair@V?$allocator@U?$_Tree_node@U?$pair@$$CBIPAU_MAKE_ITEM_GROUP@@@std@@PAX@std@@@std@@V?$_Tree_val@U?$_Tree_simple_types@U?$pair@$$CBIPAU_MAKE_ITEM_GROUP@@@std@@@std@@@2@$00@2@$00@std@@QBEABV?$_Compressed_pair@V?$allocator@U?$_Tree_node@U?$pair@$$CBIPAU_MAKE_ITEM_GROUP@@@std@@PAX@std@@@std@@V?$_Tree_val@U?$_Tree_simple_types@U?$pair@$$CBIPAU_MAKE_ITEM_GROUP@@@std@@@std@@@2@$00@2@XZ 005fe570 f i Npc.obj
 0002:0009e5b0       ?_Get_second@?$_Compressed_pair@U?$less@I@std@@V?$_Compressed_pair@V?$allocator@U?$_Tree_node@U?$pair@$$CBIPAU_MAKE_ITEM_LARE_CODE@@@std@@PAX@std@@@std@@V?$_Tree_val@U?$_Tree_simple_types@U?$pair@$$CBIPAU_MAKE_ITEM_LARE_CODE@@@std@@@std@@@2@$00@2@$00@std@@QAEAAV?$_Compressed_pair@V?$allocator@U?$_Tree_node@U?$pair@$$CBIPAU_MAKE_ITEM_LARE_CODE@@@std@@PAX@std@@@std@@V?$_Tree_val@U?$_Tree_simple_types@U?$pair@$$CBIPAU_MAKE_ITEM_LARE_CODE@@@std@@@std@@@2@$00@2@XZ 005fe5b0 f i Npc.obj
 0002:0009e5f0       ?_Get_second@?$_Compressed_pair@U?$less@I@std@@V?$_Compressed_pair@V?$allocator@U?$_Tree_node@U?$pair@$$CBIPAU_MAKE_ITEM_LARE_CODE@@@std@@PAX@std@@@std@@V?$_Tree_val@U?$_Tree_simple_types@U?$pair@$$CBIPAU_MAKE_ITEM_LARE_CODE@@@std@@@std@@@2@$00@2@$00@std@@QBEABV?$_Compressed_pair@V?$allocator@U?$_Tree_node@U?$pair@$$CBIPAU_MAKE_ITEM_LARE_CODE@@@std@@PAX@std@@@std@@V?$_Tree_val@U?$_Tree_simple_types@U?$pair@$$CBIPAU_MAKE_ITEM_LARE_CODE@@@std@@@std@@@2@$00@2@XZ 005fe5f0 f i Npc.obj
 0002:0009e630       ?_Get_second@?$_Compressed_pair@U?$less@I@std@@V?$_Compressed_pair@V?$allocator@U?$_Tree_node@U?$pair@$$CBIPAU_MAKE_WEAPON@@@std@@PAX@std@@@std@@V?$_Tree_val@U?$_Tree_simple_types@U?$pair@$$CBIPAU_MAKE_WEAPON@@@std@@@std@@@2@$00@2@$00@std@@QAEAAV?$_Compressed_pair@V?$allocator@U?$_Tree_node@U?$pair@$$CBIPAU_MAKE_WEAPON@@@std@@PAX@std@@@std@@V?$_Tree_val@U?$_Tree_simple_types@U?$pair@$$CBIPAU_MAKE_WEAPON@@@std@@@std@@@2@$00@2@XZ 005fe630 f i Npc.obj
 0002:0009e670       ?_Get_second@?$_Compressed_pair@U?$less@I@std@@V?$_Compressed_pair@V?$allocator@U?$_Tree_node@U?$pair@$$CBIPAU_MAKE_WEAPON@@@std@@PAX@std@@@std@@V?$_Tree_val@U?$_Tree_simple_types@U?$pair@$$CBIPAU_MAKE_WEAPON@@@std@@@std@@@2@$00@2@$00@std@@QBEABV?$_Compressed_pair@V?$allocator@U?$_Tree_node@U?$pair@$$CBIPAU_MAKE_WEAPON@@@std@@PAX@std@@@std@@V?$_Tree_val@U?$_Tree_simple_types@U?$pair@$$CBIPAU_MAKE_WEAPON@@@std@@@std@@@2@$00@2@XZ 005fe670 f i Npc.obj
 0002:0009e6b0       ?_Get_second@?$_Compressed_pair@U?$less@PAVCUser@@@std@@V?$_Compressed_pair@V?$allocator@U?$_Tree_node@U?$pair@QAVCUser@@H@std@@PAX@std@@@std@@V?$_Tree_val@U?$_Tree_simple_types@U?$pair@QAVCUser@@H@std@@@std@@@2@$00@2@$00@std@@QAEAAV?$_Compressed_pair@V?$allocator@U?$_Tree_node@U?$pair@QAVCUser@@H@std@@PAX@std@@@std@@V?$_Tree_val@U?$_Tree_simple_types@U?$pair@QAVCUser@@H@std@@@std@@@2@$00@2@XZ 005fe6b0 f i Npc.obj
 0002:0009e6f0       ?_Get_second@?$_Compressed_pair@U?$less@PAVCUser@@@std@@V?$_Compressed_pair@V?$allocator@U?$_Tree_node@U?$pair@QAVCUser@@H@std@@PAX@std@@@std@@V?$_Tree_val@U?$_Tree_simple_types@U?$pair@QAVCUser@@H@std@@@std@@@2@$00@2@$00@std@@QBEABV?$_Compressed_pair@V?$allocator@U?$_Tree_node@U?$pair@QAVCUser@@H@std@@PAX@std@@@std@@V?$_Tree_val@U?$_Tree_simple_types@U?$pair@QAVCUser@@H@std@@@std@@@2@$00@2@XZ 005fe6f0 f i Npc.obj
 0002:0009e730       ?_Get_second@?$_Compressed_pair@V?$allocator@I@std@@V?$_Vector_val@U?$_Simple_types@I@std@@@2@$00@std@@QAEAAV?$_Vector_val@U?$_Simple_types@I@std@@@2@XZ 005fe730 f i Npc.obj
 0002:0009e770       ?_Get_second@?$_Compressed_pair@V?$allocator@I@std@@V?$_Vector_val@U?$_Simple_types@I@std@@@2@$00@std@@QBEABV?$_Vector_val@U?$_Simple_types@I@std@@@2@XZ 005fe770 f i Npc.obj
 0002:0009e7b0       ?_Get_second@?$_Compressed_pair@V?$allocator@U?$_Tree_node@U?$pair@$$CBGPAVCUser@@@std@@PAX@std@@@std@@V?$_Tree_val@U?$_Tree_simple_types@U?$pair@$$CBGPAVCUser@@@std@@@std@@@2@$00@std@@QAEAAV?$_Tree_val@U?$_Tree_simple_types@U?$pair@$$CBGPAVCUser@@@std@@@std@@@2@XZ 005fe7b0 f i Npc.obj
 0002:0009e7f0       ?_Get_second@?$_Compressed_pair@V?$allocator@U?$_Tree_node@U?$pair@$$CBGPAVCUser@@@std@@PAX@std@@@std@@V?$_Tree_val@U?$_Tree_simple_types@U?$pair@$$CBGPAVCUser@@@std@@@std@@@2@$00@std@@QBEABV?$_Tree_val@U?$_Tree_simple_types@U?$pair@$$CBGPAVCUser@@@std@@@std@@@2@XZ 005fe7f0 f i Npc.obj
 0002:0009e830       ?_Get_second@?$_Compressed_pair@V?$allocator@U?$_Tree_node@U?$pair@$$CBIPAU_K_MONSTER_ITEM@@@std@@PAX@std@@@std@@V?$_Tree_val@U?$_Tree_simple_types@U?$pair@$$CBIPAU_K_MONSTER_ITEM@@@std@@@std@@@2@$00@std@@QAEAAV?$_Tree_val@U?$_Tree_simple_types@U?$pair@$$CBIPAU_K_MONSTER_ITEM@@@std@@@std@@@2@XZ 005fe830 f i Npc.obj
 0002:0009e870       ?_Get_second@?$_Compressed_pair@V?$allocator@U?$_Tree_node@U?$pair@$$CBIPAU_K_MONSTER_ITEM@@@std@@PAX@std@@@std@@V?$_Tree_val@U?$_Tree_simple_types@U?$pair@$$CBIPAU_K_MONSTER_ITEM@@@std@@@std@@@2@$00@std@@QBEABV?$_Tree_val@U?$_Tree_simple_types@U?$pair@$$CBIPAU_K_MONSTER_ITEM@@@std@@@std@@@2@XZ 005fe870 f i Npc.obj
 0002:0009e8b0       ?_Get_second@?$_Compressed_pair@V?$allocator@U?$_Tree_node@U?$pair@$$CBIPAU_MAKE_ITEM_GRADE_CODE@@@std@@PAX@std@@@std@@V?$_Tree_val@U?$_Tree_simple_types@U?$pair@$$CBIPAU_MAKE_ITEM_GRADE_CODE@@@std@@@std@@@2@$00@std@@QAEAAV?$_Tree_val@U?$_Tree_simple_types@U?$pair@$$CBIPAU_MAKE_ITEM_GRADE_CODE@@@std@@@std@@@2@XZ 005fe8b0 f i Npc.obj
 0002:0009e8f0       ?_Get_second@?$_Compressed_pair@V?$allocator@U?$_Tree_node@U?$pair@$$CBIPAU_MAKE_ITEM_GRADE_CODE@@@std@@PAX@std@@@std@@V?$_Tree_val@U?$_Tree_simple_types@U?$pair@$$CBIPAU_MAKE_ITEM_GRADE_CODE@@@std@@@std@@@2@$00@std@@QBEABV?$_Tree_val@U?$_Tree_simple_types@U?$pair@$$CBIPAU_MAKE_ITEM_GRADE_CODE@@@std@@@std@@@2@XZ 005fe8f0 f i Npc.obj
 0002:0009e930       ?_Get_second@?$_Compressed_pair@V?$allocator@U?$_Tree_node@U?$pair@$$CBIPAU_MAKE_ITEM_GROUP@@@std@@PAX@std@@@std@@V?$_Tree_val@U?$_Tree_simple_types@U?$pair@$$CBIPAU_MAKE_ITEM_GROUP@@@std@@@std@@@2@$00@std@@QAEAAV?$_Tree_val@U?$_Tree_simple_types@U?$pair@$$CBIPAU_MAKE_ITEM_GROUP@@@std@@@std@@@2@XZ 005fe930 f i Npc.obj
 0002:0009e970       ?_Get_second@?$_Compressed_pair@V?$allocator@U?$_Tree_node@U?$pair@$$CBIPAU_MAKE_ITEM_GROUP@@@std@@PAX@std@@@std@@V?$_Tree_val@U?$_Tree_simple_types@U?$pair@$$CBIPAU_MAKE_ITEM_GROUP@@@std@@@std@@@2@$00@std@@QBEABV?$_Tree_val@U?$_Tree_simple_types@U?$pair@$$CBIPAU_MAKE_ITEM_GROUP@@@std@@@std@@@2@XZ 005fe970 f i Npc.obj
 0002:0009e9b0       ?_Get_second@?$_Compressed_pair@V?$allocator@U?$_Tree_node@U?$pair@$$CBIPAU_MAKE_ITEM_LARE_CODE@@@std@@PAX@std@@@std@@V?$_Tree_val@U?$_Tree_simple_types@U?$pair@$$CBIPAU_MAKE_ITEM_LARE_CODE@@@std@@@std@@@2@$00@std@@QAEAAV?$_Tree_val@U?$_Tree_simple_types@U?$pair@$$CBIPAU_MAKE_ITEM_LARE_CODE@@@std@@@std@@@2@XZ 005fe9b0 f i Npc.obj
 0002:0009e9f0       ?_Get_second@?$_Compressed_pair@V?$allocator@U?$_Tree_node@U?$pair@$$CBIPAU_MAKE_ITEM_LARE_CODE@@@std@@PAX@std@@@std@@V?$_Tree_val@U?$_Tree_simple_types@U?$pair@$$CBIPAU_MAKE_ITEM_LARE_CODE@@@std@@@std@@@2@$00@std@@QBEABV?$_Tree_val@U?$_Tree_simple_types@U?$pair@$$CBIPAU_MAKE_ITEM_LARE_CODE@@@std@@@std@@@2@XZ 005fe9f0 f i Npc.obj
 0002:0009ea30       ?_Get_second@?$_Compressed_pair@V?$allocator@U?$_Tree_node@U?$pair@$$CBIPAU_MAKE_WEAPON@@@std@@PAX@std@@@std@@V?$_Tree_val@U?$_Tree_simple_types@U?$pair@$$CBIPAU_MAKE_WEAPON@@@std@@@std@@@2@$00@std@@QAEAAV?$_Tree_val@U?$_Tree_simple_types@U?$pair@$$CBIPAU_MAKE_WEAPON@@@std@@@std@@@2@XZ 005fea30 f i Npc.obj
 0002:0009ea70       ?_Get_second@?$_Compressed_pair@V?$allocator@U?$_Tree_node@U?$pair@$$CBIPAU_MAKE_WEAPON@@@std@@PAX@std@@@std@@V?$_Tree_val@U?$_Tree_simple_types@U?$pair@$$CBIPAU_MAKE_WEAPON@@@std@@@std@@@2@$00@std@@QBEABV?$_Tree_val@U?$_Tree_simple_types@U?$pair@$$CBIPAU_MAKE_WEAPON@@@std@@@std@@@2@XZ 005fea70 f i Npc.obj
 0002:0009eab0       ?_Get_second@?$_Compressed_pair@V?$allocator@U?$_Tree_node@U?$pair@QAVCUser@@H@std@@PAX@std@@@std@@V?$_Tree_val@U?$_Tree_simple_types@U?$pair@QAVCUser@@H@std@@@std@@@2@$00@std@@QAEAAV?$_Tree_val@U?$_Tree_simple_types@U?$pair@QAVCUser@@H@std@@@std@@@2@XZ 005feab0 f i Npc.obj
 0002:0009eaf0       ?_Get_second@?$_Compressed_pair@V?$allocator@U?$_Tree_node@U?$pair@QAVCUser@@H@std@@PAX@std@@@std@@V?$_Tree_val@U?$_Tree_simple_types@U?$pair@QAVCUser@@H@std@@@std@@@2@$00@std@@QBEABV?$_Tree_val@U?$_Tree_simple_types@U?$pair@QAVCUser@@H@std@@@std@@@2@XZ 005feaf0 f i Npc.obj
 0002:0009eb30       ?_Getal@?$_Tree_comp_alloc@V?$_Tmap_traits@GPAVCUser@@U?$less@G@std@@V?$allocator@U?$pair@$$CBGPAVCUser@@@std@@@3@$0A@@std@@@std@@QAEAAV?$allocator@U?$_Tree_node@U?$pair@$$CBGPAVCUser@@@std@@PAX@std@@@2@XZ 005feb30 f i Npc.obj
 0002:0009eb90       ?_Getal@?$_Tree_comp_alloc@V?$_Tmap_traits@GPAVCUser@@U?$less@G@std@@V?$allocator@U?$pair@$$CBGPAVCUser@@@std@@@3@$0A@@std@@@std@@QBEABV?$allocator@U?$_Tree_node@U?$pair@$$CBGPAVCUser@@@std@@PAX@std@@@2@XZ 005feb90 f i Npc.obj
 0002:0009ebf0       ?_Getal@?$_Tree_comp_alloc@V?$_Tmap_traits@PAVCUser@@HU?$less@PAVCUser@@@std@@V?$allocator@U?$pair@QAVCUser@@H@std@@@3@$0A@@std@@@std@@QAEAAV?$allocator@U?$_Tree_node@U?$pair@QAVCUser@@H@std@@PAX@std@@@2@XZ 005febf0 f i Npc.obj
 0002:0009ec50       ?_Getal@?$_Tree_comp_alloc@V?$_Tmap_traits@PAVCUser@@HU?$less@PAVCUser@@@std@@V?$allocator@U?$pair@QAVCUser@@H@std@@@3@$0A@@std@@@std@@QBEABV?$allocator@U?$_Tree_node@U?$pair@QAVCUser@@H@std@@PAX@std@@@2@XZ 005fec50 f i Npc.obj
 0002:0009ecb0       ?_Getal@?$_Vector_alloc@U?$_Vec_base_types@IV?$allocator@I@std@@@std@@@std@@QAEAAV?$allocator@I@2@XZ 005fecb0 f i Npc.obj
 0002:0009ed00       ?_Getal@?$_Vector_alloc@U?$_Vec_base_types@IV?$allocator@I@std@@@std@@@std@@QBEABV?$allocator@I@2@XZ 005fed00 f i Npc.obj
 0002:0009ed50       ?_Getcomp@?$_Tree_comp_alloc@V?$_Tmap_traits@GPAVCUser@@U?$less@G@std@@V?$allocator@U?$pair@$$CBGPAVCUser@@@std@@@3@$0A@@std@@@std@@QAEAAU?$less@G@2@XZ 005fed50 f i Npc.obj
 0002:0009eda0       ?_Getcomp@?$_Tree_comp_alloc@V?$_Tmap_traits@GPAVCUser@@U?$less@G@std@@V?$allocator@U?$pair@$$CBGPAVCUser@@@std@@@3@$0A@@std@@@std@@QBEABU?$less@G@2@XZ 005feda0 f i Npc.obj
 0002:0009edf0       ?_Getcomp@?$_Tree_comp_alloc@V?$_Tmap_traits@IPAU_K_MONSTER_ITEM@@U?$less@I@std@@V?$allocator@U?$pair@$$CBIPAU_K_MONSTER_ITEM@@@std@@@3@$0A@@std@@@std@@QAEAAU?$less@I@2@XZ 005fedf0 f i Npc.obj
 0002:0009ee40       ?_Getcomp@?$_Tree_comp_alloc@V?$_Tmap_traits@IPAU_K_MONSTER_ITEM@@U?$less@I@std@@V?$allocator@U?$pair@$$CBIPAU_K_MONSTER_ITEM@@@std@@@3@$0A@@std@@@std@@QBEABU?$less@I@2@XZ 005fee40 f i Npc.obj
 0002:0009ee90       ?_Getcomp@?$_Tree_comp_alloc@V?$_Tmap_traits@IPAU_MAKE_ITEM_GRADE_CODE@@U?$less@I@std@@V?$allocator@U?$pair@$$CBIPAU_MAKE_ITEM_GRADE_CODE@@@std@@@3@$0A@@std@@@std@@QAEAAU?$less@I@2@XZ 005fee90 f i Npc.obj
 0002:0009eee0       ?_Getcomp@?$_Tree_comp_alloc@V?$_Tmap_traits@IPAU_MAKE_ITEM_GRADE_CODE@@U?$less@I@std@@V?$allocator@U?$pair@$$CBIPAU_MAKE_ITEM_GRADE_CODE@@@std@@@3@$0A@@std@@@std@@QBEABU?$less@I@2@XZ 005feee0 f i Npc.obj
 0002:0009ef30       ?_Getcomp@?$_Tree_comp_alloc@V?$_Tmap_traits@IPAU_MAKE_ITEM_GROUP@@U?$less@I@std@@V?$allocator@U?$pair@$$CBIPAU_MAKE_ITEM_GROUP@@@std@@@3@$0A@@std@@@std@@QAEAAU?$less@I@2@XZ 005fef30 f i Npc.obj
 0002:0009ef80       ?_Getcomp@?$_Tree_comp_alloc@V?$_Tmap_traits@IPAU_MAKE_ITEM_GROUP@@U?$less@I@std@@V?$allocator@U?$pair@$$CBIPAU_MAKE_ITEM_GROUP@@@std@@@3@$0A@@std@@@std@@QBEABU?$less@I@2@XZ 005fef80 f i Npc.obj
 0002:0009efd0       ?_Getcomp@?$_Tree_comp_alloc@V?$_Tmap_traits@IPAU_MAKE_ITEM_LARE_CODE@@U?$less@I@std@@V?$allocator@U?$pair@$$CBIPAU_MAKE_ITEM_LARE_CODE@@@std@@@3@$0A@@std@@@std@@QAEAAU?$less@I@2@XZ 005fefd0 f i Npc.obj
 0002:0009f020       ?_Getcomp@?$_Tree_comp_alloc@V?$_Tmap_traits@IPAU_MAKE_ITEM_LARE_CODE@@U?$less@I@std@@V?$allocator@U?$pair@$$CBIPAU_MAKE_ITEM_LARE_CODE@@@std@@@3@$0A@@std@@@std@@QBEABU?$less@I@2@XZ 005ff020 f i Npc.obj
 0002:0009f070       ?_Getcomp@?$_Tree_comp_alloc@V?$_Tmap_traits@IPAU_MAKE_WEAPON@@U?$less@I@std@@V?$allocator@U?$pair@$$CBIPAU_MAKE_WEAPON@@@std@@@3@$0A@@std@@@std@@QAEAAU?$less@I@2@XZ 005ff070 f i Npc.obj
 0002:0009f0c0       ?_Getcomp@?$_Tree_comp_alloc@V?$_Tmap_traits@IPAU_MAKE_WEAPON@@U?$less@I@std@@V?$allocator@U?$pair@$$CBIPAU_MAKE_WEAPON@@@std@@@3@$0A@@std@@@std@@QBEABU?$less@I@2@XZ 005ff0c0 f i Npc.obj
 0002:0009f110       ?_Getcomp@?$_Tree_comp_alloc@V?$_Tmap_traits@PAVCUser@@HU?$less@PAVCUser@@@std@@V?$allocator@U?$pair@QAVCUser@@H@std@@@3@$0A@@std@@@std@@QAEAAU?$less@PAVCUser@@@2@XZ 005ff110 f i Npc.obj
 0002:0009f160       ?_Getcomp@?$_Tree_comp_alloc@V?$_Tmap_traits@PAVCUser@@HU?$less@PAVCUser@@@std@@V?$allocator@U?$pair@QAVCUser@@H@std@@@3@$0A@@std@@@std@@QBEABU?$less@PAVCUser@@@2@XZ 005ff160 f i Npc.obj
 0002:0009f1b0       ?_Getpfirst@?$_Tree_comp_alloc@V?$_Tmap_traits@GPAVCUser@@U?$less@G@std@@V?$allocator@U?$pair@$$CBGPAVCUser@@@std@@@3@$0A@@std@@@std@@QBEPAPAU_Iterator_base12@2@XZ 005ff1b0 f i Npc.obj
 0002:0009f210       ?_Getpfirst@?$_Tree_comp_alloc@V?$_Tmap_traits@PAVCUser@@HU?$less@PAVCUser@@@std@@V?$allocator@U?$pair@QAVCUser@@H@std@@@3@$0A@@std@@@std@@QBEPAPAU_Iterator_base12@2@XZ 005ff210 f i Npc.obj
 0002:0009f270       ?_Getpfirst@?$_Vector_alloc@U?$_Vec_base_types@IV?$allocator@I@std@@@std@@@std@@QBEPAPAU_Iterator_base12@2@XZ 005ff270 f i Npc.obj
 0002:0009f2d0       ?_Has_unused_capacity@?$vector@IV?$allocator@I@std@@@std@@ABE_NXZ 005ff2d0 f i Npc.obj
 0002:0009f360       ?_Key@?$_Tree@V?$_Tmap_traits@GPAVCUser@@U?$less@G@std@@V?$allocator@U?$pair@$$CBGPAVCUser@@@std@@@3@$0A@@std@@@std@@IBEABGPAU?$_Tree_node@U?$pair@$$CBGPAVCUser@@@std@@PAX@2@@Z 005ff360 f i Npc.obj
 0002:0009f3c0       ?_Key@?$_Tree@V?$_Tmap_traits@IPAU_K_MONSTER_ITEM@@U?$less@I@std@@V?$allocator@U?$pair@$$CBIPAU_K_MONSTER_ITEM@@@std@@@3@$0A@@std@@@std@@IBEABIPAU?$_Tree_node@U?$pair@$$CBIPAU_K_MONSTER_ITEM@@@std@@PAX@2@@Z 005ff3c0 f i Npc.obj
 0002:0009f420       ?_Key@?$_Tree@V?$_Tmap_traits@IPAU_MAKE_ITEM_GRADE_CODE@@U?$less@I@std@@V?$allocator@U?$pair@$$CBIPAU_MAKE_ITEM_GRADE_CODE@@@std@@@3@$0A@@std@@@std@@IBEABIPAU?$_Tree_node@U?$pair@$$CBIPAU_MAKE_ITEM_GRADE_CODE@@@std@@PAX@2@@Z 005ff420 f i Npc.obj
 0002:0009f480       ?_Key@?$_Tree@V?$_Tmap_traits@IPAU_MAKE_ITEM_GROUP@@U?$less@I@std@@V?$allocator@U?$pair@$$CBIPAU_MAKE_ITEM_GROUP@@@std@@@3@$0A@@std@@@std@@IBEABIPAU?$_Tree_node@U?$pair@$$CBIPAU_MAKE_ITEM_GROUP@@@std@@PAX@2@@Z 005ff480 f i Npc.obj
 0002:0009f4e0       ?_Key@?$_Tree@V?$_Tmap_traits@IPAU_MAKE_ITEM_LARE_CODE@@U?$less@I@std@@V?$allocator@U?$pair@$$CBIPAU_MAKE_ITEM_LARE_CODE@@@std@@@3@$0A@@std@@@std@@IBEABIPAU?$_Tree_node@U?$pair@$$CBIPAU_MAKE_ITEM_LARE_CODE@@@std@@PAX@2@@Z 005ff4e0 f i Npc.obj
 0002:0009f540       ?_Key@?$_Tree@V?$_Tmap_traits@IPAU_MAKE_WEAPON@@U?$less@I@std@@V?$allocator@U?$pair@$$CBIPAU_MAKE_WEAPON@@@std@@@3@$0A@@std@@@std@@IBEABIPAU?$_Tree_node@U?$pair@$$CBIPAU_MAKE_WEAPON@@@std@@PAX@2@@Z 005ff540 f i Npc.obj
 0002:0009f5a0       ?_Key@?$_Tree@V?$_Tmap_traits@PAVCUser@@HU?$less@PAVCUser@@@std@@V?$allocator@U?$pair@QAVCUser@@H@std@@@3@$0A@@std@@@std@@IBEABQAVCUser@@PAU?$_Tree_node@U?$pair@QAVCUser@@H@std@@PAX@2@@Z 005ff5a0 f i Npc.obj
 0002:0009f600       ?_Kfn@?$_Tree@V?$_Tmap_traits@GPAVCUser@@U?$less@G@std@@V?$allocator@U?$pair@$$CBGPAVCUser@@@std@@@3@$0A@@std@@@std@@IBEABGABU?$pair@$$CBGPAVCUser@@@2@@Z 005ff600 f i Npc.obj
 0002:0009f660       ?_Kfn@?$_Tree@V?$_Tmap_traits@IPAU_K_MONSTER_ITEM@@U?$less@I@std@@V?$allocator@U?$pair@$$CBIPAU_K_MONSTER_ITEM@@@std@@@3@$0A@@std@@@std@@IBEABIABU?$pair@$$CBIPAU_K_MONSTER_ITEM@@@2@@Z 005ff660 f i Npc.obj
 0002:0009f6c0       ?_Kfn@?$_Tree@V?$_Tmap_traits@IPAU_MAKE_ITEM_GRADE_CODE@@U?$less@I@std@@V?$allocator@U?$pair@$$CBIPAU_MAKE_ITEM_GRADE_CODE@@@std@@@3@$0A@@std@@@std@@IBEABIABU?$pair@$$CBIPAU_MAKE_ITEM_GRADE_CODE@@@2@@Z 005ff6c0 f i Npc.obj
 0002:0009f720       ?_Kfn@?$_Tree@V?$_Tmap_traits@IPAU_MAKE_ITEM_GROUP@@U?$less@I@std@@V?$allocator@U?$pair@$$CBIPAU_MAKE_ITEM_GROUP@@@std@@@3@$0A@@std@@@std@@IBEABIABU?$pair@$$CBIPAU_MAKE_ITEM_GROUP@@@2@@Z 005ff720 f i Npc.obj
 0002:0009f780       ?_Kfn@?$_Tree@V?$_Tmap_traits@IPAU_MAKE_ITEM_LARE_CODE@@U?$less@I@std@@V?$allocator@U?$pair@$$CBIPAU_MAKE_ITEM_LARE_CODE@@@std@@@3@$0A@@std@@@std@@IBEABIABU?$pair@$$CBIPAU_MAKE_ITEM_LARE_CODE@@@2@@Z 005ff780 f i Npc.obj
 0002:0009f7e0       ?_Kfn@?$_Tree@V?$_Tmap_traits@IPAU_MAKE_WEAPON@@U?$less@I@std@@V?$allocator@U?$pair@$$CBIPAU_MAKE_WEAPON@@@std@@@3@$0A@@std@@@std@@IBEABIABU?$pair@$$CBIPAU_MAKE_WEAPON@@@2@@Z 005ff7e0 f i Npc.obj
 0002:0009f840       ?_Kfn@?$_Tree@V?$_Tmap_traits@PAVCUser@@HU?$less@PAVCUser@@@std@@V?$allocator@U?$pair@QAVCUser@@H@std@@@3@$0A@@std@@@std@@IBEABQAVCUser@@ABU?$pair@QAVCUser@@H@2@@Z 005ff840 f i Npc.obj
 0002:0009f8a0       ?_Lmost@?$_Tree@V?$_Tmap_traits@GPAVCUser@@U?$less@G@std@@V?$allocator@U?$pair@$$CBGPAVCUser@@@std@@@3@$0A@@std@@@std@@IBEAAPAU?$_Tree_node@U?$pair@$$CBGPAVCUser@@@std@@PAX@2@XZ 005ff8a0 f i Npc.obj
 0002:0009f900       ?_Lmost@?$_Tree@V?$_Tmap_traits@PAVCUser@@HU?$less@PAVCUser@@@std@@V?$allocator@U?$pair@QAVCUser@@H@std@@@3@$0A@@std@@@std@@IBEAAPAU?$_Tree_node@U?$pair@QAVCUser@@H@std@@PAX@2@XZ 005ff900 f i Npc.obj
 0002:0009f960       ?_Load_acquire_2@std@@YAGPCG@Z 005ff960 f i Npc.obj
 0002:0009f9b0       ?_Load_relaxed_2@std@@YAGPCG@Z 005ff9b0 f i Npc.obj
 0002:0009f9f0       ?_Load_seq_cst_2@std@@YAGPCG@Z 005ff9f0 f i Npc.obj
 0002:0009fa30       ?_Lrotate@?$_Tree@V?$_Tmap_traits@GPAVCUser@@U?$less@G@std@@V?$allocator@U?$pair@$$CBGPAVCUser@@@std@@@3@$0A@@std@@@std@@IAEXPAU?$_Tree_node@U?$pair@$$CBGPAVCUser@@@std@@PAX@2@@Z 005ffa30 f i Npc.obj
 0002:0009fb30       ?_Lrotate@?$_Tree@V?$_Tmap_traits@PAVCUser@@HU?$less@PAVCUser@@@std@@V?$allocator@U?$pair@QAVCUser@@H@std@@@3@$0A@@std@@@std@@IAEXPAU?$_Tree_node@U?$pair@QAVCUser@@H@std@@PAX@2@@Z 005ffb30 f i Npc.obj
 0002:0009fc30       ?_Max@?$_Tree_comp_alloc@V?$_Tmap_traits@GPAVCUser@@U?$less@G@std@@V?$allocator@U?$pair@$$CBGPAVCUser@@@std@@@3@$0A@@std@@@std@@SAPAU?$_Tree_node@U?$pair@$$CBGPAVCUser@@@std@@PAX@2@PAU32@@Z 005ffc30 f i Npc.obj
 0002:0009fc80       ?_Max@?$_Tree_comp_alloc@V?$_Tmap_traits@PAVCUser@@HU?$less@PAVCUser@@@std@@V?$allocator@U?$pair@QAVCUser@@H@std@@@3@$0A@@std@@@std@@SAPAU?$_Tree_node@U?$pair@QAVCUser@@H@std@@PAX@2@PAU32@@Z 005ffc80 f i Npc.obj
 0002:0009fcd0       ?_Max@?$_Tree_val@U?$_Tree_simple_types@U?$pair@$$CBGPAVCUser@@@std@@@std@@@std@@SAPAU?$_Tree_node@U?$pair@$$CBGPAVCUser@@@std@@PAX@2@PAU32@@Z 005ffcd0 f i Npc.obj
 0002:0009fd30       ?_Max@?$_Tree_val@U?$_Tree_simple_types@U?$pair@QAVCUser@@H@std@@@std@@@std@@SAPAU?$_Tree_node@U?$pair@QAVCUser@@H@std@@PAX@2@PAU32@@Z 005ffd30 f i Npc.obj
 0002:0009fd90       ?_Min@?$_Tree_comp_alloc@V?$_Tmap_traits@GPAVCUser@@U?$less@G@std@@V?$allocator@U?$pair@$$CBGPAVCUser@@@std@@@3@$0A@@std@@@std@@SAPAU?$_Tree_node@U?$pair@$$CBGPAVCUser@@@std@@PAX@2@PAU32@@Z 005ffd90 f i Npc.obj
 0002:0009fde0       ?_Min@?$_Tree_comp_alloc@V?$_Tmap_traits@PAVCUser@@HU?$less@PAVCUser@@@std@@V?$allocator@U?$pair@QAVCUser@@H@std@@@3@$0A@@std@@@std@@SAPAU?$_Tree_node@U?$pair@QAVCUser@@H@std@@PAX@2@PAU32@@Z 005ffde0 f i Npc.obj
 0002:0009fe30       ?_Min@?$_Tree_val@U?$_Tree_simple_types@U?$pair@$$CBGPAVCUser@@@std@@@std@@@std@@SAPAU?$_Tree_node@U?$pair@$$CBGPAVCUser@@@std@@PAX@2@PAU32@@Z 005ffe30 f i Npc.obj
 0002:0009fe80       ?_Min@?$_Tree_val@U?$_Tree_simple_types@U?$pair@QAVCUser@@H@std@@@std@@@std@@SAPAU?$_Tree_node@U?$pair@QAVCUser@@H@std@@PAX@2@PAU32@@Z 005ffe80 f i Npc.obj
 0002:0009fed0       ?_Myend@?$_Vector_alloc@U?$_Vec_base_types@IV?$allocator@I@std@@@std@@@std@@QAEAAPAIXZ 005ffed0 f i Npc.obj
 0002:0009ff30       ?_Myend@?$_Vector_alloc@U?$_Vec_base_types@IV?$allocator@I@std@@@std@@@std@@QBEABQAIXZ 005fff30 f i Npc.obj
 0002:0009ff90       ?_Myfirst@?$_Vector_alloc@U?$_Vec_base_types@IV?$allocator@I@std@@@std@@@std@@QAEAAPAIXZ 005fff90 f i Npc.obj
 0002:0009fff0       ?_Myfirst@?$_Vector_alloc@U?$_Vec_base_types@IV?$allocator@I@std@@@std@@@std@@QBEABQAIXZ 005ffff0 f i Npc.obj
 0002:000a0050       ?_Myhead@?$_Tree_comp_alloc@V?$_Tmap_traits@GPAVCUser@@U?$less@G@std@@V?$allocator@U?$pair@$$CBGPAVCUser@@@std@@@3@$0A@@std@@@std@@QAEAAPAU?$_Tree_node@U?$pair@$$CBGPAVCUser@@@std@@PAX@2@XZ 00600050 f i Npc.obj
 0002:000a00b0       ?_Myhead@?$_Tree_comp_alloc@V?$_Tmap_traits@GPAVCUser@@U?$less@G@std@@V?$allocator@U?$pair@$$CBGPAVCUser@@@std@@@3@$0A@@std@@@std@@QBEABQAU?$_Tree_node@U?$pair@$$CBGPAVCUser@@@std@@PAX@2@XZ 006000b0 f i Npc.obj
 0002:000a0110       ?_Myhead@?$_Tree_comp_alloc@V?$_Tmap_traits@IPAU_K_MONSTER_ITEM@@U?$less@I@std@@V?$allocator@U?$pair@$$CBIPAU_K_MONSTER_ITEM@@@std@@@3@$0A@@std@@@std@@QAEAAPAU?$_Tree_node@U?$pair@$$CBIPAU_K_MONSTER_ITEM@@@std@@PAX@2@XZ 00600110 f i Npc.obj
 0002:000a0170       ?_Myhead@?$_Tree_comp_alloc@V?$_Tmap_traits@IPAU_K_MONSTER_ITEM@@U?$less@I@std@@V?$allocator@U?$pair@$$CBIPAU_K_MONSTER_ITEM@@@std@@@3@$0A@@std@@@std@@QBEABQAU?$_Tree_node@U?$pair@$$CBIPAU_K_MONSTER_ITEM@@@std@@PAX@2@XZ 00600170 f i Npc.obj
 0002:000a01d0       ?_Myhead@?$_Tree_comp_alloc@V?$_Tmap_traits@IPAU_MAKE_ITEM_GRADE_CODE@@U?$less@I@std@@V?$allocator@U?$pair@$$CBIPAU_MAKE_ITEM_GRADE_CODE@@@std@@@3@$0A@@std@@@std@@QAEAAPAU?$_Tree_node@U?$pair@$$CBIPAU_MAKE_ITEM_GRADE_CODE@@@std@@PAX@2@XZ 006001d0 f i Npc.obj
 0002:000a0230       ?_Myhead@?$_Tree_comp_alloc@V?$_Tmap_traits@IPAU_MAKE_ITEM_GRADE_CODE@@U?$less@I@std@@V?$allocator@U?$pair@$$CBIPAU_MAKE_ITEM_GRADE_CODE@@@std@@@3@$0A@@std@@@std@@QBEABQAU?$_Tree_node@U?$pair@$$CBIPAU_MAKE_ITEM_GRADE_CODE@@@std@@PAX@2@XZ 00600230 f i Npc.obj
 0002:000a0290       ?_Myhead@?$_Tree_comp_alloc@V?$_Tmap_traits@IPAU_MAKE_ITEM_GROUP@@U?$less@I@std@@V?$allocator@U?$pair@$$CBIPAU_MAKE_ITEM_GROUP@@@std@@@3@$0A@@std@@@std@@QAEAAPAU?$_Tree_node@U?$pair@$$CBIPAU_MAKE_ITEM_GROUP@@@std@@PAX@2@XZ 00600290 f i Npc.obj
 0002:000a02f0       ?_Myhead@?$_Tree_comp_alloc@V?$_Tmap_traits@IPAU_MAKE_ITEM_GROUP@@U?$less@I@std@@V?$allocator@U?$pair@$$CBIPAU_MAKE_ITEM_GROUP@@@std@@@3@$0A@@std@@@std@@QBEABQAU?$_Tree_node@U?$pair@$$CBIPAU_MAKE_ITEM_GROUP@@@std@@PAX@2@XZ 006002f0 f i Npc.obj
 0002:000a0350       ?_Myhead@?$_Tree_comp_alloc@V?$_Tmap_traits@IPAU_MAKE_ITEM_LARE_CODE@@U?$less@I@std@@V?$allocator@U?$pair@$$CBIPAU_MAKE_ITEM_LARE_CODE@@@std@@@3@$0A@@std@@@std@@QAEAAPAU?$_Tree_node@U?$pair@$$CBIPAU_MAKE_ITEM_LARE_CODE@@@std@@PAX@2@XZ 00600350 f i Npc.obj
 0002:000a03b0       ?_Myhead@?$_Tree_comp_alloc@V?$_Tmap_traits@IPAU_MAKE_ITEM_LARE_CODE@@U?$less@I@std@@V?$allocator@U?$pair@$$CBIPAU_MAKE_ITEM_LARE_CODE@@@std@@@3@$0A@@std@@@std@@QBEABQAU?$_Tree_node@U?$pair@$$CBIPAU_MAKE_ITEM_LARE_CODE@@@std@@PAX@2@XZ 006003b0 f i Npc.obj
 0002:000a0410       ?_Myhead@?$_Tree_comp_alloc@V?$_Tmap_traits@IPAU_MAKE_WEAPON@@U?$less@I@std@@V?$allocator@U?$pair@$$CBIPAU_MAKE_WEAPON@@@std@@@3@$0A@@std@@@std@@QAEAAPAU?$_Tree_node@U?$pair@$$CBIPAU_MAKE_WEAPON@@@std@@PAX@2@XZ 00600410 f i Npc.obj
 0002:000a0470       ?_Myhead@?$_Tree_comp_alloc@V?$_Tmap_traits@IPAU_MAKE_WEAPON@@U?$less@I@std@@V?$allocator@U?$pair@$$CBIPAU_MAKE_WEAPON@@@std@@@3@$0A@@std@@@std@@QBEABQAU?$_Tree_node@U?$pair@$$CBIPAU_MAKE_WEAPON@@@std@@PAX@2@XZ 00600470 f i Npc.obj
 0002:000a04d0       ?_Myhead@?$_Tree_comp_alloc@V?$_Tmap_traits@PAVCUser@@HU?$less@PAVCUser@@@std@@V?$allocator@U?$pair@QAVCUser@@H@std@@@3@$0A@@std@@@std@@QAEAAPAU?$_Tree_node@U?$pair@QAVCUser@@H@std@@PAX@2@XZ 006004d0 f i Npc.obj
 0002:000a0530       ?_Myhead@?$_Tree_comp_alloc@V?$_Tmap_traits@PAVCUser@@HU?$less@PAVCUser@@@std@@V?$allocator@U?$pair@QAVCUser@@H@std@@@3@$0A@@std@@@std@@QBEABQAU?$_Tree_node@U?$pair@QAVCUser@@H@std@@PAX@2@XZ 00600530 f i Npc.obj
 0002:000a0590       ?_Mylast@?$_Vector_alloc@U?$_Vec_base_types@IV?$allocator@I@std@@@std@@@std@@QAEAAPAIXZ 00600590 f i Npc.obj
 0002:000a05f0       ?_Mylast@?$_Vector_alloc@U?$_Vec_base_types@IV?$allocator@I@std@@@std@@@std@@QBEABQAIXZ 006005f0 f i Npc.obj
 0002:000a0650       ?_Mynode@?$_Tree_unchecked_const_iterator@V?$_Tree_val@U?$_Tree_simple_types@U?$pair@$$CBGPAVCUser@@@std@@@std@@@std@@U_Iterator_base12@2@@std@@QBEPAU?$_Tree_node@U?$pair@$$CBGPAVCUser@@@std@@PAX@2@XZ 00600650 f i Npc.obj
 0002:000a0690       ?_Mynode@?$_Tree_unchecked_const_iterator@V?$_Tree_val@U?$_Tree_simple_types@U?$pair@$$CBIPAU_K_MONSTER_ITEM@@@std@@@std@@@std@@U_Iterator_base12@2@@std@@QBEPAU?$_Tree_node@U?$pair@$$CBIPAU_K_MONSTER_ITEM@@@std@@PAX@2@XZ 00600690 f i Npc.obj
 0002:000a06d0       ?_Mynode@?$_Tree_unchecked_const_iterator@V?$_Tree_val@U?$_Tree_simple_types@U?$pair@$$CBIPAU_MAKE_ITEM_GRADE_CODE@@@std@@@std@@@std@@U_Iterator_base12@2@@std@@QBEPAU?$_Tree_node@U?$pair@$$CBIPAU_MAKE_ITEM_GRADE_CODE@@@std@@PAX@2@XZ 006006d0 f i Npc.obj
 0002:000a0710       ?_Mynode@?$_Tree_unchecked_const_iterator@V?$_Tree_val@U?$_Tree_simple_types@U?$pair@$$CBIPAU_MAKE_ITEM_GROUP@@@std@@@std@@@std@@U_Iterator_base12@2@@std@@QBEPAU?$_Tree_node@U?$pair@$$CBIPAU_MAKE_ITEM_GROUP@@@std@@PAX@2@XZ 00600710 f i Npc.obj
 0002:000a0750       ?_Mynode@?$_Tree_unchecked_const_iterator@V?$_Tree_val@U?$_Tree_simple_types@U?$pair@$$CBIPAU_MAKE_ITEM_LARE_CODE@@@std@@@std@@@std@@U_Iterator_base12@2@@std@@QBEPAU?$_Tree_node@U?$pair@$$CBIPAU_MAKE_ITEM_LARE_CODE@@@std@@PAX@2@XZ 00600750 f i Npc.obj
 0002:000a0790       ?_Mynode@?$_Tree_unchecked_const_iterator@V?$_Tree_val@U?$_Tree_simple_types@U?$pair@$$CBIPAU_MAKE_WEAPON@@@std@@@std@@@std@@U_Iterator_base12@2@@std@@QBEPAU?$_Tree_node@U?$pair@$$CBIPAU_MAKE_WEAPON@@@std@@PAX@2@XZ 00600790 f i Npc.obj
 0002:000a07d0       ?_Mynode@?$_Tree_unchecked_const_iterator@V?$_Tree_val@U?$_Tree_simple_types@U?$pair@QAVCUser@@H@std@@@std@@@std@@U_Iterator_base12@2@@std@@QBEPAU?$_Tree_node@U?$pair@QAVCUser@@H@std@@PAX@2@XZ 006007d0 f i Npc.obj
 0002:000a0810       ?_Myproxy@?$_Tree_comp_alloc@V?$_Tmap_traits@GPAVCUser@@U?$less@G@std@@V?$allocator@U?$pair@$$CBGPAVCUser@@@std@@@3@$0A@@std@@@std@@QAEAAPAU_Container_proxy@2@XZ 00600810 f i Npc.obj
 0002:000a0860       ?_Myproxy@?$_Tree_comp_alloc@V?$_Tmap_traits@PAVCUser@@HU?$less@PAVCUser@@@std@@V?$allocator@U?$pair@QAVCUser@@H@std@@@3@$0A@@std@@@std@@QAEAAPAU_Container_proxy@2@XZ 00600860 f i Npc.obj
 0002:000a08b0       ?_Myproxy@?$_Vector_alloc@U?$_Vec_base_types@IV?$allocator@I@std@@@std@@@std@@QAEAAPAU_Container_proxy@2@XZ 006008b0 f i Npc.obj
 0002:000a0900       ?_Mysize@?$_Tree_comp_alloc@V?$_Tmap_traits@GPAVCUser@@U?$less@G@std@@V?$allocator@U?$pair@$$CBGPAVCUser@@@std@@@3@$0A@@std@@@std@@QAEAAIXZ 00600900 f i Npc.obj
 0002:000a0960       ?_Mysize@?$_Tree_comp_alloc@V?$_Tmap_traits@PAVCUser@@HU?$less@PAVCUser@@@std@@V?$allocator@U?$pair@QAVCUser@@H@std@@@3@$0A@@std@@@std@@QAEAAIXZ 00600960 f i Npc.obj
 0002:000a09c0       ?_Mysize@?$_Tree_comp_alloc@V?$_Tmap_traits@PAVCUser@@HU?$less@PAVCUser@@@std@@V?$allocator@U?$pair@QAVCUser@@H@std@@@3@$0A@@std@@@std@@QBEABIXZ 006009c0 f i Npc.obj
 0002:000a0a20       ?_Orphan_all@?$_Tree_comp_alloc@V?$_Tmap_traits@GPAVCUser@@U?$less@G@std@@V?$allocator@U?$pair@$$CBGPAVCUser@@@std@@@3@$0A@@std@@@std@@QAEXXZ 00600a20 f i Npc.obj
 0002:000a0a80       ?_Orphan_all@?$_Tree_comp_alloc@V?$_Tmap_traits@PAVCUser@@HU?$less@PAVCUser@@@std@@V?$allocator@U?$pair@QAVCUser@@H@std@@@3@$0A@@std@@@std@@QAEXXZ 00600a80 f i Npc.obj
 0002:000a0ae0       ?_Orphan_all@?$_Vector_alloc@U?$_Vec_base_types@IV?$allocator@I@std@@@std@@@std@@QAEXXZ 00600ae0 f i Npc.obj
 0002:000a0b40       ?_Orphan_ptr@?$_Tree@V?$_Tmap_traits@GPAVCUser@@U?$less@G@std@@V?$allocator@U?$pair@$$CBGPAVCUser@@@std@@@3@$0A@@std@@@std@@IAEXPAU?$_Tree_node@U?$pair@$$CBGPAVCUser@@@std@@PAX@2@@Z 00600b40 f i Npc.obj
 0002:000a0ca0       ?_Orphan_ptr@?$_Tree@V?$_Tmap_traits@PAVCUser@@HU?$less@PAVCUser@@@std@@V?$allocator@U?$pair@QAVCUser@@H@std@@@3@$0A@@std@@@std@@IAEXPAU?$_Tree_node@U?$pair@QAVCUser@@H@std@@PAX@2@@Z 00600ca0 f i Npc.obj
 0002:000a0e00       ?_Orphan_range@?$vector@IV?$allocator@I@std@@@std@@ABEXPAI0@Z 00600e00 f i Npc.obj
 0002:000a0f60       ?_Rmost@?$_Tree@V?$_Tmap_traits@GPAVCUser@@U?$less@G@std@@V?$allocator@U?$pair@$$CBGPAVCUser@@@std@@@3@$0A@@std@@@std@@IBEAAPAU?$_Tree_node@U?$pair@$$CBGPAVCUser@@@std@@PAX@2@XZ 00600f60 f i Npc.obj
 0002:000a0fc0       ?_Rmost@?$_Tree@V?$_Tmap_traits@PAVCUser@@HU?$less@PAVCUser@@@std@@V?$allocator@U?$pair@QAVCUser@@H@std@@@3@$0A@@std@@@std@@IBEAAPAU?$_Tree_node@U?$pair@QAVCUser@@H@std@@PAX@2@XZ 00600fc0 f i Npc.obj
 0002:000a1020       ?_Root@?$_Tree@V?$_Tmap_traits@GPAVCUser@@U?$less@G@std@@V?$allocator@U?$pair@$$CBGPAVCUser@@@std@@@3@$0A@@std@@@std@@IBEAAPAU?$_Tree_node@U?$pair@$$CBGPAVCUser@@@std@@PAX@2@XZ 00601020 f i Npc.obj
 0002:000a1080       ?_Root@?$_Tree@V?$_Tmap_traits@IPAU_K_MONSTER_ITEM@@U?$less@I@std@@V?$allocator@U?$pair@$$CBIPAU_K_MONSTER_ITEM@@@std@@@3@$0A@@std@@@std@@IBEAAPAU?$_Tree_node@U?$pair@$$CBIPAU_K_MONSTER_ITEM@@@std@@PAX@2@XZ 00601080 f i Npc.obj
 0002:000a10e0       ?_Root@?$_Tree@V?$_Tmap_traits@IPAU_MAKE_ITEM_GRADE_CODE@@U?$less@I@std@@V?$allocator@U?$pair@$$CBIPAU_MAKE_ITEM_GRADE_CODE@@@std@@@3@$0A@@std@@@std@@IBEAAPAU?$_Tree_node@U?$pair@$$CBIPAU_MAKE_ITEM_GRADE_CODE@@@std@@PAX@2@XZ 006010e0 f i Npc.obj
 0002:000a1140       ?_Root@?$_Tree@V?$_Tmap_traits@IPAU_MAKE_ITEM_GROUP@@U?$less@I@std@@V?$allocator@U?$pair@$$CBIPAU_MAKE_ITEM_GROUP@@@std@@@3@$0A@@std@@@std@@IBEAAPAU?$_Tree_node@U?$pair@$$CBIPAU_MAKE_ITEM_GROUP@@@std@@PAX@2@XZ 00601140 f i Npc.obj
 0002:000a11a0       ?_Root@?$_Tree@V?$_Tmap_traits@IPAU_MAKE_ITEM_LARE_CODE@@U?$less@I@std@@V?$allocator@U?$pair@$$CBIPAU_MAKE_ITEM_LARE_CODE@@@std@@@3@$0A@@std@@@std@@IBEAAPAU?$_Tree_node@U?$pair@$$CBIPAU_MAKE_ITEM_LARE_CODE@@@std@@PAX@2@XZ 006011a0 f i Npc.obj
 0002:000a1200       ?_Root@?$_Tree@V?$_Tmap_traits@IPAU_MAKE_WEAPON@@U?$less@I@std@@V?$allocator@U?$pair@$$CBIPAU_MAKE_WEAPON@@@std@@@3@$0A@@std@@@std@@IBEAAPAU?$_Tree_node@U?$pair@$$CBIPAU_MAKE_WEAPON@@@std@@PAX@2@XZ 00601200 f i Npc.obj
 0002:000a1260       ?_Root@?$_Tree@V?$_Tmap_traits@PAVCUser@@HU?$less@PAVCUser@@@std@@V?$allocator@U?$pair@QAVCUser@@H@std@@@3@$0A@@std@@@std@@IBEAAPAU?$_Tree_node@U?$pair@QAVCUser@@H@std@@PAX@2@XZ 00601260 f i Npc.obj
 0002:000a12c0       ?_Rrotate@?$_Tree@V?$_Tmap_traits@GPAVCUser@@U?$less@G@std@@V?$allocator@U?$pair@$$CBGPAVCUser@@@std@@@3@$0A@@std@@@std@@IAEXPAU?$_Tree_node@U?$pair@$$CBGPAVCUser@@@std@@PAX@2@@Z 006012c0 f i Npc.obj
 0002:000a13c0       ?_Rrotate@?$_Tree@V?$_Tmap_traits@PAVCUser@@HU?$less@PAVCUser@@@std@@V?$allocator@U?$pair@QAVCUser@@H@std@@@3@$0A@@std@@@std@@IAEXPAU?$_Tree_node@U?$pair@QAVCUser@@H@std@@PAX@2@@Z 006013c0 f i Npc.obj
 0002:000a14c0       ?_Tidy@?$_Tree@V?$_Tmap_traits@GPAVCUser@@U?$less@G@std@@V?$allocator@U?$pair@$$CBGPAVCUser@@@std@@@3@$0A@@std@@@std@@IAEXXZ 006014c0 f i Npc.obj
 0002:000a1630       ?_Tidy@?$_Tree@V?$_Tmap_traits@PAVCUser@@HU?$less@PAVCUser@@@std@@V?$allocator@U?$pair@QAVCUser@@H@std@@@3@$0A@@std@@@std@@IAEXXZ 00601630 f i Npc.obj
 0002:000a17a0       ?_Tidy@?$vector@IV?$allocator@I@std@@@std@@AAEXXZ 006017a0 f i Npc.obj
 0002:000a1890       ?_Umove_if_noexcept1@?$vector@IV?$allocator@I@std@@@std@@AAEXPAI00U?$integral_constant@_N$00@2@@Z 00601890 f i Npc.obj
 0002:000a1900       ?_Umove_if_noexcept@?$vector@IV?$allocator@I@std@@@std@@AAEXPAI00@Z 00601900 f i Npc.obj
 0002:000a1980       ?_Xlength@?$vector@IV?$allocator@I@std@@@std@@CAXXZ 00601980 f i Npc.obj
 0002:000a19d0       ?acos@@YAMM@Z              006019d0 f i Npc.obj
 0002:000a1a30       ?allocate@?$allocator@I@std@@QAEPAII@Z 00601a30 f i Npc.obj
 0002:000a1a90       ?allocate@?$allocator@U?$_Tree_node@U?$pair@$$CBGPAVCUser@@@std@@PAX@std@@@std@@QAEPAU?$_Tree_node@U?$pair@$$CBGPAVCUser@@@std@@PAX@2@I@Z 00601a90 f i Npc.obj
 0002:000a1af0       ?allocate@?$allocator@U?$_Tree_node@U?$pair@QAVCUser@@H@std@@PAX@std@@@std@@QAEPAU?$_Tree_node@U?$pair@QAVCUser@@H@std@@PAX@2@I@Z 00601af0 f i Npc.obj
 0002:000a1b50       ?asin@@YAMM@Z              00601b50 f i Npc.obj
 0002:000a1bb0       ?atomic_fetch_add@std@@YAGPAU_Atomic_ushort@1@G@Z 00601bb0 f i Npc.obj
 0002:000a1c10       ?atomic_fetch_add_explicit@std@@YAGPAU_Atomic_ushort@1@GW4memory_order@1@@Z 00601c10 f i Npc.obj
 0002:000a1c70       ?atomic_load@std@@YAGPBU_Atomic_ushort@1@@Z 00601c70 f i Npc.obj
 0002:000a1cc0       ?atomic_load_explicit@std@@YAGPBU_Atomic_ushort@1@W4memory_order@1@@Z 00601cc0 f i Npc.obj
 0002:000a1d20       ?begin@?$_Tree@V?$_Tmap_traits@GPAVCUser@@U?$less@G@std@@V?$allocator@U?$pair@$$CBGPAVCUser@@@std@@@3@$0A@@std@@@std@@QAE?AV?$_Tree_iterator@V?$_Tree_val@U?$_Tree_simple_types@U?$pair@$$CBGPAVCUser@@@std@@@std@@@std@@@2@XZ 00601d20 f i Npc.obj
 0002:000a1dd0       ?begin@?$_Tree@V?$_Tmap_traits@PAVCUser@@HU?$less@PAVCUser@@@std@@V?$allocator@U?$pair@QAVCUser@@H@std@@@3@$0A@@std@@@std@@QAE?AV?$_Tree_iterator@V?$_Tree_val@U?$_Tree_simple_types@U?$pair@QAVCUser@@H@std@@@std@@@std@@@2@XZ 00601dd0 f i Npc.obj
 0002:000a1e80       ?capacity@?$vector@IV?$allocator@I@std@@@std@@QBEIXZ 00601e80 f i Npc.obj
 0002:000a1ef0       ?clear@?$_Tree@V?$_Tmap_traits@GPAVCUser@@U?$less@G@std@@V?$allocator@U?$pair@$$CBGPAVCUser@@@std@@@3@$0A@@std@@@std@@QAEXXZ 00601ef0 f i Npc.obj
 0002:000a2000       ?clear@?$_Tree@V?$_Tmap_traits@PAVCUser@@HU?$less@PAVCUser@@@std@@V?$allocator@U?$pair@QAVCUser@@H@std@@@3@$0A@@std@@@std@@QAEXXZ 00602000 f i Npc.obj
 0002:000a2110       ?clear@?$vector@EV?$allocator@E@std@@@std@@QAEXXZ 00602110 f i Npc.obj
 0002:000a21e0       ?clear@ByteBuffer@@QAEXXZ  006021e0 f i Npc.obj
 0002:000a2250       ?deallocate@?$allocator@I@std@@QAEXQAII@Z 00602250 f i Npc.obj
 0002:000a22b0       ?deallocate@?$allocator@U?$_Tree_node@U?$pair@$$CBGPAVCUser@@@std@@PAX@std@@@std@@QAEXQAU?$_Tree_node@U?$pair@$$CBGPAVCUser@@@std@@PAX@2@I@Z 006022b0 f i Npc.obj
 0002:000a2310       ?deallocate@?$allocator@U?$_Tree_node@U?$pair@QAVCUser@@H@std@@PAX@std@@@std@@QAEXQAU?$_Tree_node@U?$pair@QAVCUser@@H@std@@PAX@2@I@Z 00602310 f i Npc.obj
 0002:000a2370       ?end@?$_Tree@V?$_Tmap_traits@GPAVCUser@@U?$less@G@std@@V?$allocator@U?$pair@$$CBGPAVCUser@@@std@@@3@$0A@@std@@@std@@QAE?AV?$_Tree_iterator@V?$_Tree_val@U?$_Tree_simple_types@U?$pair@$$CBGPAVCUser@@@std@@@std@@@std@@@2@XZ 00602370 f i Npc.obj
 0002:000a2420       ?end@?$_Tree@V?$_Tmap_traits@IPAU_K_MONSTER_ITEM@@U?$less@I@std@@V?$allocator@U?$pair@$$CBIPAU_K_MONSTER_ITEM@@@std@@@3@$0A@@std@@@std@@QAE?AV?$_Tree_iterator@V?$_Tree_val@U?$_Tree_simple_types@U?$pair@$$CBIPAU_K_MONSTER_ITEM@@@std@@@std@@@std@@@2@XZ 00602420 f i Npc.obj
 0002:000a24d0       ?end@?$_Tree@V?$_Tmap_traits@IPAU_MAKE_ITEM_GRADE_CODE@@U?$less@I@std@@V?$allocator@U?$pair@$$CBIPAU_MAKE_ITEM_GRADE_CODE@@@std@@@3@$0A@@std@@@std@@QAE?AV?$_Tree_iterator@V?$_Tree_val@U?$_Tree_simple_types@U?$pair@$$CBIPAU_MAKE_ITEM_GRADE_CODE@@@std@@@std@@@std@@@2@XZ 006024d0 f i Npc.obj
 0002:000a2580       ?end@?$_Tree@V?$_Tmap_traits@IPAU_MAKE_ITEM_GROUP@@U?$less@I@std@@V?$allocator@U?$pair@$$CBIPAU_MAKE_ITEM_GROUP@@@std@@@3@$0A@@std@@@std@@QAE?AV?$_Tree_iterator@V?$_Tree_val@U?$_Tree_simple_types@U?$pair@$$CBIPAU_MAKE_ITEM_GROUP@@@std@@@std@@@std@@@2@XZ 00602580 f i Npc.obj
 0002:000a2630       ?end@?$_Tree@V?$_Tmap_traits@IPAU_MAKE_ITEM_LARE_CODE@@U?$less@I@std@@V?$allocator@U?$pair@$$CBIPAU_MAKE_ITEM_LARE_CODE@@@std@@@3@$0A@@std@@@std@@QAE?AV?$_Tree_iterator@V?$_Tree_val@U?$_Tree_simple_types@U?$pair@$$CBIPAU_MAKE_ITEM_LARE_CODE@@@std@@@std@@@std@@@2@XZ 00602630 f i Npc.obj
 0002:000a26e0       ?end@?$_Tree@V?$_Tmap_traits@IPAU_MAKE_WEAPON@@U?$less@I@std@@V?$allocator@U?$pair@$$CBIPAU_MAKE_WEAPON@@@std@@@3@$0A@@std@@@std@@QAE?AV?$_Tree_iterator@V?$_Tree_val@U?$_Tree_simple_types@U?$pair@$$CBIPAU_MAKE_WEAPON@@@std@@@std@@@std@@@2@XZ 006026e0 f i Npc.obj
 0002:000a2790       ?end@?$_Tree@V?$_Tmap_traits@PAVCUser@@HU?$less@PAVCUser@@@std@@V?$allocator@U?$pair@QAVCUser@@H@std@@@3@$0A@@std@@@std@@QAE?AV?$_Tree_iterator@V?$_Tree_val@U?$_Tree_simple_types@U?$pair@QAVCUser@@H@std@@@std@@@std@@@2@XZ 00602790 f i Npc.obj
 0002:000a2840       ?erase@?$_Tree@V?$_Tmap_traits@GPAVCUser@@U?$less@G@std@@V?$allocator@U?$pair@$$CBGPAVCUser@@@std@@@3@$0A@@std@@@std@@QAE?AV?$_Tree_iterator@V?$_Tree_val@U?$_Tree_simple_types@U?$pair@$$CBGPAVCUser@@@std@@@std@@@std@@@2@V?$_Tree_const_iterator@V?$_Tree_val@U?$_Tree_simple_types@U?$pair@$$CBGPAVCUser@@@std@@@std@@@std@@@2@0@Z 00602840 f i Npc.obj
 0002:000a2b60       ?erase@?$_Tree@V?$_Tmap_traits@GPAVCUser@@U?$less@G@std@@V?$allocator@U?$pair@$$CBGPAVCUser@@@std@@@3@$0A@@std@@@std@@QAE?AV?$_Tree_iterator@V?$_Tree_val@U?$_Tree_simple_types@U?$pair@$$CBGPAVCUser@@@std@@@std@@@std@@@2@V?$_Tree_const_iterator@V?$_Tree_val@U?$_Tree_simple_types@U?$pair@$$CBGPAVCUser@@@std@@@std@@@std@@@2@@Z 00602b60 f i Npc.obj
 0002:000a3280       ?erase@?$_Tree@V?$_Tmap_traits@PAVCUser@@HU?$less@PAVCUser@@@std@@V?$allocator@U?$pair@QAVCUser@@H@std@@@3@$0A@@std@@@std@@QAE?AV?$_Tree_iterator@V?$_Tree_val@U?$_Tree_simple_types@U?$pair@QAVCUser@@H@std@@@std@@@std@@@2@V?$_Tree_const_iterator@V?$_Tree_val@U?$_Tree_simple_types@U?$pair@QAVCUser@@H@std@@@std@@@std@@@2@0@Z 00603280 f i Npc.obj
 0002:000a35a0       ?erase@?$_Tree@V?$_Tmap_traits@PAVCUser@@HU?$less@PAVCUser@@@std@@V?$allocator@U?$pair@QAVCUser@@H@std@@@3@$0A@@std@@@std@@QAE?AV?$_Tree_iterator@V?$_Tree_val@U?$_Tree_simple_types@U?$pair@QAVCUser@@H@std@@@std@@@std@@@2@V?$_Tree_const_iterator@V?$_Tree_val@U?$_Tree_simple_types@U?$pair@QAVCUser@@H@std@@@std@@@std@@@2@@Z 006035a0 f i Npc.obj
 0002:000a3cc0       ?find@?$_Tree@V?$_Tmap_traits@GPAVCUser@@U?$less@G@std@@V?$allocator@U?$pair@$$CBGPAVCUser@@@std@@@3@$0A@@std@@@std@@QAE?AV?$_Tree_iterator@V?$_Tree_val@U?$_Tree_simple_types@U?$pair@$$CBGPAVCUser@@@std@@@std@@@std@@@2@ABG@Z 00603cc0 f i Npc.obj
 0002:000a3f80       ?find@?$_Tree@V?$_Tmap_traits@IPAU_K_MONSTER_ITEM@@U?$less@I@std@@V?$allocator@U?$pair@$$CBIPAU_K_MONSTER_ITEM@@@std@@@3@$0A@@std@@@std@@QAE?AV?$_Tree_iterator@V?$_Tree_val@U?$_Tree_simple_types@U?$pair@$$CBIPAU_K_MONSTER_ITEM@@@std@@@std@@@std@@@2@ABI@Z 00603f80 f i Npc.obj
 0002:000a4240       ?find@?$_Tree@V?$_Tmap_traits@IPAU_MAKE_ITEM_GRADE_CODE@@U?$less@I@std@@V?$allocator@U?$pair@$$CBIPAU_MAKE_ITEM_GRADE_CODE@@@std@@@3@$0A@@std@@@std@@QAE?AV?$_Tree_iterator@V?$_Tree_val@U?$_Tree_simple_types@U?$pair@$$CBIPAU_MAKE_ITEM_GRADE_CODE@@@std@@@std@@@std@@@2@ABI@Z 00604240 f i Npc.obj
 0002:000a4500       ?find@?$_Tree@V?$_Tmap_traits@IPAU_MAKE_ITEM_GROUP@@U?$less@I@std@@V?$allocator@U?$pair@$$CBIPAU_MAKE_ITEM_GROUP@@@std@@@3@$0A@@std@@@std@@QAE?AV?$_Tree_iterator@V?$_Tree_val@U?$_Tree_simple_types@U?$pair@$$CBIPAU_MAKE_ITEM_GROUP@@@std@@@std@@@std@@@2@ABI@Z 00604500 f i Npc.obj
 0002:000a47c0       ?find@?$_Tree@V?$_Tmap_traits@IPAU_MAKE_ITEM_LARE_CODE@@U?$less@I@std@@V?$allocator@U?$pair@$$CBIPAU_MAKE_ITEM_LARE_CODE@@@std@@@3@$0A@@std@@@std@@QAE?AV?$_Tree_iterator@V?$_Tree_val@U?$_Tree_simple_types@U?$pair@$$CBIPAU_MAKE_ITEM_LARE_CODE@@@std@@@std@@@std@@@2@ABI@Z 006047c0 f i Npc.obj
 0002:000a4a80       ?find@?$_Tree@V?$_Tmap_traits@IPAU_MAKE_WEAPON@@U?$less@I@std@@V?$allocator@U?$pair@$$CBIPAU_MAKE_WEAPON@@@std@@@3@$0A@@std@@@std@@QAE?AV?$_Tree_iterator@V?$_Tree_val@U?$_Tree_simple_types@U?$pair@$$CBIPAU_MAKE_WEAPON@@@std@@@std@@@std@@@2@ABI@Z 00604a80 f i Npc.obj
 0002:000a4d40       ?find@?$_Tree@V?$_Tmap_traits@PAVCUser@@HU?$less@PAVCUser@@@std@@V?$allocator@U?$pair@QAVCUser@@H@std@@@3@$0A@@std@@@std@@QAE?AV?$_Tree_iterator@V?$_Tree_val@U?$_Tree_simple_types@U?$pair@QAVCUser@@H@std@@@std@@@std@@@2@ABQAVCUser@@@Z 00604d40 f i Npc.obj
 0002:000a5000       ?getMSTime@@YA_JXZ         00605000 f i Npc.obj
 0002:000a50d0       ?hasTarget@CNpc@@QAE_NXZ   006050d0 f i Npc.obj
 0002:000a5110       ?increment@?$Atomic@G@@QAEGXZ 00605110 f i Npc.obj
 0002:000a5160       ?isAlive@CNpc@@UAE_NXZ     00605160 f i Npc.obj
 0002:000a51f0       ?isArtifact@CNpc@@QAE_NXZ  006051f0 f i Npc.obj
 0002:000a52d0       ?isDead@CNpc@@UAE_NXZ      006052d0 f i Npc.obj
 0002:000a5350       ?isGM@CUser@@QAE_NXZ       00605350 f i Npc.obj
 0002:000a53c0       ?isGuard@CNpc@@QAE_NXZ     006053c0 f i Npc.obj
 0002:000a5470       ?isHealer@CNpc@@QAE_NXZ    00605470 f i Npc.obj
 0002:000a54f0       ?isInSpawnRange@CNpc@@QAE_NHH@Z 006054f0 f   Npc.obj
 0002:000a55c0       ?isNonAttackableObject@CNpc@@QAE_NXZ 006055c0 f i Npc.obj
 0002:000a5660       ?isNonAttackingObject@CNpc@@QAE_NXZ 00605660 f i Npc.obj
 0002:000a5750       ?isShowBox@CNpc@@QAE_NXZ   00605750 f   Npc.obj
 0002:000a58e0       ?lower_bound@?$_Tree@V?$_Tmap_traits@GPAVCUser@@U?$less@G@std@@V?$allocator@U?$pair@$$CBGPAVCUser@@@std@@@3@$0A@@std@@@std@@QAE?AV?$_Tree_iterator@V?$_Tree_val@U?$_Tree_simple_types@U?$pair@$$CBGPAVCUser@@@std@@@std@@@std@@@2@ABG@Z 006058e0 f i Npc.obj
 0002:000a5980       ?lower_bound@?$_Tree@V?$_Tmap_traits@IPAU_K_MONSTER_ITEM@@U?$less@I@std@@V?$allocator@U?$pair@$$CBIPAU_K_MONSTER_ITEM@@@std@@@3@$0A@@std@@@std@@QAE?AV?$_Tree_iterator@V?$_Tree_val@U?$_Tree_simple_types@U?$pair@$$CBIPAU_K_MONSTER_ITEM@@@std@@@std@@@std@@@2@ABI@Z 00605980 f i Npc.obj
 0002:000a5a20       ?lower_bound@?$_Tree@V?$_Tmap_traits@IPAU_MAKE_ITEM_GRADE_CODE@@U?$less@I@std@@V?$allocator@U?$pair@$$CBIPAU_MAKE_ITEM_GRADE_CODE@@@std@@@3@$0A@@std@@@std@@QAE?AV?$_Tree_iterator@V?$_Tree_val@U?$_Tree_simple_types@U?$pair@$$CBIPAU_MAKE_ITEM_GRADE_CODE@@@std@@@std@@@std@@@2@ABI@Z 00605a20 f i Npc.obj
 0002:000a5ac0       ?lower_bound@?$_Tree@V?$_Tmap_traits@IPAU_MAKE_ITEM_GROUP@@U?$less@I@std@@V?$allocator@U?$pair@$$CBIPAU_MAKE_ITEM_GROUP@@@std@@@3@$0A@@std@@@std@@QAE?AV?$_Tree_iterator@V?$_Tree_val@U?$_Tree_simple_types@U?$pair@$$CBIPAU_MAKE_ITEM_GROUP@@@std@@@std@@@std@@@2@ABI@Z 00605ac0 f i Npc.obj
 0002:000a5b60       ?lower_bound@?$_Tree@V?$_Tmap_traits@IPAU_MAKE_ITEM_LARE_CODE@@U?$less@I@std@@V?$allocator@U?$pair@$$CBIPAU_MAKE_ITEM_LARE_CODE@@@std@@@3@$0A@@std@@@std@@QAE?AV?$_Tree_iterator@V?$_Tree_val@U?$_Tree_simple_types@U?$pair@$$CBIPAU_MAKE_ITEM_LARE_CODE@@@std@@@std@@@std@@@2@ABI@Z 00605b60 f i Npc.obj
 0002:000a5c00       ?lower_bound@?$_Tree@V?$_Tmap_traits@IPAU_MAKE_WEAPON@@U?$less@I@std@@V?$allocator@U?$pair@$$CBIPAU_MAKE_WEAPON@@@std@@@3@$0A@@std@@@std@@QAE?AV?$_Tree_iterator@V?$_Tree_val@U?$_Tree_simple_types@U?$pair@$$CBIPAU_MAKE_WEAPON@@@std@@@std@@@std@@@2@ABI@Z 00605c00 f i Npc.obj
 0002:000a5ca0       ?lower_bound@?$_Tree@V?$_Tmap_traits@PAVCUser@@HU?$less@PAVCUser@@@std@@V?$allocator@U?$pair@QAVCUser@@H@std@@@3@$0A@@std@@@std@@QAE?AV?$_Tree_iterator@V?$_Tree_val@U?$_Tree_simple_types@U?$pair@QAVCUser@@H@std@@@std@@@std@@@2@ABQAVCUser@@@Z 00605ca0 f i Npc.obj
 0002:000a5d40       ?max_size@?$_Default_allocator_traits@V?$allocator@I@std@@@std@@SAIABV?$allocator@I@2@@Z 00605d40 f i Npc.obj
 0002:000a5d80       ?max_size@?$_Default_allocator_traits@V?$allocator@U?$_Tree_node@U?$pair@$$CBGPAVCUser@@@std@@PAX@std@@@std@@@std@@SAIABV?$allocator@U?$_Tree_node@U?$pair@$$CBGPAVCUser@@@std@@PAX@std@@@2@@Z 00605d80 f i Npc.obj
 0002:000a5dc0       ?max_size@?$_Default_allocator_traits@V?$allocator@U?$_Tree_node@U?$pair@QAVCUser@@H@std@@PAX@std@@@std@@@std@@SAIABV?$allocator@U?$_Tree_node@U?$pair@QAVCUser@@H@std@@PAX@std@@@2@@Z 00605dc0 f i Npc.obj
 0002:000a5e00       ?max_size@?$_Tree@V?$_Tmap_traits@GPAVCUser@@U?$less@G@std@@V?$allocator@U?$pair@$$CBGPAVCUser@@@std@@@3@$0A@@std@@@std@@QBEIXZ 00605e00 f i Npc.obj
 0002:000a5e60       ?max_size@?$_Tree@V?$_Tmap_traits@PAVCUser@@HU?$less@PAVCUser@@@std@@V?$allocator@U?$pair@QAVCUser@@H@std@@@3@$0A@@std@@@std@@QBEIXZ 00605e60 f i Npc.obj
 0002:000a5ec0       ?max_size@?$vector@IV?$allocator@I@std@@@std@@QBEIXZ 00605ec0 f i Npc.obj
 0002:000a5f50       ?pointer_to@?$pointer_traits@PAU?$pair@$$CBGPAVCUser@@@std@@@std@@SAPAU?$pair@$$CBGPAVCUser@@@2@AAU32@@Z 00605f50 f i Npc.obj
 0002:000a5fa0       ?pointer_to@?$pointer_traits@PAU?$pair@$$CBIPAU_K_MONSTER_ITEM@@@std@@@std@@SAPAU?$pair@$$CBIPAU_K_MONSTER_ITEM@@@2@AAU32@@Z 00605fa0 f i Npc.obj
 0002:000a5ff0       ?pointer_to@?$pointer_traits@PAU?$pair@$$CBIPAU_MAKE_ITEM_GRADE_CODE@@@std@@@std@@SAPAU?$pair@$$CBIPAU_MAKE_ITEM_GRADE_CODE@@@2@AAU32@@Z 00605ff0 f i Npc.obj
 0002:000a6040       ?pointer_to@?$pointer_traits@PAU?$pair@$$CBIPAU_MAKE_ITEM_GROUP@@@std@@@std@@SAPAU?$pair@$$CBIPAU_MAKE_ITEM_GROUP@@@2@AAU32@@Z 00606040 f i Npc.obj
 0002:000a6090       ?pointer_to@?$pointer_traits@PAU?$pair@$$CBIPAU_MAKE_ITEM_LARE_CODE@@@std@@@std@@SAPAU?$pair@$$CBIPAU_MAKE_ITEM_LARE_CODE@@@2@AAU32@@Z 00606090 f i Npc.obj
 0002:000a60e0       ?pointer_to@?$pointer_traits@PAU?$pair@$$CBIPAU_MAKE_WEAPON@@@std@@@std@@SAPAU?$pair@$$CBIPAU_MAKE_WEAPON@@@2@AAU32@@Z 006060e0 f i Npc.obj
 0002:000a6130       ?pointer_to@?$pointer_traits@PAU?$pair@QAVCUser@@H@std@@@std@@SAPAU?$pair@QAVCUser@@H@2@AAU32@@Z 00606130 f i Npc.obj
 0002:000a6180       ?push_back@?$vector@IV?$allocator@I@std@@@std@@QAEXABI@Z 00606180 f i Npc.obj
 0002:000a61e0       ?size@?$_Tree@V?$_Tmap_traits@PAVCUser@@HU?$less@PAVCUser@@@std@@V?$allocator@U?$pair@QAVCUser@@H@std@@@3@$0A@@std@@@std@@QBEIXZ 006061e0 f i Npc.obj
 0002:000a6240       ?size@?$vector@IV?$allocator@I@std@@@std@@QBEIXZ 00606240 f i Npc.obj
 0002:000a62b0       _acosf                     006062b0 f i Npc.obj
 0002:000a6320       _asinf                     00606320 f i Npc.obj
 0002:000a6390       _cosf                      00606390 f i Npc.obj
 0002:000a6400       _sinf                      00606400 f i Npc.obj
 0002:000a67c0       ?MagicPacket@CNpcMagicProcess@@SA_JEIFFFFF@Z 006067c0 f   NpcMagicProcess.obj
 0002:000a6a70       ??$?0$$V@?$_Compressed_pair@V?$allocator@U?$_Tree_node@PAVCNpc@@PAX@std@@@std@@V?$_Tree_val@U?$_Tree_simple_types@PAVCNpc@@@std@@@2@$00@std@@QAE@U_Zero_then_variadic_args_t@1@@Z 00606a70 f i NpcThread.obj
 0002:000a6ad0       ??$?0AAV?$_Tree_const_iterator@V?$_Tree_val@U?$_Tree_simple_types@PAVCNpc@@@std@@@std@@@std@@AAV01@X$0A@@?$pair@V?$_Tree_const_iterator@V?$_Tree_val@U?$_Tree_simple_types@PAVCNpc@@@std@@@std@@@std@@V12@@std@@QAE@AAV?$_Tree_const_iterator@V?$_Tree_val@U?$_Tree_simple_types@PAVCNpc@@@std@@@std@@@1@0@Z 00606ad0 f i NpcThread.obj
 0002:000a6b60       ??$?0AAV?$_Tree_const_iterator@V?$_Tree_val@U?$_Tree_simple_types@PAVCNpc@@@std@@@std@@@std@@_NX$0A@@?$pair@V?$_Tree_const_iterator@V?$_Tree_val@U?$_Tree_simple_types@PAVCNpc@@@std@@@std@@@std@@_N@std@@QAE@AAV?$_Tree_const_iterator@V?$_Tree_val@U?$_Tree_simple_types@PAVCNpc@@@std@@@std@@@1@$$QA_N@Z 00606b60 f i NpcThread.obj
 0002:000a6be0       ??$?0ABU?$less@PAVCNpc@@@std@@U_Zero_then_variadic_args_t@1@@?$_Compressed_pair@U?$less@PAVCNpc@@@std@@V?$_Compressed_pair@V?$allocator@U?$_Tree_node@PAVCNpc@@PAX@std@@@std@@V?$_Tree_val@U?$_Tree_simple_types@PAVCNpc@@@std@@@2@$00@2@$00@std@@QAE@U_One_then_variadic_args_t@1@ABU?$less@PAVCNpc@@@1@$$QAU_Zero_then_variadic_args_t@1@@Z 00606be0 f i NpcThread.obj
 0002:000a6c60       ??$?0U?$_Tree_node@PAVCNpc@@PAX@std@@@?$allocator@U_Container_proxy@std@@@std@@QAE@ABV?$allocator@U?$_Tree_node@PAVCNpc@@PAX@std@@@1@@Z 00606c60 f i NpcThread.obj
 0002:000a6ca0       ??$?0V?$_Tree_const_iterator@V?$_Tree_val@U?$_Tree_simple_types@PAVCNpc@@@std@@@std@@@std@@_NX$0A@@?$pair@V?$_Tree_const_iterator@V?$_Tree_val@U?$_Tree_simple_types@PAVCNpc@@@std@@@std@@@std@@_N@std@@QAE@$$QAV?$_Tree_const_iterator@V?$_Tree_val@U?$_Tree_simple_types@PAVCNpc@@@std@@@std@@@1@$$QA_N@Z 00606ca0 f i NpcThread.obj
 0002:000a6d20       ??$?8DU?$char_traits@D@std@@V?$allocator@D@1@@std@@YA_NABV?$basic_string@DU?$char_traits@D@std@@V?$allocator@D@2@@0@QBD@Z 00606d20 f i NpcThread.obj
 0002:000a6d70       ??$?9DU?$char_traits@D@std@@V?$allocator@D@1@@std@@YA_NABV?$basic_string@DU?$char_traits@D@std@@V?$allocator@D@2@@0@QBD@Z 00606d70 f i NpcThread.obj
 0002:000a6df0       ??$?9H@@YA_NAAV?$Atomic@G@@H@Z 00606df0 f i NpcThread.obj
 0002:000a6e70       ??$_Buynode@ABQAVCNpc@@@?$_Tree_comp_alloc@V?$_Tset_traits@PAVCNpc@@U?$less@PAVCNpc@@@std@@V?$allocator@PAVCNpc@@@3@$0A@@std@@@std@@QAEPAU?$_Tree_node@PAVCNpc@@PAX@1@ABQAVCNpc@@@Z 00606e70 f i NpcThread.obj
 0002:000a6f90       ??$_Buynode_if_nil@ABQAVCNpc@@@?$_Tree@V?$_Tset_traits@PAVCNpc@@U?$less@PAVCNpc@@@std@@V?$allocator@PAVCNpc@@@3@$0A@@std@@@std@@IAEPAU?$_Tree_node@PAVCNpc@@PAX@1@U_Nil@1@ABQAVCNpc@@@Z 00606f90 f i NpcThread.obj
 0002:000a7000       ??$_Copy_memmove@PAGPAG@std@@YAPAGPAG00@Z 00607000 f i NpcThread.obj
 0002:000a7080       ??$_Debug_lt_pred@AAU?$less@PAVCNpc@@@std@@ABQAVCNpc@@ABQAV3@@std@@YA_NAAU?$less@PAVCNpc@@@0@ABQAVCNpc@@1PB_WI@Z 00607080 f i NpcThread.obj
 0002:000a7170       ??$_Debug_lt_pred@ABU?$less@PAVCNpc@@@std@@ABQAVCNpc@@ABQAV3@@std@@YA_NABU?$less@PAVCNpc@@@0@ABQAVCNpc@@1PB_WI@Z 00607170 f i NpcThread.obj
 0002:000a7260       ??$_Destroy_range1@V?$allocator@G@std@@@std@@YAXPAG0AAV?$allocator@G@0@U?$integral_constant@_N$00@0@@Z 00607260 f i NpcThread.obj
 0002:000a7290       ??$_Destroy_range@V?$allocator@G@std@@@std@@YAXPAG0AAV?$allocator@G@0@@Z 00607290 f i NpcThread.obj
 0002:000a7300       ??$_Distance1@V?$_Tree_const_iterator@V?$_Tree_val@U?$_Tree_simple_types@PAVCNpc@@@std@@@std@@@std@@@std@@YAHV?$_Tree_const_iterator@V?$_Tree_val@U?$_Tree_simple_types@PAVCNpc@@@std@@@std@@@0@0Uinput_iterator_tag@0@@Z 00607300 f i NpcThread.obj
 0002:000a73f0       ??$_Emplace_back_with_unused_capacity@ABG@?$vector@GV?$allocator@G@std@@@std@@AAEXABG@Z 006073f0 f i NpcThread.obj
 0002:000a74d0       ??$_Eqrange@PAVCNpc@@@?$_Tree@V?$_Tset_traits@PAVCNpc@@U?$less@PAVCNpc@@@std@@V?$allocator@PAVCNpc@@@3@$0A@@std@@@std@@IAE?AU?$pair@V?$_Tree_const_iterator@V?$_Tree_val@U?$_Tree_simple_types@PAVCNpc@@@std@@@std@@@std@@V12@@1@ABQAVCNpc@@@Z 006074d0 f i NpcThread.obj
 0002:000a7680       ??$_Eqrange@PAVCNpc@@@?$_Tree@V?$_Tset_traits@PAVCNpc@@U?$less@PAVCNpc@@@std@@V?$allocator@PAVCNpc@@@3@$0A@@std@@@std@@IBE?AU?$pair@V?$_Tree_const_iterator@V?$_Tree_val@U?$_Tree_simple_types@PAVCNpc@@@std@@@std@@@std@@V12@@1@ABQAVCNpc@@@Z 00607680 f i NpcThread.obj
 0002:000a79a0       ??$_Insert_at@ABQAVCNpc@@U_Nil@std@@@?$_Tree@V?$_Tset_traits@PAVCNpc@@U?$less@PAVCNpc@@@std@@V?$allocator@PAVCNpc@@@3@$0A@@std@@@std@@IAE?AV?$_Tree_const_iterator@V?$_Tree_val@U?$_Tree_simple_types@PAVCNpc@@@std@@@std@@@1@_NPAU?$_Tree_node@PAVCNpc@@PAX@1@ABQAVCNpc@@U_Nil@1@@Z 006079a0 f i NpcThread.obj
 0002:000a7d40       ??$_Insert_nohint@ABQAVCNpc@@U_Nil@std@@@?$_Tree@V?$_Tset_traits@PAVCNpc@@U?$less@PAVCNpc@@@std@@V?$allocator@PAVCNpc@@@3@$0A@@std@@@std@@IAE?AU?$pair@V?$_Tree_const_iterator@V?$_Tree_val@U?$_Tree_simple_types@PAVCNpc@@@std@@@std@@@std@@_N@1@_NABQAVCNpc@@U_Nil@1@@Z 00607d40 f i NpcThread.obj
 0002:000a8370       ??$_Kfn@$$CBIPAVCNpc@@@?$_Tmap_traits@IPAVCNpc@@U?$less@I@std@@V?$allocator@U?$pair@$$CBIPAVCNpc@@@std@@@3@$0A@@std@@SAABIABU?$pair@$$CBIPAVCNpc@@@1@@Z 00608370 f i NpcThread.obj
 0002:000a83b0       ??$_Lbound@I@?$_Tree@V?$_Tmap_traits@IPAVCNpc@@U?$less@I@std@@V?$allocator@U?$pair@$$CBIPAVCNpc@@@std@@@3@$0A@@std@@@std@@IBEPAU?$_Tree_node@U?$pair@$$CBIPAVCNpc@@@std@@PAX@1@ABI@Z 006083b0 f i NpcThread.obj
 0002:000a8480       ??$_Ptr_move_cat@GG@std@@YA?AU_Really_trivial_ptr_iterator_tag@0@ABQAG0@Z 00608480 f i NpcThread.obj
 0002:000a84c0       ??$_Rechecked@PAGPAG@std@@YAAAPAGAAPAGPAG@Z 006084c0 f i NpcThread.obj
 0002:000a8500       ??$_Traits_equal@U?$char_traits@D@std@@@std@@YA_NQBDI0I@Z 00608500 f i NpcThread.obj
 0002:000a8590       ??$_Unchecked@PAG@std@@YAPAGPAG@Z 00608590 f i NpcThread.obj
 0002:000a85d0       ??$_Unfancy@G@std@@YAPAGPAG@Z 006085d0 f i NpcThread.obj
 0002:000a8610       ??$_Uninitialized_move@PAGPAGV?$allocator@G@std@@@std@@YAPAGPAG00AAV?$allocator@G@0@@Z 00608610 f i NpcThread.obj
 0002:000a8740       ??$_Uninitialized_move_al_unchecked@GGV?$allocator@G@std@@@std@@YAPAGPAG00AAV?$allocator@G@0@U_Really_trivial_ptr_iterator_tag@0@U?$integral_constant@_N$00@0@@Z 00608740 f i NpcThread.obj
 0002:000a87a0       ??$addressof@$$CBV?$_Tree_val@U?$_Tree_simple_types@PAVCNpc@@@std@@@std@@@std@@YAPBV?$_Tree_val@U?$_Tree_simple_types@PAVCNpc@@@std@@@0@ABV10@@Z 006087a0 f i NpcThread.obj
 0002:000a87e0       ??$addressof@PAU?$_Tree_node@PAVCNpc@@PAX@std@@@std@@YAPAPAU?$_Tree_node@PAVCNpc@@PAX@0@AAPAU10@@Z 006087e0 f i NpcThread.obj
 0002:000a8820       ??$addressof@PAVCNpc@@@std@@YAPAPAVCNpc@@AAPAV1@@Z 00608820 f i NpcThread.obj
 0002:000a8860       ??$addressof@U?$pair@$$CBIPAVMAP@@@std@@@std@@YAPAU?$pair@$$CBIPAVMAP@@@0@AAU10@@Z 00608860 f i NpcThread.obj
 0002:000a88a0       ??$addressof@V?$_Tree_val@U?$_Tree_simple_types@PAVCNpc@@@std@@@std@@@std@@YAPAV?$_Tree_val@U?$_Tree_simple_types@PAVCNpc@@@std@@@0@AAV10@@Z 006088a0 f i NpcThread.obj
 0002:000a88e0       ??$addressof@V?$_Tree_val@U?$_Tree_simple_types@U?$pair@$$CBIPAVMAP@@@std@@@std@@@std@@@std@@YAPAV?$_Tree_val@U?$_Tree_simple_types@U?$pair@$$CBIPAVMAP@@@std@@@std@@@0@AAV10@@Z 006088e0 f i NpcThread.obj
 0002:000a8920       ??$construct@GABG@?$_Default_allocator_traits@V?$allocator@G@std@@@std@@SAXAAV?$allocator@G@1@QAGABG@Z 00608920 f i NpcThread.obj
 0002:000a89a0       ??$construct@PAU?$_Tree_node@PAVCNpc@@PAX@std@@AAPAU12@@?$_Default_allocator_traits@V?$allocator@U?$_Tree_node@PAVCNpc@@PAX@std@@@std@@@std@@SAXAAV?$allocator@U?$_Tree_node@PAVCNpc@@PAX@std@@@1@QAPAU?$_Tree_node@PAVCNpc@@PAX@1@AAPAU31@@Z 006089a0 f i NpcThread.obj
 0002:000a8a20       ??$construct@PAVCNpc@@ABQAV1@@?$_Default_allocator_traits@V?$allocator@U?$_Tree_node@PAVCNpc@@PAX@std@@@std@@@std@@SAXAAV?$allocator@U?$_Tree_node@PAVCNpc@@PAX@std@@@1@QAPAVCNpc@@ABQAV3@@Z 00608a20 f i NpcThread.obj
 0002:000a8aa0       ??$destroy@G@?$_Default_allocator_traits@V?$allocator@G@std@@@std@@SAXAAV?$allocator@G@1@QAG@Z 00608aa0 f i NpcThread.obj
 0002:000a8ad0       ??$destroy@PAU?$_Tree_node@PAVCNpc@@PAX@std@@@?$_Default_allocator_traits@V?$allocator@U?$_Tree_node@PAVCNpc@@PAX@std@@@std@@@std@@SAXAAV?$allocator@U?$_Tree_node@PAVCNpc@@PAX@std@@@1@QAPAU?$_Tree_node@PAVCNpc@@PAX@1@@Z 00608ad0 f i NpcThread.obj
 0002:000a8b00       ??$destroy@PAVCNpc@@@?$_Default_allocator_traits@V?$allocator@U?$_Tree_node@PAVCNpc@@PAX@std@@@std@@@std@@SAXAAV?$allocator@U?$_Tree_node@PAVCNpc@@PAX@std@@@1@QAPAVCNpc@@@Z 00608b00 f i NpcThread.obj
 0002:000a8b30       ??$destroy@U?$pair@$$CBIPAVCNpc@@@std@@@?$_Default_allocator_traits@V?$allocator@U?$_Tree_node@U?$pair@$$CBIPAVCNpc@@@std@@PAX@std@@@std@@@std@@SAXAAV?$allocator@U?$_Tree_node@U?$pair@$$CBIPAVCNpc@@@std@@PAX@std@@@1@QAU?$pair@$$CBIPAVCNpc@@@1@@Z 00608b30 f i NpcThread.obj
 0002:000a8b60       ??$distance@V?$_Tree_const_iterator@V?$_Tree_val@U?$_Tree_simple_types@PAVCNpc@@@std@@@std@@@std@@@std@@YAHV?$_Tree_const_iterator@V?$_Tree_val@U?$_Tree_simple_types@PAVCNpc@@@std@@@std@@@0@0@Z 00608b60 f i NpcThread.obj
 0002:000a8c70       ??$emplace_back@ABG@?$vector@GV?$allocator@G@std@@@std@@QAE@ABG@Z 00608c70 f i NpcThread.obj
 0002:000a8ea0       ??$erase@V?$_Tree_iterator@V?$_Tree_val@U?$_Tree_simple_types@U?$pair@$$CBIPAVCNpc@@@std@@@std@@@std@@@std@@X@?$_Tree@V?$_Tmap_traits@IPAVCNpc@@U?$less@I@std@@V?$allocator@U?$pair@$$CBIPAVCNpc@@@std@@@3@$0A@@std@@@std@@QAE?AV?$_Tree_iterator@V?$_Tree_val@U?$_Tree_simple_types@U?$pair@$$CBIPAVCNpc@@@std@@@std@@@std@@@1@V21@@Z 00608ea0 f i NpcThread.obj
 0002:000a8f90       ??$forward@AAPAU?$_Tree_node@PAVCNpc@@PAX@std@@@std@@YAAAPAU?$_Tree_node@PAVCNpc@@PAX@0@AAPAU10@@Z 00608f90 f i NpcThread.obj
 0002:000a8fd0       ??$forward@AAV?$_Tree_const_iterator@V?$_Tree_val@U?$_Tree_simple_types@PAVCNpc@@@std@@@std@@@std@@@std@@YAAAV?$_Tree_const_iterator@V?$_Tree_val@U?$_Tree_simple_types@PAVCNpc@@@std@@@std@@@0@AAV10@@Z 00608fd0 f i NpcThread.obj
 0002:000a9010       ??$forward@ABG@std@@YAABGABG@Z 00609010 f i NpcThread.obj
 0002:000a9050       ??$forward@ABQAVCNpc@@@std@@YAABQAVCNpc@@ABQAV1@@Z 00609050 f i NpcThread.obj
 0002:000a9090       ??$forward@ABU?$less@PAVCNpc@@@std@@@std@@YAABU?$less@PAVCNpc@@@0@ABU10@@Z 00609090 f i NpcThread.obj
 0002:000a90d0       ??$forward@V?$_Tree_const_iterator@V?$_Tree_val@U?$_Tree_simple_types@PAVCNpc@@@std@@@std@@@std@@@std@@YA$$QAV?$_Tree_const_iterator@V?$_Tree_val@U?$_Tree_simple_types@PAVCNpc@@@std@@@std@@@0@AAV10@@Z 006090d0 f i NpcThread.obj
 0002:000a9110       ??$insert@$0A@$0A@@?$_Tree@V?$_Tset_traits@PAVCNpc@@U?$less@PAVCNpc@@@std@@V?$allocator@PAVCNpc@@@3@$0A@@std@@@std@@QAE?AU?$pair@V?$_Tree_const_iterator@V?$_Tree_val@U?$_Tree_simple_types@PAVCNpc@@@std@@@std@@@std@@_N@1@ABQAVCNpc@@@Z 00609110 f i NpcThread.obj
 0002:000a91a0       ??0?$_Tree@V?$_Tset_traits@PAVCNpc@@U?$less@PAVCNpc@@@std@@V?$allocator@PAVCNpc@@@3@$0A@@std@@@std@@QAE@ABU?$less@PAVCNpc@@@1@@Z 006091a0 f i NpcThread.obj
 0002:000a9200       ??0?$_Tree_comp_alloc@V?$_Tset_traits@PAVCNpc@@U?$less@PAVCNpc@@@std@@V?$allocator@PAVCNpc@@@3@$0A@@std@@@std@@QAE@ABU?$less@PAVCNpc@@@1@@Z 00609200 f i NpcThread.obj
 0002:000a92c0       ??0?$_Tree_const_iterator@V?$_Tree_val@U?$_Tree_simple_types@PAVCNpc@@@std@@@std@@@std@@QAE@$$QAV01@@Z 006092c0 f i NpcThread.obj
 0002:000a9320       ??0?$_Tree_const_iterator@V?$_Tree_val@U?$_Tree_simple_types@PAVCNpc@@@std@@@std@@@std@@QAE@ABV01@@Z 00609320 f i NpcThread.obj
 0002:000a9380       ??0?$_Tree_const_iterator@V?$_Tree_val@U?$_Tree_simple_types@PAVCNpc@@@std@@@std@@@std@@QAE@PAU?$_Tree_node@PAVCNpc@@PAX@1@PBV?$_Tree_val@U?$_Tree_simple_types@PAVCNpc@@@std@@@1@@Z 00609380 f i NpcThread.obj
 0002:000a93e0       ??0?$_Tree_const_iterator@V?$_Tree_val@U?$_Tree_simple_types@U?$pair@$$CBIPAVMAP@@@std@@@std@@@std@@@std@@QAE@$$QAV01@@Z 006093e0 f i NpcThread.obj
 0002:000a9440       ??0?$_Tree_const_iterator@V?$_Tree_val@U?$_Tree_simple_types@U?$pair@$$CBIPAVMAP@@@std@@@std@@@std@@@std@@QAE@ABV01@@Z 00609440 f i NpcThread.obj
 0002:000a94a0       ??0?$_Tree_const_iterator@V?$_Tree_val@U?$_Tree_simple_types@U?$pair@$$CBIPAVMAP@@@std@@@std@@@std@@@std@@QAE@PAU?$_Tree_node@U?$pair@$$CBIPAVMAP@@@std@@PAX@1@PBV?$_Tree_val@U?$_Tree_simple_types@U?$pair@$$CBIPAVMAP@@@std@@@std@@@1@@Z 006094a0 f i NpcThread.obj
 0002:000a9500       ??0?$_Tree_iterator@V?$_Tree_val@U?$_Tree_simple_types@U?$pair@$$CBIPAVMAP@@@std@@@std@@@std@@@std@@QAE@$$QAV01@@Z 00609500 f i NpcThread.obj
 0002:000a9560       ??0?$_Tree_iterator@V?$_Tree_val@U?$_Tree_simple_types@U?$pair@$$CBIPAVMAP@@@std@@@std@@@std@@@std@@QAE@ABV01@@Z 00609560 f i NpcThread.obj
 0002:000a95c0       ??0?$_Tree_iterator@V?$_Tree_val@U?$_Tree_simple_types@U?$pair@$$CBIPAVMAP@@@std@@@std@@@std@@@std@@QAE@PAU?$_Tree_node@U?$pair@$$CBIPAVMAP@@@std@@PAX@1@PBV?$_Tree_val@U?$_Tree_simple_types@U?$pair@$$CBIPAVMAP@@@std@@@std@@@1@@Z 006095c0 f i NpcThread.obj
 0002:000a9620       ??0?$_Tree_unchecked_const_iterator@V?$_Tree_val@U?$_Tree_simple_types@PAVCNpc@@@std@@@std@@U_Iterator_base12@2@@std@@QAE@$$QAV01@@Z 00609620 f i NpcThread.obj
 0002:000a9690       ??0?$_Tree_unchecked_const_iterator@V?$_Tree_val@U?$_Tree_simple_types@PAVCNpc@@@std@@@std@@U_Iterator_base12@2@@std@@QAE@ABV01@@Z 00609690 f i NpcThread.obj
 0002:000a9700       ??0?$_Tree_unchecked_const_iterator@V?$_Tree_val@U?$_Tree_simple_types@PAVCNpc@@@std@@@std@@U_Iterator_base12@2@@std@@QAE@PAU?$_Tree_node@PAVCNpc@@PAX@1@PBV?$_Tree_val@U?$_Tree_simple_types@PAVCNpc@@@std@@@1@@Z 00609700 f i NpcThread.obj
 0002:000a9770       ??0?$_Tree_unchecked_const_iterator@V?$_Tree_val@U?$_Tree_simple_types@U?$pair@$$CBIPAVMAP@@@std@@@std@@@std@@U_Iterator_base12@2@@std@@QAE@$$QAV01@@Z 00609770 f i NpcThread.obj
 0002:000a97e0       ??0?$_Tree_unchecked_const_iterator@V?$_Tree_val@U?$_Tree_simple_types@U?$pair@$$CBIPAVMAP@@@std@@@std@@@std@@U_Iterator_base12@2@@std@@QAE@ABV01@@Z 006097e0 f i NpcThread.obj
 0002:000a9850       ??0?$_Tree_unchecked_const_iterator@V?$_Tree_val@U?$_Tree_simple_types@U?$pair@$$CBIPAVMAP@@@std@@@std@@@std@@U_Iterator_base12@2@@std@@QAE@PAU?$_Tree_node@U?$pair@$$CBIPAVMAP@@@std@@PAX@1@PBV?$_Tree_val@U?$_Tree_simple_types@U?$pair@$$CBIPAVMAP@@@std@@@std@@@1@@Z 00609850 f i NpcThread.obj
 0002:000a98c0       ??0?$_Tree_val@U?$_Tree_simple_types@PAVCNpc@@@std@@@std@@QAE@XZ 006098c0 f i NpcThread.obj
 0002:000a9930       ??0?$allocator@U?$_Tree_node@PAVCNpc@@PAX@std@@@std@@QAE@XZ 00609930 f i NpcThread.obj
 0002:000a9970       ??0?$set@PAVCNpc@@U?$less@PAVCNpc@@@std@@V?$allocator@PAVCNpc@@@3@@std@@QAE@XZ 00609970 f i NpcThread.obj
 0002:000a99d0       ??0CNpcThread@@QAE@XZ      006099d0 f   NpcThread.obj
 0002:000a9aa0       ??1?$_Compressed_pair@U?$less@PAVCNpc@@@std@@V?$_Compressed_pair@V?$allocator@U?$_Tree_node@PAVCNpc@@PAX@std@@@std@@V?$_Tree_val@U?$_Tree_simple_types@PAVCNpc@@@std@@@2@$00@2@$00@std@@QAE@XZ 00609aa0 f i NpcThread.obj
 0002:000a9af0       ??1?$_Compressed_pair@V?$allocator@U?$_Tree_node@PAVCNpc@@PAX@std@@@std@@V?$_Tree_val@U?$_Tree_simple_types@PAVCNpc@@@std@@@2@$00@std@@QAE@XZ 00609af0 f i NpcThread.obj
 0002:000a9b40       ??1?$_Tree@V?$_Tset_traits@PAVCNpc@@U?$less@PAVCNpc@@@std@@V?$allocator@PAVCNpc@@@3@$0A@@std@@@std@@QAE@XZ 00609b40 f i NpcThread.obj
 0002:000a9bd0       ??1?$_Tree_comp_alloc@V?$_Tset_traits@PAVCNpc@@U?$less@PAVCNpc@@@std@@V?$allocator@PAVCNpc@@@3@$0A@@std@@@std@@QAE@XZ 00609bd0 f i NpcThread.obj
 0002:000a9c80       ??1?$_Tree_const_iterator@V?$_Tree_val@U?$_Tree_simple_types@PAVCNpc@@@std@@@std@@@std@@QAE@XZ 00609c80 f i NpcThread.obj
 0002:000a9cd0       ??1?$_Tree_const_iterator@V?$_Tree_val@U?$_Tree_simple_types@U?$pair@$$CBIPAVMAP@@@std@@@std@@@std@@@std@@QAE@XZ 00609cd0 f i NpcThread.obj
 0002:000a9d20       ??1?$_Tree_iterator@V?$_Tree_val@U?$_Tree_simple_types@U?$pair@$$CBIPAVMAP@@@std@@@std@@@std@@@std@@QAE@XZ 00609d20 f i NpcThread.obj
 0002:000a9d70       ??1?$_Tree_unchecked_const_iterator@V?$_Tree_val@U?$_Tree_simple_types@PAVCNpc@@@std@@@std@@U_Iterator_base12@2@@std@@QAE@XZ 00609d70 f i NpcThread.obj
 0002:000a9dc0       ??1?$_Tree_unchecked_const_iterator@V?$_Tree_val@U?$_Tree_simple_types@U?$pair@$$CBIPAVMAP@@@std@@@std@@@std@@U_Iterator_base12@2@@std@@QAE@XZ 00609dc0 f i NpcThread.obj
 0002:000a9e10       ??1?$_Tree_val@U?$_Tree_simple_types@PAVCNpc@@@std@@@std@@QAE@XZ 00609e10 f i NpcThread.obj
 0002:000a9e60       ??1?$pair@V?$_Tree_const_iterator@V?$_Tree_val@U?$_Tree_simple_types@PAVCNpc@@@std@@@std@@@std@@V12@@std@@QAE@XZ 00609e60 f i NpcThread.obj
 0002:000a9ec0       ??1?$pair@V?$_Tree_const_iterator@V?$_Tree_val@U?$_Tree_simple_types@PAVCNpc@@@std@@@std@@@std@@_N@std@@QAE@XZ 00609ec0 f i NpcThread.obj
 0002:000a9f10       ??1?$set@PAVCNpc@@U?$less@PAVCNpc@@@std@@V?$allocator@PAVCNpc@@@3@@std@@QAE@XZ 00609f10 f i NpcThread.obj
 0002:000a9f60       ??1CNpcThread@@UAE@XZ      00609f60 f   NpcThread.obj
 0002:000aa070       ??1Thread@@UAE@XZ          0060a070 f i NpcThread.obj
 0002:000aa0d0       ??1thread@std@@QAE@XZ      0060a0d0 f i NpcThread.obj
 0002:000aa130       ??8?$_Tree_const_iterator@V?$_Tree_val@U?$_Tree_simple_types@PAVCNpc@@@std@@@std@@@std@@QBE_NABV01@@Z 0060a130 f i NpcThread.obj
 0002:000aa210       ??8?$_Tree_const_iterator@V?$_Tree_val@U?$_Tree_simple_types@U?$pair@$$CBIPAVMAP@@@std@@@std@@@std@@@std@@QBE_NABV01@@Z 0060a210 f i NpcThread.obj
 0002:000aa2f0       ??9?$_Tree_const_iterator@V?$_Tree_val@U?$_Tree_simple_types@PAVCNpc@@@std@@@std@@@std@@QBE_NABV01@@Z 0060a2f0 f i NpcThread.obj
 0002:000aa380       ??9?$_Tree_const_iterator@V?$_Tree_val@U?$_Tree_simple_types@U?$pair@$$CBIPAVMAP@@@std@@@std@@@std@@@std@@QBE_NABV01@@Z 0060a380 f i NpcThread.obj
 0002:000aa410       ??C?$_Tree_iterator@V?$_Tree_val@U?$_Tree_simple_types@U?$pair@$$CBIPAVMAP@@@std@@@std@@@std@@@std@@QBEPAU?$pair@$$CBIPAVMAP@@@1@XZ 0060a410 f i NpcThread.obj
 0002:000aa470       ??D?$_Tree_const_iterator@V?$_Tree_val@U?$_Tree_simple_types@PAVCNpc@@@std@@@std@@@std@@QBEABQAVCNpc@@XZ 0060a470 f i NpcThread.obj
 0002:000aa540       ??D?$_Tree_const_iterator@V?$_Tree_val@U?$_Tree_simple_types@U?$pair@$$CBIPAVMAP@@@std@@@std@@@std@@@std@@QBEABU?$pair@$$CBIPAVMAP@@@1@XZ 0060a540 f i NpcThread.obj
 0002:000aa610       ??D?$_Tree_iterator@V?$_Tree_val@U?$_Tree_simple_types@U?$pair@$$CBIPAVMAP@@@std@@@std@@@std@@@std@@QBEAAU?$pair@$$CBIPAVMAP@@@1@XZ 0060a610 f i NpcThread.obj
 0002:000aa660       ??E?$_Tree_const_iterator@V?$_Tree_val@U?$_Tree_simple_types@PAVCNpc@@@std@@@std@@@std@@QAE?AV01@H@Z 0060a660 f i NpcThread.obj
 0002:000aa780       ??E?$_Tree_const_iterator@V?$_Tree_val@U?$_Tree_simple_types@PAVCNpc@@@std@@@std@@@std@@QAEAAV01@XZ 0060a780 f i NpcThread.obj
 0002:000aa840       ??E?$_Tree_const_iterator@V?$_Tree_val@U?$_Tree_simple_types@U?$pair@$$CBIPAVMAP@@@std@@@std@@@std@@@std@@QAEAAV01@XZ 0060a840 f i NpcThread.obj
 0002:000aa900       ??E?$_Tree_iterator@V?$_Tree_val@U?$_Tree_simple_types@U?$pair@$$CBIPAVMAP@@@std@@@std@@@std@@@std@@QAE?AV01@H@Z 0060a900 f i NpcThread.obj
 0002:000aaa20       ??E?$_Tree_iterator@V?$_Tree_val@U?$_Tree_simple_types@U?$pair@$$CBIPAVMAP@@@std@@@std@@@std@@@std@@QAEAAV01@XZ 0060aa20 f i NpcThread.obj
 0002:000aaa80       ??E?$_Tree_unchecked_const_iterator@V?$_Tree_val@U?$_Tree_simple_types@PAVCNpc@@@std@@@std@@U_Iterator_base12@2@@std@@QAEAAV01@XZ 0060aa80 f i NpcThread.obj
 0002:000aab60       ??E?$_Tree_unchecked_const_iterator@V?$_Tree_val@U?$_Tree_simple_types@U?$pair@$$CBIPAVMAP@@@std@@@std@@@std@@U_Iterator_base12@2@@std@@QAEAAV01@XZ 0060ab60 f i NpcThread.obj
 0002:000aac40       ??F?$Atomic@G@@QAEAAV0@XZ  0060ac40 f i NpcThread.obj
 0002:000aaca0       ??F?$_Tree_const_iterator@V?$_Tree_val@U?$_Tree_simple_types@PAVCNpc@@@std@@@std@@@std@@QAEAAV01@XZ 0060aca0 f i NpcThread.obj
 0002:000aadb0       ??F?$_Tree_unchecked_const_iterator@V?$_Tree_val@U?$_Tree_simple_types@PAVCNpc@@@std@@@std@@U_Iterator_base12@2@@std@@QAEAAV01@XZ 0060adb0 f i NpcThread.obj
 0002:000aaeb0       ??F_Atomic_ushort@std@@QAEGXZ 0060aeb0 f i NpcThread.obj
 0002:000aaf10       ??R?$less@PAVCNpc@@@std@@QBE_NABQAVCNpc@@0@Z 0060af10 f i NpcThread.obj
 0002:000aaf80       ??_GCNpcThread@@UAEPAXI@Z  0060af80 f i NpcThread.obj
 0002:000aaf80       ??_ECNpcThread@@UAEPAXI@Z  0060af80 f i NpcThread.obj
 0002:000aaff0       ??_EThread@@UAEPAXI@Z      0060aff0 f i NpcThread.obj
 0002:000aaff0       ??_GThread@@UAEPAXI@Z      0060aff0 f i NpcThread.obj
 0002:000ab060       ?AddNPC@CNpcThread@@QAEXPAVCNpc@@@Z 0060b060 f   NpcThread.obj
 0002:000ab170       ?DeleteData@?$CSTLMap@VCNpc@@@@QAEXI@Z 0060b170 f i NpcThread.obj
 0002:000ab3b0       ?NpcThreadProc@@YGIPAX@Z   0060b3b0 f   NpcThread.obj
 0002:000ac030       ?RemoveNPC@CNpcThread@@QAEXPAVCNpc@@@Z 0060c030 f   NpcThread.obj
 0002:000ac130       ?ZoneEventThreadProc@@YGIPAX@Z 0060c130 f   NpcThread.obj
 0002:000ac440       ?_Alloc_proxy@?$_Tree_comp_alloc@V?$_Tset_traits@PAVCNpc@@U?$less@PAVCNpc@@@std@@V?$allocator@PAVCNpc@@@3@$0A@@std@@@std@@QAEXXZ 0060c440 f i NpcThread.obj
 0002:000ac560       ?_Atomic_fetch_sub_2@std@@YAGPCGGW4memory_order@1@@Z 0060c560 f i NpcThread.obj
 0002:000ac5c0       ?_Buyheadnode@?$_Tree_comp_alloc@V?$_Tset_traits@PAVCNpc@@U?$less@PAVCNpc@@@std@@V?$allocator@PAVCNpc@@@3@$0A@@std@@@std@@QAEPAU?$_Tree_node@PAVCNpc@@PAX@2@XZ 0060c5c0 f i NpcThread.obj
 0002:000ac770       ?_Buynode0@?$_Tree_comp_alloc@V?$_Tset_traits@PAVCNpc@@U?$less@PAVCNpc@@@std@@V?$allocator@PAVCNpc@@@3@$0A@@std@@@std@@QAEPAU?$_Tree_node@PAVCNpc@@PAX@2@XZ 0060c770 f i NpcThread.obj
 0002:000ac8e0       ?_Calculate_growth@?$vector@GV?$allocator@G@std@@@std@@ABEII@Z 0060c8e0 f i NpcThread.obj
 0002:000ac980       ?_Change_array@?$vector@GV?$allocator@G@std@@@std@@AAEXQAGII@Z 0060c980 f i NpcThread.obj
 0002:000aca80       ?_Compare@?$_Tree@V?$_Tmap_traits@IPAVCNpc@@U?$less@I@std@@V?$allocator@U?$pair@$$CBIPAVCNpc@@@std@@@3@$0A@@std@@@std@@IBE_NABI0@Z 0060ca80 f i NpcThread.obj
 0002:000acb00       ?_Construct@?$_Tree_comp_alloc@V?$_Tset_traits@PAVCNpc@@U?$less@PAVCNpc@@@std@@V?$allocator@PAVCNpc@@@3@$0A@@std@@@std@@QAEXXZ 0060cb00 f i NpcThread.obj
 0002:000acbf0       ?_Destroy@?$vector@GV?$allocator@G@std@@@std@@AAEXPAG0@Z 0060cbf0 f i NpcThread.obj
 0002:000acc60       ?_Destroy_if_not_nil@?$_Tree@V?$_Tset_traits@PAVCNpc@@U?$less@PAVCNpc@@@std@@V?$allocator@PAVCNpc@@@3@$0A@@std@@@std@@IAEXU_Nil@2@@Z 0060cc60 f i NpcThread.obj
 0002:000acca0       ?_Equal@?$basic_string@DU?$char_traits@D@std@@V?$allocator@D@2@@std@@QBE_NQBD@Z 0060cca0 f i NpcThread.obj
 0002:000acd60       ?_Erase@?$_Tree@V?$_Tset_traits@PAVCNpc@@U?$less@PAVCNpc@@@std@@V?$allocator@PAVCNpc@@@3@$0A@@std@@@std@@IAEXPAU?$_Tree_node@PAVCNpc@@PAX@2@@Z 0060cd60 f i NpcThread.obj
 0002:000ace30       ?_Free_proxy@?$_Tree_comp_alloc@V?$_Tset_traits@PAVCNpc@@U?$less@PAVCNpc@@@std@@V?$allocator@PAVCNpc@@@3@$0A@@std@@@std@@QAEXXZ 0060ce30 f i NpcThread.obj
 0002:000acf30       ?_Freeheadnode@?$_Tree_comp_alloc@V?$_Tset_traits@PAVCNpc@@U?$less@PAVCNpc@@@std@@V?$allocator@PAVCNpc@@@3@$0A@@std@@@std@@QAEXPAU?$_Tree_node@PAVCNpc@@PAX@2@@Z 0060cf30 f i NpcThread.obj
 0002:000ad000       ?_Freenode0@?$_Tree_comp_alloc@V?$_Tset_traits@PAVCNpc@@U?$less@PAVCNpc@@@std@@V?$allocator@PAVCNpc@@@3@$0A@@std@@@std@@QAEXPAU?$_Tree_node@PAVCNpc@@PAX@2@@Z 0060d000 f i NpcThread.obj
 0002:000ad0d0       ?_Get_data@?$_Tree_comp_alloc@V?$_Tmap_traits@IPAVMAP@@U?$less@I@std@@V?$allocator@U?$pair@$$CBIPAVMAP@@@std@@@3@$0A@@std@@@std@@QAEAAV?$_Tree_val@U?$_Tree_simple_types@U?$pair@$$CBIPAVMAP@@@std@@@std@@@2@XZ 0060d0d0 f i NpcThread.obj
 0002:000ad130       ?_Get_data@?$_Tree_comp_alloc@V?$_Tmap_traits@IPAVMAP@@U?$less@I@std@@V?$allocator@U?$pair@$$CBIPAVMAP@@@std@@@3@$0A@@std@@@std@@QBEABV?$_Tree_val@U?$_Tree_simple_types@U?$pair@$$CBIPAVMAP@@@std@@@std@@@2@XZ 0060d130 f i NpcThread.obj
 0002:000ad190       ?_Get_data@?$_Tree_comp_alloc@V?$_Tset_traits@PAVCNpc@@U?$less@PAVCNpc@@@std@@V?$allocator@PAVCNpc@@@3@$0A@@std@@@std@@QAEAAV?$_Tree_val@U?$_Tree_simple_types@PAVCNpc@@@std@@@2@XZ 0060d190 f i NpcThread.obj
 0002:000ad1f0       ?_Get_data@?$_Tree_comp_alloc@V?$_Tset_traits@PAVCNpc@@U?$less@PAVCNpc@@@std@@V?$allocator@PAVCNpc@@@3@$0A@@std@@@std@@QBEABV?$_Tree_val@U?$_Tree_simple_types@PAVCNpc@@@std@@@2@XZ 0060d1f0 f i NpcThread.obj
 0002:000ad250       ?_Get_data@?$_Vector_alloc@U?$_Vec_base_types@GV?$allocator@G@std@@@std@@@std@@QAEAAV?$_Vector_val@U?$_Simple_types@G@std@@@2@XZ 0060d250 f i NpcThread.obj
 0002:000ad2a0       ?_Get_data@?$_Vector_alloc@U?$_Vec_base_types@GV?$allocator@G@std@@@std@@@std@@QBEABV?$_Vector_val@U?$_Simple_types@G@std@@@2@XZ 0060d2a0 f i NpcThread.obj
 0002:000ad2f0       ?_Get_first@?$_Compressed_pair@U?$less@I@std@@V?$_Compressed_pair@V?$allocator@U?$_Tree_node@U?$pair@$$CBIPAVCNpc@@@std@@PAX@std@@@std@@V?$_Tree_val@U?$_Tree_simple_types@U?$pair@$$CBIPAVCNpc@@@std@@@std@@@2@$00@2@$00@std@@QAEAAU?$less@I@2@XZ 0060d2f0 f i NpcThread.obj
 0002:000ad330       ?_Get_first@?$_Compressed_pair@U?$less@I@std@@V?$_Compressed_pair@V?$allocator@U?$_Tree_node@U?$pair@$$CBIPAVCNpc@@@std@@PAX@std@@@std@@V?$_Tree_val@U?$_Tree_simple_types@U?$pair@$$CBIPAVCNpc@@@std@@@std@@@2@$00@2@$00@std@@QBEABU?$less@I@2@XZ 0060d330 f i NpcThread.obj
 0002:000ad370       ?_Get_first@?$_Compressed_pair@U?$less@PAVCNpc@@@std@@V?$_Compressed_pair@V?$allocator@U?$_Tree_node@PAVCNpc@@PAX@std@@@std@@V?$_Tree_val@U?$_Tree_simple_types@PAVCNpc@@@std@@@2@$00@2@$00@std@@QAEAAU?$less@PAVCNpc@@@2@XZ 0060d370 f i NpcThread.obj
 0002:000ad3b0       ?_Get_first@?$_Compressed_pair@U?$less@PAVCNpc@@@std@@V?$_Compressed_pair@V?$allocator@U?$_Tree_node@PAVCNpc@@PAX@std@@@std@@V?$_Tree_val@U?$_Tree_simple_types@PAVCNpc@@@std@@@2@$00@2@$00@std@@QBEABU?$less@PAVCNpc@@@2@XZ 0060d3b0 f i NpcThread.obj
 0002:000ad3f0       ?_Get_first@?$_Compressed_pair@V?$allocator@G@std@@V?$_Vector_val@U?$_Simple_types@G@std@@@2@$00@std@@QAEAAV?$allocator@G@2@XZ 0060d3f0 f i NpcThread.obj
